 brk_chess_engine_v1

 Timestamp is 3e384bb8 (Wed Jan 29 16:46:32 2003)

 Preferred load address is 00400000

 Start         Length     Name                   Class
 0001:00000000 0004cbc4H .text                   CODE
 0001:0004cbd0 00002f13H .text$x                 CODE
 0002:00000000 00002669H .rdata                  DATA
 0002:00002670 00001344H .rdata$r                DATA
 0002:000039b8 00003d10H .xdata$x                DATA
 0002:000076c8 00000000H .edata                  DATA
 0003:00000000 00000004H .CRT$XCA                DATA
 0003:00000004 000000d4H .CRT$XCU                DATA
 0003:000000d8 00000004H .CRT$XCZ                DATA
 0003:000000dc 00000004H .CRT$XIA                DATA
 0003:000000e0 00000010H .CRT$XIC                DATA
 0003:000000f0 00000004H .CRT$XIY                DATA
 0003:000000f4 00000004H .CRT$XIZ                DATA
 0003:000000f8 00000004H .CRT$XPA                DATA
 0003:000000fc 00000004H .CRT$XPX                DATA
 0003:00000100 00000004H .CRT$XPZ                DATA
 0003:00000104 00000004H .CRT$XTA                DATA
 0003:00000108 00000004H .CRT$XTB                DATA
 0003:0000010c 00000004H .CRT$XTZ                DATA
 0003:00000110 000024ccH .data                   DATA
 0003:000025e0 00001f50H .bss                    DATA
 0004:00000000 00000014H .idata$2                DATA
 0004:00000014 00000014H .idata$3                DATA
 0004:00000028 0000015cH .idata$4                DATA
 0004:00000184 0000015cH .idata$5                DATA
 0004:000002e0 00000624H .idata$6                DATA

  Address         Publics by Value              Rva+Base     Lib:Object

 0001:00000070       ??0cBitArray@@QAE@XZ       00401070 f i board_data.obj
 0001:00000120       ??_H@YGXPAXIHP6EX0@Z@Z     00401120 f i board_data.obj
 0001:00000180       ?fillValidBoard@@YAXXZ     00401180 f   board_data.obj
 0001:000001e0       ?set@cBitArray@@QAEXHE@Z   004011e0 f i board_data.obj
 0001:00000420       ??0cAPP@@QAE@XZ            00401420 f   cAPP.obj
 0001:000004f0       ??0threadPool@@QAE@XZ      004014f0 f i cAPP.obj
 0001:00000540       ??1threadPool@@QAE@XZ      00401540 f i cAPP.obj
 0001:000005a0       ?start@threadPool@@QAEHAAVthreadObject@@@Z 004015a0 f i cAPP.obj
 0001:000005f0       ?install@threadPool@@QAEHAAVthreadObject@@@Z 004015f0 f i cAPP.obj
 0001:00000680       ?startThreads@threadPool@@QAEXXZ 00401680 f i cAPP.obj
 0001:000006e0       ?startThread@threadObject@@QAEXXZ 004016e0 f i cAPP.obj
 0001:00000720       ??1cAPP@@QAE@XZ            00401720 f   cAPP.obj
 0001:000007d0       ?KillThreads@threadPool@@QAEXXZ 004017d0 f i cAPP.obj
 0001:00000810       ?dispatch@cAPP@@QAEHAAV?$basic_string@DU?$char_traits@D@std@@V?$allocator@D@2@@std@@@Z 00401810 f   cAPP.obj
 0001:00000960       ?setXboardPrompt@cInterface@@QAEXXZ 00401960 f i cAPP.obj
 0001:000009b0       ?setXboard@cOUTPUT@@QAEXXZ 004019b0 f i cAPP.obj
 0001:000009e0       ?dumpBoard@cENGINE@@QAEXXZ 004019e0 f i cAPP.obj
 0001:00000a30       ?getPosition@cGAME@@QAEAAVcBoard@@XZ 00401a30 f i cAPP.obj
 0001:00000a80       ?getPosition@cGamePosition@@QAEAAVcBoard@@XZ 00401a80 f i cAPP.obj
 0001:00000ab0       ?list@cENGINE@@QAEXXZ      00401ab0 f i cAPP.obj
 0001:00000af0       ?on@cENGINE@@QAEXXZ        00401af0 f i cAPP.obj
 0001:00000b50       ?off@cENGINE@@QAEXXZ       00401b50 f i cAPP.obj
 0001:00000ba0       ?isSet@cENGINE@@QAE_NXZ    00401ba0 f i cAPP.obj
 0001:00000be0       ?run@cAPP@@QAEXXZ          00401be0 f   cAPP.obj
 0001:00000cc0       ?isDone@cENGINE@@QAE_NXZ   00401cc0 f i cAPP.obj
 0001:00000d00       ??0?$basic_string@DU?$char_traits@D@std@@V?$allocator@D@2@@std@@QAE@ABV?$allocator@D@1@@Z 00401d00 f i cAPP.obj
 0001:00000d50       ??1?$basic_string@DU?$char_traits@D@std@@V?$allocator@D@2@@std@@QAE@XZ 00401d50 f i cAPP.obj
 0001:00000d90       ??4?$basic_string@DU?$char_traits@D@std@@V?$allocator@D@2@@std@@QAEAAV01@PBD@Z 00401d90 f i cAPP.obj
 0001:00000dd0       ?size@?$basic_string@DU?$char_traits@D@std@@V?$allocator@D@2@@std@@QBEIXZ 00401dd0 f i cAPP.obj
 0001:00000e00       ??A?$vector@VcGamePosition@@V?$allocator@VcGamePosition@@@std@@@std@@QAEAAVcGamePosition@@I@Z 00401e00 f i cAPP.obj
 0001:00000e40       ?assign@?$basic_string@DU?$char_traits@D@std@@V?$allocator@D@2@@std@@QAEAAV12@PBD@Z 00401e40 f i cAPP.obj
 0001:00000e90       ?length@?$char_traits@D@std@@SAIPBD@Z 00401e90 f i cAPP.obj
 0001:00000ed0       ?_Tidy@?$basic_string@DU?$char_traits@D@std@@V?$allocator@D@2@@std@@AAEX_N@Z 00401ed0 f i cAPP.obj
 0001:00000fb0       ?begin@?$vector@VcGamePosition@@V?$allocator@VcGamePosition@@@std@@@std@@QAEPAVcGamePosition@@XZ 00401fb0 f i cAPP.obj
 0001:00000fe0       ?assign@?$basic_string@DU?$char_traits@D@std@@V?$allocator@D@2@@std@@QAEAAV12@PBDI@Z 00401fe0 f i cAPP.obj
 0001:00001050       ?copy@?$char_traits@D@std@@SAPADPADPBDI@Z 00402050 f i cAPP.obj
 0001:00001090       ?_Eos@?$basic_string@DU?$char_traits@D@std@@V?$allocator@D@2@@std@@AAEXI@Z 00402090 f i cAPP.obj
 0001:000010f0       ?assign@?$char_traits@D@std@@SAXAADABD@Z 004020f0 f i cAPP.obj
 0001:00001120       ?_Grow@?$basic_string@DU?$char_traits@D@std@@V?$allocator@D@2@@std@@AAE_NI_N@Z 00402120 f i cAPP.obj
 0001:00001280       ?_Refcnt@?$basic_string@DU?$char_traits@D@std@@V?$allocator@D@2@@std@@AAEAAEPBD@Z 00402280 f i cAPP.obj
 0001:000012b0       ?deallocate@?$allocator@D@std@@QAEXPAXI@Z 004022b0 f i cAPP.obj
 0001:000012f0       ?max_size@?$basic_string@DU?$char_traits@D@std@@V?$allocator@D@2@@std@@QBEIXZ 004022f0 f i cAPP.obj
 0001:00001350       ?_Copy@?$basic_string@DU?$char_traits@D@std@@V?$allocator@D@2@@std@@AAEXI@Z 00402350 f i cAPP.obj
 0001:000014b0       ?allocate@?$allocator@D@std@@QAEPADIPBX@Z 004024b0 f i cAPP.obj
 0001:000014f0       ?max_size@?$allocator@D@std@@QBEIXZ 004024f0 f i cAPP.obj
 0001:00001540       ?_Allocate@std@@YAPADHPAD@Z 00402540 f i cAPP.obj
 0001:000015d0       ?id@?$ctype@G@std@@$D      004025d0 f i cAPP.obj
 0001:00001650       ?id@?$ctype@G@std@@$E      00402650 f i cAPP.obj
 0001:00001670       ??0cBitArray@@QAE@QAE@Z    00402670 f   cBitArray.obj
 0001:000016d0       ??0cBoard@@QAE@XZ          004026d0 f   cBoard.obj
 0001:00001770       ??0cBoard@@QAE@ABV0@@Z     00402770 f   cBoard.obj
 0001:000018f0       ?copy@cBitArray@@QAEXABV1@@Z 004028f0 f i cBoard.obj
 0001:00001930       ??4cBoard@@QAEAAV0@ABV0@@Z 00402930 f   cBoard.obj
 0001:00001a40       ??4cBitArray@@QAEAAV0@ABV0@@Z 00402a40 f i cBoard.obj
 0001:00001a80       ?NewGameBoard@cBoard@@QAEXXZ 00402a80 f   cBoard.obj
 0001:00001c10       ?or@cBitArray@@QAEXAAV1@@Z 00402c10 f i cBoard.obj
 0001:00001c50       ?get@cBoard@@QAEDHH@Z      00402c50 f   cBoard.obj
 0001:00001f10       ?getPiece@cBitArray@@QAEEHH@Z 00402f10 f i cBoard.obj
 0001:00001f60       ??AcBitArray@@QAEEH@Z      00402f60 f i cBoard.obj
 0001:00001f90       ?move@cBoard@@QAEXAAVcMove@@@Z 00402f90 f   cBoard.obj
 0001:00002520       ?and@cBitArray@@QAEXAAV1@@Z 00403520 f i cBoard.obj
 0001:00002560       ?xor@cBitArray@@QAEXAAV1@@Z 00403560 f i cBoard.obj
 0001:000025a0       ?not@cBitArray@@QAEXAAV1@@Z 004035a0 f i cBoard.obj
 0001:000025e0       ??0cMove@@QAE@XZ           004035e0 f i cBoard.obj
 0001:00002650       ?setMove@cMove@@QAEXHHHHHHH@Z 00403650 f i cBoard.obj
 0001:000026c0       ?setPiece@cBitArray@@QAEXHH@Z 004036c0 f i cBoard.obj
 0001:00002710       ?getPiece@cBoard@@QAEHAAVcBitArray@@@Z 00403710 f   cBoard.obj
 0001:00002840       ??IcBitArray@@QAE_KAAV0@@Z 00403840 f i cBoard.obj
 0001:00002900       ?find_rank@@YAHD@Z         00403900 f   cConvert.obj
 0001:00002970       ?find_file@@YAHD@Z         00403970 f   cConvert.obj
 0001:00002a00       ?convert@@YAPADAAVcMove@@@Z 00403a00 f   cConvert.obj
 0001:00002b90       ?active@cBitArray@@QAEHXZ  00403b90 f i cConvert.obj
 0001:00002be0       ?convertReply@@YAPADAAVcMove@@@Z 00403be0 f   cConvert.obj
 0001:00002d70       ?convert@cBoard@@QAE?AVcMove@@W4SQUARE_NAMES@@0@Z 00403d70 f   cConvert.obj
 0001:00002f00       ?setPiece@cBitArray@@QAEXW4SQUARE_NAMES@@@Z 00403f00 f i cConvert.obj
 0001:00002f70       ??0cMove@@QAE@ABV0@@Z      00403f70 f i cConvert.obj
 0001:00003010       ?setColor@cMove@@QAEXH@Z   00404010 f i cConvert.obj
 0001:00003040       ?setPiece@cMove@@QAEXH@Z   00404040 f i cConvert.obj
 0001:00003070       ?setCapture@cMove@@QAEXH@Z 00404070 f i cConvert.obj
 0001:00003320       ??0cENGINE@@QAE@AAVcOUTPUT@@@Z 00404320 f   cEngine.obj
 0001:00003490       ?getCurrentPly@cGAME@@QAEHXZ 00404490 f i cEngine.obj
 0001:000034c0       ??_GcENGINE@@UAEPAXI@Z     004044c0 f i cEngine.obj
 0001:000034c0       ??_EcENGINE@@UAEPAXI@Z     004044c0 f i cEngine.obj
 0001:00003520       ??1cENGINE@@UAE@XZ         00404520 f   cEngine.obj
 0001:000035f0       ?stopThread@threadObject@@QAEXXZ 004045f0 f i cEngine.obj
 0001:00003630       ?makeCompMove@cENGINE@@AAEHXZ 00404630 f   cEngine.obj
 0001:00003730       ?toMove@cPosition@@QAEHXZ  00404730 f i cEngine.obj
 0001:00003760       ?isMated@cPosition@@QAEHXZ 00404760 f i cEngine.obj
 0001:00003790       ?getRootPos@cTree@@QAEPAVcPosition@@XZ 00404790 f i cEngine.obj
 0001:000037d0       ?runThread@cENGINE@@EAEXXZ 004047d0 f   cEngine.obj
 0001:00003900       ?toMove@cGAME@@QAEHXZ      00404900 f i cEngine.obj
 0001:00003950       ?toMove@cGamePosition@@QAEHXZ 00404950 f i cEngine.obj
 0001:00003990       ?toMove@cBoard@@QAEHXZ     00404990 f i cEngine.obj
 0001:000039c0       ?makeMove@cENGINE@@QAEHAAV?$basic_string@DU?$char_traits@D@std@@V?$allocator@D@2@@std@@@Z 004049c0 f   cEngine.obj
 0001:00003b20       ?substr@?$basic_string@DU?$char_traits@D@std@@V?$allocator@D@2@@std@@QBE?AV12@II@Z 00404b20 f i cEngine.obj
 0001:00003b80       ??A?$vector@PAVcPosition@@V?$allocator@PAVcPosition@@@std@@@std@@QAEAAPAVcPosition@@I@Z 00404b80 f i cEngine.obj
 0001:00003bc0       ??0?$basic_string@DU?$char_traits@D@std@@V?$allocator@D@2@@std@@QAE@ABV01@IIABV?$allocator@D@1@@Z 00404bc0 f i cEngine.obj
 0001:00003c20       ?assign@?$basic_string@DU?$char_traits@D@std@@V?$allocator@D@2@@std@@QAEAAV12@ABV12@II@Z 00404c20 f i cEngine.obj
 0001:00003da0       ?c_str@?$basic_string@DU?$char_traits@D@std@@V?$allocator@D@2@@std@@QBEPBDXZ 00404da0 f i cEngine.obj
 0001:00003df0       ?_Nullstr@?$basic_string@DU?$char_traits@D@std@@V?$allocator@D@2@@std@@CAPBDXZ 00404df0 f i cEngine.obj
 0001:00003e20       ?begin@?$vector@PAVcPosition@@V?$allocator@PAVcPosition@@@std@@@std@@QAEPAPAVcPosition@@XZ 00404e20 f i cEngine.obj
 0001:00003e50       ?erase@?$basic_string@DU?$char_traits@D@std@@V?$allocator@D@2@@std@@QAEAAV12@II@Z 00404e50 f i cEngine.obj
 0001:00003f20       ?move@?$char_traits@D@std@@SAPADPADPBDI@Z 00404f20 f i cEngine.obj
 0001:00003f60       ?capacity@?$basic_string@DU?$char_traits@D@std@@V?$allocator@D@2@@std@@QBEIXZ 00404f60 f i cEngine.obj
 0001:00003f90       ?_Split@?$basic_string@DU?$char_traits@D@std@@V?$allocator@D@2@@std@@AAEXXZ 00404f90 f i cEngine.obj
 0001:00004020       ??8std@@YA_NABV?$allocator@D@0@0@Z 00405020 f i cEngine.obj
 0001:000042d0       ??0cGAME@@QAE@XZ           004052d0 f   cGAME.obj
 0001:00004360       ??1cGAME@@QAE@XZ           00405360 f   cGAME.obj
 0001:000043e0       ?new_game@cGAME@@QAEHXZ    004053e0 f   cGAME.obj
 0001:00004470       ??0cGamePosition@@QAE@AAVcBoard@@AAVcMove@@@Z 00405470 f i cGAME.obj
 0001:000044e0       ??4cMove@@QAEAAV0@ABV0@@Z  004054e0 f i cGAME.obj
 0001:00004570       ?make_move@cGAME@@QAEHW4SQUARE_NAMES@@0@Z 00405570 f   cGAME.obj
 0001:000045f0       ?make_move@cGAME@@QAEHAAVcMove@@@Z 004055f0 f   cGAME.obj
 0001:00004740       ?take_back@cGAME@@QAEHXZ   00405740 f   cGAME.obj
 0001:00004790       ?list@cGAME@@QAEXAAVcOUTPUT@@@Z 00405790 f   cGAME.obj
 0001:000048d0       ?getMove@cGamePosition@@QAEAAVcMove@@XZ 004058d0 f i cGAME.obj
 0001:00004900       ?getColor@cGamePosition@@QAEHXZ 00405900 f i cGAME.obj
 0001:00004940       ?getColor@cMove@@QAEHXZ    00405940 f i cGAME.obj
 0001:00004970       ?outputReply@cGAME@@QAEXAAVcOUTPUT@@@Z 00405970 f   cGAME.obj
 0001:00004a40       ??Y?$basic_string@DU?$char_traits@D@std@@V?$allocator@D@2@@std@@QAEAAV01@PBD@Z 00405a40 f i cGAME.obj
 0001:00004a80       ??0?$vector@VcGamePosition@@V?$allocator@VcGamePosition@@@std@@@std@@QAE@ABV?$allocator@VcGamePosition@@@1@@Z 00405a80 f i cGAME.obj
 0001:00004ae0       ??1?$vector@VcGamePosition@@V?$allocator@VcGamePosition@@@std@@@std@@QAE@XZ 00405ae0 f i cGAME.obj
 0001:00004b70       ?push_back@?$vector@VcGamePosition@@V?$allocator@VcGamePosition@@@std@@@std@@QAEXABVcGamePosition@@@Z 00405b70 f i cGAME.obj
 0001:00004bc0       ?pop_back@?$vector@VcGamePosition@@V?$allocator@VcGamePosition@@@std@@@std@@QAEXXZ 00405bc0 f i cGAME.obj
 0001:00004c10       ?clear@?$vector@VcGamePosition@@V?$allocator@VcGamePosition@@@std@@@std@@QAEXXZ 00405c10 f i cGAME.obj
 0001:00004c60       ??0?$vector@VcMove@@V?$allocator@VcMove@@@std@@@std@@QAE@ABV?$allocator@VcMove@@@1@@Z 00405c60 f i cGAME.obj
 0001:00004cc0       ??1?$vector@VcMove@@V?$allocator@VcMove@@@std@@@std@@QAE@XZ 00405cc0 f i cGAME.obj
 0001:00004d50       ?begin@?$vector@VcMove@@V?$allocator@VcMove@@@std@@@std@@QAEPAVcMove@@XZ 00405d50 f i cGAME.obj
 0001:00004d80       ?end@?$vector@VcMove@@V?$allocator@VcMove@@@std@@@std@@QAEPAVcMove@@XZ 00405d80 f i cGAME.obj
 0001:00004db0       ?clear@?$vector@VcMove@@V?$allocator@VcMove@@@std@@@std@@QAEXXZ 00405db0 f i cGAME.obj
 0001:00004e00       ?append@?$basic_string@DU?$char_traits@D@std@@V?$allocator@D@2@@std@@QAEAAV12@PBD@Z 00405e00 f i cGAME.obj
 0001:00004e50       ?end@?$vector@VcGamePosition@@V?$allocator@VcGamePosition@@@std@@@std@@QAEPAVcGamePosition@@XZ 00405e50 f i cGAME.obj
 0001:00004e80       ?insert@?$vector@VcGamePosition@@V?$allocator@VcGamePosition@@@std@@@std@@QAEPAVcGamePosition@@PAV3@ABV3@@Z 00405e80 f i cGAME.obj
 0001:00004ef0       ?erase@?$vector@VcGamePosition@@V?$allocator@VcGamePosition@@@std@@@std@@QAEPAVcGamePosition@@PAV3@@Z 00405ef0 f i cGAME.obj
 0001:00004f70       ?erase@?$vector@VcGamePosition@@V?$allocator@VcGamePosition@@@std@@@std@@QAEPAVcGamePosition@@PAV3@0@Z 00405f70 f i cGAME.obj
 0001:00004fe0       ?_Destroy@?$vector@VcGamePosition@@V?$allocator@VcGamePosition@@@std@@@std@@IAEXPAVcGamePosition@@0@Z 00405fe0 f i cGAME.obj
 0001:00005040       ?deallocate@?$allocator@VcGamePosition@@@std@@QAEXPAXI@Z 00406040 f i cGAME.obj
 0001:00005080       ?erase@?$vector@VcMove@@V?$allocator@VcMove@@@std@@@std@@QAEPAVcMove@@PAV3@0@Z 00406080 f i cGAME.obj
 0001:000050f0       ?_Destroy@?$vector@VcMove@@V?$allocator@VcMove@@@std@@@std@@IAEXPAVcMove@@0@Z 004060f0 f i cGAME.obj
 0001:00005150       ?deallocate@?$allocator@VcMove@@@std@@QAEXPAXI@Z 00406150 f i cGAME.obj
 0001:00005190       ?append@?$basic_string@DU?$char_traits@D@std@@V?$allocator@D@2@@std@@QAEAAV12@PBDI@Z 00406190 f i cGAME.obj
 0001:00005230       ?insert@?$vector@VcGamePosition@@V?$allocator@VcGamePosition@@@std@@@std@@QAEXPAVcGamePosition@@IABV3@@Z 00406230 f i cGAME.obj
 0001:00005480       ?destroy@?$allocator@VcGamePosition@@@std@@QAEXPAVcGamePosition@@@Z 00406480 f i cGAME.obj
 0001:000054c0       ?destroy@?$allocator@VcMove@@@std@@QAEXPAVcMove@@@Z 004064c0 f i cGAME.obj
 0001:00005500       ?size@?$vector@VcGamePosition@@V?$allocator@VcGamePosition@@@std@@@std@@QBEIXZ 00406500 f i cGAME.obj
 0001:00005550       ?_Ucopy@?$vector@VcGamePosition@@V?$allocator@VcGamePosition@@@std@@@std@@IAEPAVcGamePosition@@PBV3@0PAV3@@Z 00406550 f i cGAME.obj
 0001:000055c0       ?_Ufill@?$vector@VcGamePosition@@V?$allocator@VcGamePosition@@@std@@@std@@IAEXPAVcGamePosition@@IABV3@@Z 004065c0 f i cGAME.obj
 0001:00005620       ?allocate@?$allocator@VcGamePosition@@@std@@QAEPAVcGamePosition@@IPBX@Z 00406620 f i cGAME.obj
 0001:00005660       ?construct@?$allocator@VcGamePosition@@@std@@QAEXPAVcGamePosition@@ABV3@@Z 00406660 f i cGAME.obj
 0001:000056a0       ?find@std@@YAPAVcMove@@PAV2@0ABV2@@Z 004066a0 f i cGAME.obj
 0001:00005700       ??8cMove@@QAE_NABV0@@Z     00406700 f i cGAME.obj
 0001:000057c0       ??8cBitArray@@QAE_NABV0@@Z 004067c0 f i cGAME.obj
 0001:00005820       ?copy@std@@YAPAVcGamePosition@@PAV2@00@Z 00406820 f i cGAME.obj
 0001:00005880       ?copy@std@@YAPAVcMove@@PAV2@00@Z 00406880 f i cGAME.obj
 0001:000058e0       ?fill@std@@YAXPAVcGamePosition@@0ABV2@@Z 004068e0 f i cGAME.obj
 0001:00005930       ?copy_backward@std@@YAPAVcGamePosition@@PAV2@00@Z 00406930 f i cGAME.obj
 0001:00005990       ?_Destroy@std@@YAXPAVcGamePosition@@@Z 00406990 f i cGAME.obj
 0001:000059b0       ?_Destroy@std@@YAXPAVcMove@@@Z 004069b0 f i cGAME.obj
 0001:000059d0       ?_Allocate@std@@YAPAVcGamePosition@@HPAV2@@Z 004069d0 f i cGAME.obj
 0001:00005a20       ?_Construct@std@@YAXPAVcGamePosition@@ABV2@@Z 00406a20 f i cGAME.obj
 0001:00005ab0       ??2@YAPAXIPAX@Z            00406ab0 f i cGAME.obj
 0001:00005ae0       ??3@YAXPAX0@Z              00406ae0 f i cGAME.obj
 0001:00005b00       ??0cGamePosition@@QAE@ABV0@@Z 00406b00 f i cGAME.obj
 0001:00005b70       ??4cGamePosition@@QAEAAV0@ABV0@@Z 00406b70 f i cGAME.obj
 0001:00005e50       ?eol@cOUTPUT@@QAEXXZ       00406e50 f   cInterface.obj
 0001:00005ed0       ?endl@std@@YAAAV?$basic_ostream@DU?$char_traits@D@std@@@1@AAV21@@Z 00406ed0 f i cInterface.obj
 0001:00005f10       ??0Lock@@QAE@AAVlockableObject@@@Z 00406f10 f i cInterface.obj
 0001:00005f70       ??1Lock@@QAE@XZ            00406f70 f i cInterface.obj
 0001:00005fc0       ?echo@cOUTPUT@@QAEXAAV?$basic_string@DU?$char_traits@D@std@@V?$allocator@D@2@@std@@@Z 00406fc0 f   cInterface.obj
 0001:00006060       ?prompt@cOUTPUT@@QAEXAAV?$basic_string@DU?$char_traits@D@std@@V?$allocator@D@2@@std@@@Z 00407060 f   cInterface.obj
 0001:000060f0       ?echo@cOUTPUT@@QAEXPBD@Z   004070f0 f   cInterface.obj
 0001:00006190       ?prompt@cOUTPUT@@QAEXPBD@Z 00407190 f   cInterface.obj
 0001:00006220       ?echo@cOUTPUT@@QAEXAAVstrstream@std@@@Z 00407220 f   cInterface.obj
 0001:000062b0       ?str@strstream@std@@QAEPADXZ 004072b0 f i cInterface.obj
 0001:000062f0       ?str@strstreambuf@std@@QAEPADXZ 004072f0 f i cInterface.obj
 0001:00006330       ?dumpBoard@cOUTPUT@@QAEXAAVcBoard@@@Z 00407330 f   cInterface.obj
 0001:00006470       ??0cInterface@@QAE@XZ      00407470 f   cInterface.obj
 0001:00006520       ?setNormalPrompt@cInterface@@QAEXXZ 00407520 f i cInterface.obj
 0001:00006570       ?clearXboard@cOUTPUT@@QAEXXZ 00407570 f i cInterface.obj
 0001:000065a0       ??0cOUTPUT@@QAE@XZ         004075a0 f i cInterface.obj
 0001:000065e0       ??0criticalSection@@QAE@XZ 004075e0 f i cInterface.obj
 0001:00006640       ??0lockableObject@@QAE@XZ  00407640 f i cInterface.obj
 0001:00006670       ??_GlockableObject@@UAEPAXI@Z 00407670 f i cInterface.obj
 0001:00006670       ??_ElockableObject@@UAEPAXI@Z 00407670 f i cInterface.obj
 0001:000066d0       ??1lockableObject@@UAE@XZ  004076d0 f i cInterface.obj
 0001:00006700       ?Lock@criticalSection@@UAEXXZ 00407700 f i cInterface.obj
 0001:00006750       ?Unlock@criticalSection@@UAEXXZ 00407750 f i cInterface.obj
 0001:000067a0       ??_EcriticalSection@@UAEPAXI@Z 004077a0 f i cInterface.obj
 0001:000067a0       ??_GcriticalSection@@UAEPAXI@Z 004077a0 f i cInterface.obj
 0001:00006800       ??1criticalSection@@UAE@XZ 00407800 f i cInterface.obj
 0001:00006860       ??1cOUTPUT@@QAE@XZ         00407860 f i cInterface.obj
 0001:000068a0       ??1cInterface@@QAE@XZ      004078a0 f   cInterface.obj
 0001:00006930       ?fetchCmd@cInterface@@QAEXXZ 00407930 f   cInterface.obj
 0001:000069f0       ?get@cInterface@@QAEHAAV?$basic_string@DU?$char_traits@D@std@@V?$allocator@D@2@@std@@@Z 004079f0 f   cInterface.obj
 0001:00006a80       ?error@cInterface@@QAEXAAV?$basic_string@DU?$char_traits@D@std@@V?$allocator@D@2@@std@@@Z 00407a80 f   cInterface.obj
 0001:00006b20       ??4?$basic_string@DU?$char_traits@D@std@@V?$allocator@D@2@@std@@QAEAAV01@ABV01@@Z 00407b20 f i cInterface.obj
 0001:00006b60       ??Y?$basic_string@DU?$char_traits@D@std@@V?$allocator@D@2@@std@@QAEAAV01@ABV01@@Z 00407b60 f i cInterface.obj
 0001:00006ba0       ??Y?$basic_string@DU?$char_traits@D@std@@V?$allocator@D@2@@std@@QAEAAV01@D@Z 00407ba0 f i cInterface.obj
 0001:00006be0       ??A?$basic_string@DU?$char_traits@D@std@@V?$allocator@D@2@@std@@QAEAADI@Z 00407be0 f i cInterface.obj
 0001:00006c40       ??6?$basic_ostream@DU?$char_traits@D@std@@@std@@QAEAAV01@P6AAAV01@AAV01@@Z@Z 00407c40 f i cInterface.obj
 0001:00006c90       ??6?$basic_ostream@DU?$char_traits@D@std@@@std@@QAEAAV01@H@Z 00407c90 f i cInterface.obj
 0001:00006e80       ??1locale@std@@QAE@XZ      00407e80 f i cInterface.obj
 0001:00006ef0       ?_Decref@facet@locale@std@@QAEPAV123@XZ 00407ef0 f i cInterface.obj
 0001:00006f70       ?flags@ios_base@std@@QBEHXZ 00407f70 f i cInterface.obj
 0001:00006fa0       ?getloc@ios_base@std@@QBE?AVlocale@2@XZ 00407fa0 f i cInterface.obj
 0001:00007000       ??0locale@std@@QAE@ABV01@@Z 00408000 f i cInterface.obj
 0001:00007050       ?_Incref@facet@locale@std@@QAEXXZ 00408050 f i cInterface.obj
 0001:000070b0       ?put@?$basic_ostream@DU?$char_traits@D@std@@@std@@QAEAAV12@D@Z 004080b0 f i cInterface.obj
 0001:000071f0       ?eq_int_type@?$char_traits@D@std@@SA_NABH0@Z 004081f0 f i cInterface.obj
 0001:00007220       ?eof@?$char_traits@D@std@@SAHXZ 00408220 f i cInterface.obj
 0001:00007250       ?flush@?$basic_ostream@DU?$char_traits@D@std@@@std@@QAEAAV12@XZ 00408250 f i cInterface.obj
 0001:000072e0       ?fail@ios_base@std@@QBE_NXZ 004082e0 f i cInterface.obj
 0001:00007320       ?rdstate@ios_base@std@@QBEHXZ 00408320 f i cInterface.obj
 0001:00007350       ?setstate@?$basic_ios@DU?$char_traits@D@std@@@std@@QAEXH_N@Z 00408350 f i cInterface.obj
 0001:000073a0       ?rdbuf@?$basic_ios@DU?$char_traits@D@std@@@std@@QBEPAV?$basic_streambuf@DU?$char_traits@D@std@@@2@XZ 004083a0 f i cInterface.obj
 0001:000073d0       ?get@?$basic_istream@DU?$char_traits@D@std@@@std@@QAEAAV12@AAD@Z 004083d0 f i cInterface.obj
 0001:00007440       ?to_char_type@?$char_traits@D@std@@SADABH@Z 00408440 f i cInterface.obj
 0001:00007470       ?gptr@?$basic_streambuf@DU?$char_traits@D@std@@@std@@IBEPADXZ 00408470 f i cInterface.obj
 0001:000074a0       ??0?$deque@V?$basic_string@DU?$char_traits@D@std@@V?$allocator@D@2@@std@@V?$allocator@V?$basic_string@DU?$char_traits@D@std@@V?$allocator@D@2@@std@@@2@@std@@QAE@ABV?$allocator@V?$basic_string@DU?$char_traits@D@std@@V?$allocator@D@2@@std@@@1@@Z 004084a0 f i cInterface.obj
 0001:00007520       ??1?$deque@V?$basic_string@DU?$char_traits@D@std@@V?$allocator@D@2@@std@@V?$allocator@V?$basic_string@DU?$char_traits@D@std@@V?$allocator@D@2@@std@@@2@@std@@QAE@XZ 00408520 f i cInterface.obj
 0001:00007570       ?size@?$deque@V?$basic_string@DU?$char_traits@D@std@@V?$allocator@D@2@@std@@V?$allocator@V?$basic_string@DU?$char_traits@D@std@@V?$allocator@D@2@@std@@@2@@std@@QBEIXZ 00408570 f i cInterface.obj
 0001:000075a0       ??A?$deque@V?$basic_string@DU?$char_traits@D@std@@V?$allocator@D@2@@std@@V?$allocator@V?$basic_string@DU?$char_traits@D@std@@V?$allocator@D@2@@std@@@2@@std@@QAEAAV?$basic_string@DU?$char_traits@D@std@@V?$allocator@D@2@@1@I@Z 004085a0 f i cInterface.obj
 0001:00007600       ?pop_front@?$deque@V?$basic_string@DU?$char_traits@D@std@@V?$allocator@D@2@@std@@V?$allocator@V?$basic_string@DU?$char_traits@D@std@@V?$allocator@D@2@@std@@@2@@std@@QAEXXZ 00408600 f i cInterface.obj
 0001:00007690       ?push_back@?$deque@V?$basic_string@DU?$char_traits@D@std@@V?$allocator@D@2@@std@@V?$allocator@V?$basic_string@DU?$char_traits@D@std@@V?$allocator@D@2@@std@@@2@@std@@QAEXABV?$basic_string@DU?$char_traits@D@std@@V?$allocator@D@2@@2@@Z 00408690 f i cInterface.obj
 0001:00007790       ?clear@?$deque@V?$basic_string@DU?$char_traits@D@std@@V?$allocator@D@2@@std@@V?$allocator@V?$basic_string@DU?$char_traits@D@std@@V?$allocator@D@2@@std@@@2@@std@@QAEXXZ 00408790 f i cInterface.obj
 0001:00007820       ?append@?$basic_string@DU?$char_traits@D@std@@V?$allocator@D@2@@std@@QAEAAV12@ABV12@@Z 00408820 f i cInterface.obj
 0001:00007870       ?append@?$basic_string@DU?$char_traits@D@std@@V?$allocator@D@2@@std@@QAEAAV12@ID@Z 00408870 f i cInterface.obj
 0001:00007910       ?assign@?$char_traits@D@std@@SAPADPADIABD@Z 00408910 f i cInterface.obj
 0001:00007950       ?assign@?$basic_string@DU?$char_traits@D@std@@V?$allocator@D@2@@std@@QAEAAV12@ABV12@@Z 00408950 f i cInterface.obj
 0001:000079a0       ?_Freeze@?$basic_string@DU?$char_traits@D@std@@V?$allocator@D@2@@std@@AAEXXZ 004089a0 f i cInterface.obj
 0001:00007a40       ?clear@?$basic_ios@DU?$char_traits@D@std@@@std@@QAEXH_N@Z 00408a40 f i cInterface.obj
 0001:00007aa0       ?fill@?$basic_ios@DU?$char_traits@D@std@@@std@@QBEDXZ 00408aa0 f i cInterface.obj
 0001:00007ad0       ??0sentry@?$basic_ostream@DU?$char_traits@D@std@@@std@@QAE@AAV12@@Z 00408ad0 f i cInterface.obj
 0001:00007b20       ??1sentry@?$basic_ostream@DU?$char_traits@D@std@@@std@@QAE@XZ 00408b20 f i cInterface.obj
 0001:00007b70       ??Bsentry@?$basic_ostream@DU?$char_traits@D@std@@@std@@QBE_NXZ 00408b70 f i cInterface.obj
 0001:00007ba0       ?get@?$basic_istream@DU?$char_traits@D@std@@@std@@QAEHXZ 00408ba0 f i cInterface.obj
 0001:00007ce0       ??0sentry@?$basic_istream@DU?$char_traits@D@std@@@std@@QAE@AAV12@_N@Z 00408ce0 f i cInterface.obj
 0001:00007d30       ??Bsentry@?$basic_istream@DU?$char_traits@D@std@@@std@@QBE_NXZ 00408d30 f i cInterface.obj
 0001:00007d60       ?ipfx@?$basic_istream@DU?$char_traits@D@std@@@std@@QAE_N_N@Z 00408d60 f i cInterface.obj
 0001:00007f90       ?is@?$ctype@D@std@@QBE_NFD@Z 00408f90 f i cInterface.obj
 0001:00007fe0       ?good@ios_base@std@@QBE_NXZ 00408fe0 f i cInterface.obj
 0001:00008020       ?sgetc@?$basic_streambuf@DU?$char_traits@D@std@@@std@@QAEHXZ 00409020 f i cInterface.obj
 0001:000080a0       ?to_int_type@?$char_traits@D@std@@SAHABD@Z 004090a0 f i cInterface.obj
 0001:000080d0       ?snextc@?$basic_streambuf@DU?$char_traits@D@std@@@std@@QAEHXZ 004090d0 f i cInterface.obj
 0001:00008150       ?pubsync@?$basic_streambuf@DU?$char_traits@D@std@@@std@@QAEHXZ 00409150 f i cInterface.obj
 0001:000081a0       ?sbumpc@?$basic_streambuf@DU?$char_traits@D@std@@@std@@QAEHXZ 004091a0 f i cInterface.obj
 0001:00008220       ?sputc@?$basic_streambuf@DU?$char_traits@D@std@@@std@@QAEHD@Z 00409220 f i cInterface.obj
 0001:000082c0       ?pptr@?$basic_streambuf@DU?$char_traits@D@std@@@std@@IBEPADXZ 004092c0 f i cInterface.obj
 0001:000082f0       ?egptr@?$basic_streambuf@DU?$char_traits@D@std@@@std@@IBEPADXZ 004092f0 f i cInterface.obj
 0001:00008330       ?epptr@?$basic_streambuf@DU?$char_traits@D@std@@@std@@IBEPADXZ 00409330 f i cInterface.obj
 0001:00008370       ?_Gninc@?$basic_streambuf@DU?$char_traits@D@std@@@std@@IAEPADXZ 00409370 f i cInterface.obj
 0001:000083d0       ?begin@?$deque@V?$basic_string@DU?$char_traits@D@std@@V?$allocator@D@2@@std@@V?$allocator@V?$basic_string@DU?$char_traits@D@std@@V?$allocator@D@2@@std@@@2@@std@@QAE?AViterator@12@XZ 004093d0 f i cInterface.obj
 0001:00008420       ?end@?$deque@V?$basic_string@DU?$char_traits@D@std@@V?$allocator@D@2@@std@@V?$allocator@V?$basic_string@DU?$char_traits@D@std@@V?$allocator@D@2@@std@@@2@@std@@QAE?AViterator@12@XZ 00409420 f i cInterface.obj
 0001:00008470       ?empty@?$deque@V?$basic_string@DU?$char_traits@D@std@@V?$allocator@D@2@@std@@V?$allocator@V?$basic_string@DU?$char_traits@D@std@@V?$allocator@D@2@@std@@@2@@std@@QBE_NXZ 00409470 f i cInterface.obj
 0001:000084b0       ?erase@?$deque@V?$basic_string@DU?$char_traits@D@std@@V?$allocator@D@2@@std@@V?$allocator@V?$basic_string@DU?$char_traits@D@std@@V?$allocator@D@2@@std@@@2@@std@@QAE?AViterator@12@V312@0@Z 004094b0 f i cInterface.obj
 0001:000086b0       ?_Buyback@?$deque@V?$basic_string@DU?$char_traits@D@std@@V?$allocator@D@2@@std@@V?$allocator@V?$basic_string@DU?$char_traits@D@std@@V?$allocator@D@2@@std@@@2@@std@@IAEXXZ 004096b0 f i cInterface.obj
 0001:000088b0       ?_Freefront@?$deque@V?$basic_string@DU?$char_traits@D@std@@V?$allocator@D@2@@std@@V?$allocator@V?$basic_string@DU?$char_traits@D@std@@V?$allocator@D@2@@std@@@2@@std@@IAEXXZ 004098b0 f i cInterface.obj
 0001:000089a0       ?construct@?$allocator@V?$basic_string@DU?$char_traits@D@std@@V?$allocator@D@2@@std@@@std@@QAEXPAV?$basic_string@DU?$char_traits@D@std@@V?$allocator@D@2@@2@ABV32@@Z 004099a0 f i cInterface.obj
 0001:000089e0       ?destroy@?$allocator@V?$basic_string@DU?$char_traits@D@std@@V?$allocator@D@2@@std@@@std@@QAEXPAV?$basic_string@DU?$char_traits@D@std@@V?$allocator@D@2@@2@@Z 004099e0 f i cInterface.obj
 0001:00008a20       ??0iterator@?$deque@V?$basic_string@DU?$char_traits@D@std@@V?$allocator@D@2@@std@@V?$allocator@V?$basic_string@DU?$char_traits@D@std@@V?$allocator@D@2@@std@@@2@@std@@QAE@XZ 00409a20 f i cInterface.obj
 0001:00008a60       ??Diterator@?$deque@V?$basic_string@DU?$char_traits@D@std@@V?$allocator@D@2@@std@@V?$allocator@V?$basic_string@DU?$char_traits@D@std@@V?$allocator@D@2@@std@@@2@@std@@QBEAAV?$basic_string@DU?$char_traits@D@std@@V?$allocator@D@2@@2@XZ 00409a60 f i cInterface.obj
 0001:00008a90       ??Hiterator@?$deque@V?$basic_string@DU?$char_traits@D@std@@V?$allocator@D@2@@std@@V?$allocator@V?$basic_string@DU?$char_traits@D@std@@V?$allocator@D@2@@std@@@2@@std@@QBE?AV012@H@Z 00409a90 f i cInterface.obj
 0001:00008b10       ?put@?$num_put@DV?$ostreambuf_iterator@DU?$char_traits@D@std@@@std@@@std@@QBE?AV?$ostreambuf_iterator@DU?$char_traits@D@std@@@2@V32@AAVios_base@2@DJ@Z 00409b10 f i cInterface.obj
 0001:00008b80       ??0?$ostreambuf_iterator@DU?$char_traits@D@std@@@std@@QAE@PAV?$basic_streambuf@DU?$char_traits@D@std@@@1@@Z 00409b80 f i cInterface.obj
 0001:00008bc0       ?failed@?$ostreambuf_iterator@DU?$char_traits@D@std@@@std@@QBE_NXZ 00409bc0 f i cInterface.obj
 0001:00008bf0       ?append@?$basic_string@DU?$char_traits@D@std@@V?$allocator@D@2@@std@@QAEAAV12@ABV12@II@Z 00409bf0 f i cInterface.obj
 0001:00008cc0       ?opfx@?$basic_ostream@DU?$char_traits@D@std@@@std@@QAE_NXZ 00409cc0 f i cInterface.obj
 0001:00008d50       ?osfx@?$basic_ostream@DU?$char_traits@D@std@@@std@@QAEXXZ 00409d50 f i cInterface.obj
 0001:00008da0       ?tie@?$basic_ios@DU?$char_traits@D@std@@@std@@QBEPAV?$basic_ostream@DU?$char_traits@D@std@@@2@XZ 00409da0 f i cInterface.obj
 0001:00008dd0       ?_Pninc@?$basic_streambuf@DU?$char_traits@D@std@@@std@@IAEPADXZ 00409dd0 f i cInterface.obj
 0001:00008e30       ?pop_back@?$deque@V?$basic_string@DU?$char_traits@D@std@@V?$allocator@D@2@@std@@V?$allocator@V?$basic_string@DU?$char_traits@D@std@@V?$allocator@D@2@@std@@@2@@std@@QAEXXZ 00409e30 f i cInterface.obj
 0001:00008ed0       ?_Freemap@?$deque@V?$basic_string@DU?$char_traits@D@std@@V?$allocator@D@2@@std@@V?$allocator@V?$basic_string@DU?$char_traits@D@std@@V?$allocator@D@2@@std@@@2@@std@@IAEXXZ 00409ed0 f i cInterface.obj
 0001:00008f20       ?_Freeptr@?$deque@V?$basic_string@DU?$char_traits@D@std@@V?$allocator@D@2@@std@@V?$allocator@V?$basic_string@DU?$char_traits@D@std@@V?$allocator@D@2@@std@@@2@@std@@IAEXPAPAV?$basic_string@DU?$char_traits@D@std@@V?$allocator@D@2@@2@@Z 00409f20 f i cInterface.obj
 0001:00008f70       ?_Getmap@?$deque@V?$basic_string@DU?$char_traits@D@std@@V?$allocator@D@2@@std@@V?$allocator@V?$basic_string@DU?$char_traits@D@std@@V?$allocator@D@2@@std@@@2@@std@@IAEXXZ 00409f70 f i cInterface.obj
 0001:00008fc0       ?_Growmap@?$deque@V?$basic_string@DU?$char_traits@D@std@@V?$allocator@D@2@@std@@V?$allocator@V?$basic_string@DU?$char_traits@D@std@@V?$allocator@D@2@@std@@@2@@std@@IAEPAPAV?$basic_string@DU?$char_traits@D@std@@V?$allocator@D@2@@2@I@Z 00409fc0 f i cInterface.obj
 0001:00009060       ?_Setptr@?$deque@V?$basic_string@DU?$char_traits@D@std@@V?$allocator@D@2@@std@@V?$allocator@V?$basic_string@DU?$char_traits@D@std@@V?$allocator@D@2@@std@@@2@@std@@IAEXPAPAV?$basic_string@DU?$char_traits@D@std@@V?$allocator@D@2@@2@PAV32@@Z 0040a060 f i cInterface.obj
 0001:00009090       ?allocate@?$allocator@V?$basic_string@DU?$char_traits@D@std@@V?$allocator@D@2@@std@@@std@@QAEPAV?$basic_string@DU?$char_traits@D@std@@V?$allocator@D@2@@2@IPBX@Z 0040a090 f i cInterface.obj
 0001:000090d0       ??0const_iterator@?$deque@V?$basic_string@DU?$char_traits@D@std@@V?$allocator@D@2@@std@@V?$allocator@V?$basic_string@DU?$char_traits@D@std@@V?$allocator@D@2@@std@@@2@@std@@QAE@XZ 0040a0d0 f i cInterface.obj
 0001:00009120       ??0iterator@?$deque@V?$basic_string@DU?$char_traits@D@std@@V?$allocator@D@2@@std@@V?$allocator@V?$basic_string@DU?$char_traits@D@std@@V?$allocator@D@2@@std@@@2@@std@@QAE@PAV?$basic_string@DU?$char_traits@D@std@@V?$allocator@D@2@@2@PAPAV32@@Z 0040a120 f i cInterface.obj
 0001:00009170       ??Yiterator@?$deque@V?$basic_string@DU?$char_traits@D@std@@V?$allocator@D@2@@std@@V?$allocator@V?$basic_string@DU?$char_traits@D@std@@V?$allocator@D@2@@std@@@2@@std@@QAEAAV012@H@Z 0040a170 f i cInterface.obj
 0001:000091b0       ??Giterator@?$deque@V?$basic_string@DU?$char_traits@D@std@@V?$allocator@D@2@@std@@V?$allocator@V?$basic_string@DU?$char_traits@D@std@@V?$allocator@D@2@@std@@@2@@std@@QBEHABV012@@Z 0040a1b0 f i cInterface.obj
 0001:00009240       ?_Freeback@?$deque@V?$basic_string@DU?$char_traits@D@std@@V?$allocator@D@2@@std@@V?$allocator@V?$basic_string@DU?$char_traits@D@std@@V?$allocator@D@2@@std@@@2@@std@@IAEXXZ 0040a240 f i cInterface.obj
 0001:00009350       ?_Charalloc@?$allocator@V?$basic_string@DU?$char_traits@D@std@@V?$allocator@D@2@@std@@@std@@QAEPADI@Z 0040a350 f i cInterface.obj
 0001:00009390       ?deallocate@?$allocator@V?$basic_string@DU?$char_traits@D@std@@V?$allocator@D@2@@std@@@std@@QAEXPAXI@Z 0040a390 f i cInterface.obj
 0001:000093d0       ??0const_iterator@?$deque@V?$basic_string@DU?$char_traits@D@std@@V?$allocator@D@2@@std@@V?$allocator@V?$basic_string@DU?$char_traits@D@std@@V?$allocator@D@2@@std@@@2@@std@@QAE@PAV?$basic_string@DU?$char_traits@D@std@@V?$allocator@D@2@@2@PAPAV32@@Z 0040a3d0 f i cInterface.obj
 0001:00009430       ?_Add@const_iterator@?$deque@V?$basic_string@DU?$char_traits@D@std@@V?$allocator@D@2@@std@@V?$allocator@V?$basic_string@DU?$char_traits@D@std@@V?$allocator@D@2@@std@@@2@@std@@IAEXH@Z 0040a430 f i cInterface.obj
 0001:00009500       ?use_facet@std@@YAABV?$ctype@D@1@ABVlocale@1@PBV21@_N@Z 0040a500 f i cInterface.obj
 0001:00009640       ??0bad_cast@std@@QAE@PBD@Z 0040a640 f i cInterface.obj
 0001:00009690       ??1bad_cast@std@@UAE@XZ    0040a690 f i cInterface.obj
 0001:000096d0       ?_Doraise@bad_cast@std@@MBEXXZ 0040a6d0 f i cInterface.obj
 0001:00009720       ??_Ebad_cast@std@@UAEPAXI@Z 0040a720 f i cInterface.obj
 0001:00009720       ??_Gbad_cast@std@@UAEPAXI@Z 0040a720 f i cInterface.obj
 0001:00009780       ??0bad_cast@std@@QAE@ABV01@@Z 0040a780 f i cInterface.obj
 0001:000097d0       ??Bid@locale@std@@QAEIXZ   0040a7d0 f i cInterface.obj
 0001:00009840       ??0?$ctype@D@std@@QAE@PBF_NI@Z 0040a840 f i cInterface.obj
 0001:00009960       ??0ctype_base@std@@QAE@I@Z 0040a960 f i cInterface.obj
 0001:000099b0       ??0facet@locale@std@@IAE@I@Z 0040a9b0 f i cInterface.obj
 0001:000099f0       ??_Efacet@locale@std@@UAEPAXI@Z 0040a9f0 f i cInterface.obj
 0001:000099f0       ??_Gfacet@locale@std@@UAEPAXI@Z 0040a9f0 f i cInterface.obj
 0001:00009a50       ??1facet@locale@std@@UAE@XZ 0040aa50 f i cInterface.obj
 0001:00009a80       ??_Ectype_base@std@@UAEPAXI@Z 0040aa80 f i cInterface.obj
 0001:00009a80       ??_Gctype_base@std@@UAEPAXI@Z 0040aa80 f i cInterface.obj
 0001:00009ae0       ??1ctype_base@std@@UAE@XZ  0040aae0 f i cInterface.obj
 0001:00009b20       ?_Init@?$ctype@D@std@@IAEXABV_Locinfo@2@@Z 0040ab20 f i cInterface.obj
 0001:00009bf0       ?_Getctype@_Locinfo@std@@QBE?AU_Ctypevec@@XZ 0040abf0 f i cInterface.obj
 0001:00009c60       ?_Term@?$ctype@D@std@@KAXXZ 0040ac60 f i cInterface.obj
 0001:00009ca0       ?do_tolower@?$ctype@D@std@@MBEDD@Z 0040aca0 f i cInterface.obj
 0001:00009cf0       ?do_tolower@?$ctype@D@std@@MBEPBDPADPBD@Z 0040acf0 f i cInterface.obj
 0001:00009d60       ?do_toupper@?$ctype@D@std@@MBEDD@Z 0040ad60 f i cInterface.obj
 0001:00009db0       ?do_toupper@?$ctype@D@std@@MBEPBDPADPBD@Z 0040adb0 f i cInterface.obj
 0001:00009e20       ??_E?$ctype@D@std@@UAEPAXI@Z 0040ae20 f i cInterface.obj
 0001:00009e20       ??_G?$ctype@D@std@@UAEPAXI@Z 0040ae20 f i cInterface.obj
 0001:00009e80       ??1?$ctype@D@std@@UAE@XZ   0040ae80 f i cInterface.obj
 0001:00009ee0       ??6std@@YAAAV?$basic_ostream@DU?$char_traits@D@std@@@0@AAV10@ABV?$basic_string@DU?$char_traits@D@std@@V?$allocator@D@2@@0@@Z 0040aee0 f i cInterface.obj
 0001:00009f30       ??6std@@YAAAV?$basic_ostream@DU?$char_traits@D@std@@@0@AAV10@PBD@Z 0040af30 f i cInterface.obj
 0001:0000a210       ?width@ios_base@std@@QBEHXZ 0040b210 f i cInterface.obj
 0001:0000a240       ?width@ios_base@std@@QAEHH@Z 0040b240 f i cInterface.obj
 0001:0000a280       ??6std@@YAAAV?$basic_ostream@DU?$char_traits@D@std@@@0@AAV10@D@Z 0040b280 f i cInterface.obj
 0001:0000a550       ?use_facet@std@@YAABV?$num_put@DV?$ostreambuf_iterator@DU?$char_traits@D@std@@@std@@@1@ABVlocale@1@PBV21@_N@Z 0040b550 f i cInterface.obj
 0001:0000a690       ?copy_backward@std@@YA?AViterator@?$deque@V?$basic_string@DU?$char_traits@D@std@@V?$allocator@D@2@@std@@V?$allocator@V?$basic_string@DU?$char_traits@D@std@@V?$allocator@D@2@@std@@@2@@1@V231@00@Z 0040b690 f i cInterface.obj
 0001:0000a720       ?copy@std@@YA?AViterator@?$deque@V?$basic_string@DU?$char_traits@D@std@@V?$allocator@D@2@@std@@V?$allocator@V?$basic_string@DU?$char_traits@D@std@@V?$allocator@D@2@@std@@@2@@1@V231@00@Z 0040b720 f i cInterface.obj
 0001:0000a7b0       ?_Construct@std@@YAXPAV?$basic_string@DU?$char_traits@D@std@@V?$allocator@D@2@@1@ABV21@@Z 0040b7b0 f i cInterface.obj
 0001:0000a840       ??0?$basic_string@DU?$char_traits@D@std@@V?$allocator@D@2@@std@@QAE@ABV01@@Z 0040b840 f i cInterface.obj
 0001:0000a8a0       ?_Destroy@std@@YAXPAV?$basic_string@DU?$char_traits@D@std@@V?$allocator@D@2@@1@@Z 0040b8a0 f i cInterface.obj
 0001:0000a8e0       ?copy@std@@YAPAPAV?$basic_string@DU?$char_traits@D@std@@V?$allocator@D@2@@1@PAPAV21@00@Z 0040b8e0 f i cInterface.obj
 0001:0000a930       ?_Allocate@std@@YAPAV?$basic_string@DU?$char_traits@D@std@@V?$allocator@D@2@@1@HPAV21@@Z 0040b930 f i cInterface.obj
 0001:0000a980       ??_G?$basic_string@DU?$char_traits@D@std@@V?$allocator@D@2@@std@@QAEPAXI@Z 0040b980 f i cInterface.obj
 0001:0000a9e0       ?sputn@?$basic_streambuf@DU?$char_traits@D@std@@@std@@QAEHPBDH@Z 0040b9e0 f i cInterface.obj
 0001:0000aa30       ??Eiterator@?$deque@V?$basic_string@DU?$char_traits@D@std@@V?$allocator@D@2@@std@@V?$allocator@V?$basic_string@DU?$char_traits@D@std@@V?$allocator@D@2@@std@@@2@@std@@QAEAAV012@XZ 0040ba30 f i cInterface.obj
 0001:0000aab0       ??Fiterator@?$deque@V?$basic_string@DU?$char_traits@D@std@@V?$allocator@D@2@@std@@V?$allocator@V?$basic_string@DU?$char_traits@D@std@@V?$allocator@D@2@@std@@@2@@std@@QAEAAV012@XZ 0040bab0 f i cInterface.obj
 0001:0000ab30       ??9iterator@?$deque@V?$basic_string@DU?$char_traits@D@std@@V?$allocator@D@2@@std@@V?$allocator@V?$basic_string@DU?$char_traits@D@std@@V?$allocator@D@2@@std@@@2@@std@@QBE_NABV012@@Z 0040bb30 f i cInterface.obj
 0001:0000ab80       ??0?$num_put@DV?$ostreambuf_iterator@DU?$char_traits@D@std@@@std@@@std@@QAE@I@Z 0040bb80 f i cInterface.obj
 0001:0000ac30       ?do_put@?$num_put@DV?$ostreambuf_iterator@DU?$char_traits@D@std@@@std@@@std@@MBE?AV?$ostreambuf_iterator@DU?$char_traits@D@std@@@2@V32@AAVios_base@2@D_N@Z 0040bc30 f i cInterface.obj
 0001:0000aea0       ?do_put@?$num_put@DV?$ostreambuf_iterator@DU?$char_traits@D@std@@@std@@@std@@MBE?AV?$ostreambuf_iterator@DU?$char_traits@D@std@@@2@V32@AAVios_base@2@DJ@Z 0040bea0 f i cInterface.obj
 0001:0000af40       ?do_put@?$num_put@DV?$ostreambuf_iterator@DU?$char_traits@D@std@@@std@@@std@@MBE?AV?$ostreambuf_iterator@DU?$char_traits@D@std@@@2@V32@AAVios_base@2@DK@Z 0040bf40 f i cInterface.obj
 0001:0000afe0       ?do_put@?$num_put@DV?$ostreambuf_iterator@DU?$char_traits@D@std@@@std@@@std@@MBE?AV?$ostreambuf_iterator@DU?$char_traits@D@std@@@2@V32@AAVios_base@2@DN@Z 0040bfe0 f i cInterface.obj
 0001:0000b0e0       ?precision@ios_base@std@@QBEHXZ 0040c0e0 f i cInterface.obj
 0001:0000b110       ?do_put@?$num_put@DV?$ostreambuf_iterator@DU?$char_traits@D@std@@@std@@@std@@MBE?AV?$ostreambuf_iterator@DU?$char_traits@D@std@@@2@V32@AAVios_base@2@DO@Z 0040c110 f i cInterface.obj
 0001:0000b210       ?do_put@?$num_put@DV?$ostreambuf_iterator@DU?$char_traits@D@std@@@std@@@std@@MBE?AV?$ostreambuf_iterator@DU?$char_traits@D@std@@@2@V32@AAVios_base@2@DPBX@Z 0040c210 f i cInterface.obj
 0001:0000b340       ??_E?$num_put@DV?$ostreambuf_iterator@DU?$char_traits@D@std@@@std@@@std@@UAEPAXI@Z 0040c340 f i cInterface.obj
 0001:0000b340       ??_G?$num_put@DV?$ostreambuf_iterator@DU?$char_traits@D@std@@@std@@@std@@UAEPAXI@Z 0040c340 f i cInterface.obj
 0001:0000b3a0       ??1?$num_put@DV?$ostreambuf_iterator@DU?$char_traits@D@std@@@std@@@std@@UAE@XZ 0040c3a0 f i cInterface.obj
 0001:0000b3e0       ?_Ffmt@?$num_put@DV?$ostreambuf_iterator@DU?$char_traits@D@std@@@std@@@std@@KAPADPADDH@Z 0040c3e0 f i cInterface.obj
 0001:0000b4d0       ?_Fput@?$num_put@DV?$ostreambuf_iterator@DU?$char_traits@D@std@@@std@@@std@@KA?AV?$ostreambuf_iterator@DU?$char_traits@D@std@@@2@V32@AAVios_base@2@DPBDII@Z 0040c4d0 f i cInterface.obj
 0001:0000b8b0       ?_Ifmt@?$num_put@DV?$ostreambuf_iterator@DU?$char_traits@D@std@@@std@@@std@@KAPADPADDH@Z 0040c8b0 f i cInterface.obj
 0001:0000b990       ?_Iput@?$num_put@DV?$ostreambuf_iterator@DU?$char_traits@D@std@@@std@@@std@@KA?AV?$ostreambuf_iterator@DU?$char_traits@D@std@@@2@V32@AAVios_base@2@DPADI@Z 0040c990 f i cInterface.obj
 0001:0000bd90       ?_Put@?$num_put@DV?$ostreambuf_iterator@DU?$char_traits@D@std@@@std@@@std@@KA?AV?$ostreambuf_iterator@DU?$char_traits@D@std@@@2@V32@PBDI@Z 0040cd90 f i cInterface.obj
 0001:0000be10       ?_Putc@?$num_put@DV?$ostreambuf_iterator@DU?$char_traits@D@std@@@std@@@std@@KA?AV?$ostreambuf_iterator@DU?$char_traits@D@std@@@2@V32@PBDI@Z 0040ce10 f i cInterface.obj
 0001:0000be90       ?_Rep@?$num_put@DV?$ostreambuf_iterator@DU?$char_traits@D@std@@@std@@@std@@KA?AV?$ostreambuf_iterator@DU?$char_traits@D@std@@@2@V32@DI@Z 0040ce90 f i cInterface.obj
 0001:0000bf00       ?falsename@?$numpunct@D@std@@QBE?AV?$basic_string@DU?$char_traits@D@std@@V?$allocator@D@2@@2@XZ 0040cf00 f i cInterface.obj
 0001:0000bf60       ?truename@?$numpunct@D@std@@QBE?AV?$basic_string@DU?$char_traits@D@std@@V?$allocator@D@2@@2@XZ 0040cf60 f i cInterface.obj
 0001:0000bfc0       ??4?$ostreambuf_iterator@DU?$char_traits@D@std@@@std@@QAEAAV01@D@Z 0040cfc0 f i cInterface.obj
 0001:0000c040       ??D?$ostreambuf_iterator@DU?$char_traits@D@std@@@std@@QAEAAV01@XZ 0040d040 f i cInterface.obj
 0001:0000c070       ??E?$ostreambuf_iterator@DU?$char_traits@D@std@@@std@@QAEAAV01@XZ 0040d070 f i cInterface.obj
 0001:0000c0a0       ?decimal_point@?$numpunct@D@std@@QBEDXZ 0040d0a0 f i cInterface.obj
 0001:0000c0f0       ?thousands_sep@?$numpunct@D@std@@QBEDXZ 0040d0f0 f i cInterface.obj
 0001:0000c140       ?grouping@?$numpunct@D@std@@QBE?AV?$basic_string@DU?$char_traits@D@std@@V?$allocator@D@2@@2@XZ 0040d140 f i cInterface.obj
 0001:0000c1a0       ?_Widen@std@@YADDPAD@Z     0040d1a0 f i cInterface.obj
 0001:0000c1d0       ?use_facet@std@@YAABV?$numpunct@D@1@ABVlocale@1@PBV21@_N@Z 0040d1d0 f i cInterface.obj
 0001:0000c310       ??0?$numpunct@D@std@@QAE@I@Z 0040d310 f i cInterface.obj
 0001:0000c3c0       ?do_decimal_point@?$numpunct@D@std@@MBEDXZ 0040d3c0 f i cInterface.obj
 0001:0000c3f0       ?do_thousands_sep@?$numpunct@D@std@@MBEDXZ 0040d3f0 f i cInterface.obj
 0001:0000c420       ?do_grouping@?$numpunct@D@std@@MBE?AV?$basic_string@DU?$char_traits@D@std@@V?$allocator@D@2@@2@XZ 0040d420 f i cInterface.obj
 0001:0000c480       ?do_falsename@?$numpunct@D@std@@MBE?AV?$basic_string@DU?$char_traits@D@std@@V?$allocator@D@2@@2@XZ 0040d480 f i cInterface.obj
 0001:0000c4e0       ?do_truename@?$numpunct@D@std@@MBE?AV?$basic_string@DU?$char_traits@D@std@@V?$allocator@D@2@@2@XZ 0040d4e0 f i cInterface.obj
 0001:0000c540       ??_G?$numpunct@D@std@@UAEPAXI@Z 0040d540 f i cInterface.obj
 0001:0000c540       ??_E?$numpunct@D@std@@UAEPAXI@Z 0040d540 f i cInterface.obj
 0001:0000c5a0       ??1?$numpunct@D@std@@UAE@XZ 0040d5a0 f i cInterface.obj
 0001:0000c620       ??0?$basic_string@DU?$char_traits@D@std@@V?$allocator@D@2@@std@@QAE@PBDABV?$allocator@D@1@@Z 0040d620 f i cInterface.obj
 0001:0000c680       ?_Save@?$_Tidyfac@V?$ctype@D@std@@@std@@SAPAV?$ctype@D@2@PAV32@@Z 0040d680 f i cInterface.obj
 0001:0000c710       ?_Save@?$_Tidyfac@V?$num_put@DV?$ostreambuf_iterator@DU?$char_traits@D@std@@@std@@@std@@@std@@SAPAV?$num_put@DV?$ostreambuf_iterator@DU?$char_traits@D@std@@@std@@@2@PAV32@@Z 0040d710 f i cInterface.obj
 0001:0000c7a0       ?_Save@?$_Tidyfac@V?$numpunct@D@std@@@std@@SAPAV?$numpunct@D@2@PAV32@@Z 0040d7a0 f i cInterface.obj
 0001:0000c830       ??8iterator@?$deque@V?$basic_string@DU?$char_traits@D@std@@V?$allocator@D@2@@std@@V?$allocator@V?$basic_string@DU?$char_traits@D@std@@V?$allocator@D@2@@std@@@2@@std@@QBE_NABV012@@Z 0040d830 f i cInterface.obj
 0001:0000c870       ?_Init@?$num_put@DV?$ostreambuf_iterator@DU?$char_traits@D@std@@@std@@@std@@IAEXABV_Locinfo@2@@Z 0040d870 f i cInterface.obj
 0001:0000c8a0       ?_Init@?$numpunct@D@std@@IAEXABV_Locinfo@2@@Z 0040d8a0 f i cInterface.obj
 0001:0000c960       ?_Getlconv@_Locinfo@std@@QBEPBUlconv@@XZ 0040d960 f i cInterface.obj
 0001:0000c9a0       ?_Getfalse@_Locinfo@std@@QBEPBDXZ 0040d9a0 f i cInterface.obj
 0001:0000c9d0       ?_Gettrue@_Locinfo@std@@QBEPBDXZ 0040d9d0 f i cInterface.obj
 0001:0000ca00       ?_Tidy@?$_Tidyfac@V?$ctype@D@std@@@std@@SAXXZ 0040da00 f i cInterface.obj
 0001:0000cab0       ?_Tidy@?$_Tidyfac@V?$num_put@DV?$ostreambuf_iterator@DU?$char_traits@D@std@@@std@@@std@@@std@@SAXXZ 0040dab0 f i cInterface.obj
 0001:0000cb60       ?_Tidy@?$_Tidyfac@V?$numpunct@D@std@@@std@@SAXXZ 0040db60 f i cInterface.obj
 0001:0000cc10       ?_Maklocstr@std@@YAPADPBDPAD@Z 0040dc10 f i cInterface.obj
 0001:0000cd40       ?id@?$num_put@DV?$ostreambuf_iterator@DU?$char_traits@D@std@@@$D 0040dd40 f i cInterface.obj
 0001:0000cdc0       ?id@?$numpunct@D@std@@$D   0040ddc0 f i cInterface.obj
 0001:0000ce40       ?id@?$numpunct@D@std@@$E   0040de40 f i cInterface.obj
 0001:0000ce60       ?id@?$num_put@DV?$ostreambuf_iterator@DU?$char_traits@D@std@@@$E 0040de60 f i cInterface.obj
 0001:0000cf00       ?toUpper@cPARSE@@AAEXViterator@?$_Tree@V?$basic_string@DU?$char_traits@D@std@@V?$allocator@D@2@@std@@U?$pair@$$CBV?$basic_string@DU?$char_traits@D@std@@V?$allocator@D@2@@std@@H@2@U_Kfn@?$map@V?$basic_string@DU?$char_traits@D@std@@V?$allocator@D@2@@std@@HU?$less@V?$basic_string@DU?$char_traits@D@std@@V?$allocator@D@2@@std@@@2@V?$allocator@H@2@@2@U?$less@V?$basic_string@DU?$char_traits@D@std@@V?$allocator@D@2@@std@@@2@V?$allocator@H@2@@std@@@Z 0040df00 f   cPARSE.obj
 0001:0000d020       ??1?$pair@$$CBV?$basic_string@DU?$char_traits@D@std@@V?$allocator@D@2@@std@@H@std@@QAE@XZ 0040e020 f i cPARSE.obj
 0001:0000d060       ??0cPARSE@@QAE@XZ          0040e060 f   cPARSE.obj
 0001:0000d380       ?insert@cPARSE@@AAEXPADH@Z 0040e380 f i cPARSE.obj
 0001:0000d440       ??1?$map@V?$basic_string@DU?$char_traits@D@std@@V?$allocator@D@2@@std@@HU?$less@V?$basic_string@DU?$char_traits@D@std@@V?$allocator@D@2@@std@@@2@V?$allocator@H@2@@std@@QAE@XZ 0040e440 f i cPARSE.obj
 0001:0000d480       ??1cPARSE@@QAE@XZ          0040e480 f   cPARSE.obj
 0001:0000d4f0       ?search@cPARSE@@QAEHAAV?$basic_string@DU?$char_traits@D@std@@V?$allocator@D@2@@std@@@Z 0040e4f0 f   cPARSE.obj
 0001:0000d5c0       ??0?$map@V?$basic_string@DU?$char_traits@D@std@@V?$allocator@D@2@@std@@HU?$less@V?$basic_string@DU?$char_traits@D@std@@V?$allocator@D@2@@std@@@2@V?$allocator@H@2@@std@@QAE@ABU?$less@V?$basic_string@DU?$char_traits@D@std@@V?$allocator@D@2@@std@@@1@ABV?$allocator@H@1@@Z 0040e5c0 f i cPARSE.obj
 0001:0000d610       ?begin@?$map@V?$basic_string@DU?$char_traits@D@std@@V?$allocator@D@2@@std@@HU?$less@V?$basic_string@DU?$char_traits@D@std@@V?$allocator@D@2@@std@@@2@V?$allocator@H@2@@std@@QAE?AViterator@?$_Tree@V?$basic_string@DU?$char_traits@D@std@@V?$allocator@D@2@@std@@U?$pair@$$CBV?$basic_string@DU?$char_traits@D@std@@V?$allocator@D@2@@std@@H@2@U_Kfn@?$map@V?$basic_string@DU?$char_traits@D@std@@V?$allocator@D@2@@std@@HU?$less@V?$basic_string@DU?$char_traits@D@std@@V?$allocator@D@2@@std@@@2@V?$allocator@H@2@@2@U?$less@V?$basic_string@DU?$char_traits@D@std@@V?$allocator@D@2@@std@@@2@V?$allocator@H@2@@2@XZ 0040e610 f i cPARSE.obj
 0001:0000d660       ?end@?$map@V?$basic_string@DU?$char_traits@D@std@@V?$allocator@D@2@@std@@HU?$less@V?$basic_string@DU?$char_traits@D@std@@V?$allocator@D@2@@std@@@2@V?$allocator@H@2@@std@@QAE?AViterator@?$_Tree@V?$basic_string@DU?$char_traits@D@std@@V?$allocator@D@2@@std@@U?$pair@$$CBV?$basic_string@DU?$char_traits@D@std@@V?$allocator@D@2@@std@@H@2@U_Kfn@?$map@V?$basic_string@DU?$char_traits@D@std@@V?$allocator@D@2@@std@@HU?$less@V?$basic_string@DU?$char_traits@D@std@@V?$allocator@D@2@@std@@@2@V?$allocator@H@2@@2@U?$less@V?$basic_string@DU?$char_traits@D@std@@V?$allocator@D@2@@std@@@2@V?$allocator@H@2@@2@XZ 0040e660 f i cPARSE.obj
 0001:0000d6b0       ?insert@?$map@V?$basic_string@DU?$char_traits@D@std@@V?$allocator@D@2@@std@@HU?$less@V?$basic_string@DU?$char_traits@D@std@@V?$allocator@D@2@@std@@@2@V?$allocator@H@2@@std@@QAE?AU?$pair@Viterator@?$_Tree@V?$basic_string@DU?$char_traits@D@std@@V?$allocator@D@2@@std@@U?$pair@$$CBV?$basic_string@DU?$char_traits@D@std@@V?$allocator@D@2@@std@@H@2@U_Kfn@?$map@V?$basic_string@DU?$char_traits@D@std@@V?$allocator@D@2@@std@@HU?$less@V?$basic_string@DU?$char_traits@D@std@@V?$allocator@D@2@@std@@@2@V?$allocator@H@2@@2@U?$less@V?$basic_string@DU?$char_traits@D@std@@V?$allocator@D@2@@std@@@2@V?$allocator@H@2@@std@@_N@2@ABU?$pair@$$CBV?$basic_string@DU?$char_traits@D@std@@V?$allocator@D@2@@std@@H@2@@Z 0040e6b0 f i cPARSE.obj
 0001:0000d720       ?clear@?$map@V?$basic_string@DU?$char_traits@D@std@@V?$allocator@D@2@@std@@HU?$less@V?$basic_string@DU?$char_traits@D@std@@V?$allocator@D@2@@std@@@2@V?$allocator@H@2@@std@@QAEXXZ 0040e720 f i cPARSE.obj
 0001:0000d760       ?find@?$map@V?$basic_string@DU?$char_traits@D@std@@V?$allocator@D@2@@std@@HU?$less@V?$basic_string@DU?$char_traits@D@std@@V?$allocator@D@2@@std@@@2@V?$allocator@H@2@@std@@QAE?AViterator@?$_Tree@V?$basic_string@DU?$char_traits@D@std@@V?$allocator@D@2@@std@@U?$pair@$$CBV?$basic_string@DU?$char_traits@D@std@@V?$allocator@D@2@@std@@H@2@U_Kfn@?$map@V?$basic_string@DU?$char_traits@D@std@@V?$allocator@D@2@@std@@HU?$less@V?$basic_string@DU?$char_traits@D@std@@V?$allocator@D@2@@std@@@2@V?$allocator@H@2@@2@U?$less@V?$basic_string@DU?$char_traits@D@std@@V?$allocator@D@2@@std@@@2@V?$allocator@H@2@@2@ABV?$basic_string@DU?$char_traits@D@std@@V?$allocator@D@2@@2@@Z 0040e760 f i cPARSE.obj
 0001:0000d7b0       ??1?$_Tree@V?$basic_string@DU?$char_traits@D@std@@V?$allocator@D@2@@std@@U?$pair@$$CBV?$basic_string@DU?$char_traits@D@std@@V?$allocator@D@2@@std@@H@2@U_Kfn@?$map@V?$basic_string@DU?$char_traits@D@std@@V?$allocator@D@2@@std@@HU?$less@V?$basic_string@DU?$char_traits@D@std@@V?$allocator@D@2@@std@@@2@V?$allocator@H@2@@2@U?$less@V?$basic_string@DU?$char_traits@D@std@@V?$allocator@D@2@@std@@@2@V?$allocator@H@2@@std@@QAE@XZ 0040e7b0 f i cPARSE.obj
 0001:0000d8a0       ??0?$pair@$$CBV?$basic_string@DU?$char_traits@D@std@@V?$allocator@D@2@@std@@H@std@@QAE@ABV?$basic_string@DU?$char_traits@D@std@@V?$allocator@D@2@@1@ABH@Z 0040e8a0 f i cPARSE.obj
 0001:0000d8f0       ??Citerator@?$_Tree@V?$basic_string@DU?$char_traits@D@std@@V?$allocator@D@2@@std@@U?$pair@$$CBV?$basic_string@DU?$char_traits@D@std@@V?$allocator@D@2@@std@@H@2@U_Kfn@?$map@V?$basic_string@DU?$char_traits@D@std@@V?$allocator@D@2@@std@@HU?$less@V?$basic_string@DU?$char_traits@D@std@@V?$allocator@D@2@@std@@@2@V?$allocator@H@2@@2@U?$less@V?$basic_string@DU?$char_traits@D@std@@V?$allocator@D@2@@std@@@2@V?$allocator@H@2@@std@@QBEPAU?$pair@$$CBV?$basic_string@DU?$char_traits@D@std@@V?$allocator@D@2@@std@@H@2@XZ 0040e8f0 f i cPARSE.obj
 0001:0000d930       ??Eiterator@?$_Tree@V?$basic_string@DU?$char_traits@D@std@@V?$allocator@D@2@@std@@U?$pair@$$CBV?$basic_string@DU?$char_traits@D@std@@V?$allocator@D@2@@std@@H@2@U_Kfn@?$map@V?$basic_string@DU?$char_traits@D@std@@V?$allocator@D@2@@std@@HU?$less@V?$basic_string@DU?$char_traits@D@std@@V?$allocator@D@2@@std@@@2@V?$allocator@H@2@@2@U?$less@V?$basic_string@DU?$char_traits@D@std@@V?$allocator@D@2@@std@@@2@V?$allocator@H@2@@std@@QAE?AV012@H@Z 0040e930 f i cPARSE.obj
 0001:0000d980       ??9iterator@?$_Tree@V?$basic_string@DU?$char_traits@D@std@@V?$allocator@D@2@@std@@U?$pair@$$CBV?$basic_string@DU?$char_traits@D@std@@V?$allocator@D@2@@std@@H@2@U_Kfn@?$map@V?$basic_string@DU?$char_traits@D@std@@V?$allocator@D@2@@std@@HU?$less@V?$basic_string@DU?$char_traits@D@std@@V?$allocator@D@2@@std@@@2@V?$allocator@H@2@@2@U?$less@V?$basic_string@DU?$char_traits@D@std@@V?$allocator@D@2@@std@@@2@V?$allocator@H@2@@std@@QBE_NABV012@@Z 0040e980 f i cPARSE.obj
 0001:0000d9d0       ??0?$_Tree@V?$basic_string@DU?$char_traits@D@std@@V?$allocator@D@2@@std@@U?$pair@$$CBV?$basic_string@DU?$char_traits@D@std@@V?$allocator@D@2@@std@@H@2@U_Kfn@?$map@V?$basic_string@DU?$char_traits@D@std@@V?$allocator@D@2@@std@@HU?$less@V?$basic_string@DU?$char_traits@D@std@@V?$allocator@D@2@@std@@@2@V?$allocator@H@2@@2@U?$less@V?$basic_string@DU?$char_traits@D@std@@V?$allocator@D@2@@std@@@2@V?$allocator@H@2@@std@@QAE@ABU?$less@V?$basic_string@DU?$char_traits@D@std@@V?$allocator@D@2@@std@@@1@_NABV?$allocator@H@1@@Z 0040e9d0 f i cPARSE.obj
 0001:0000da30       ?begin@?$_Tree@V?$basic_string@DU?$char_traits@D@std@@V?$allocator@D@2@@std@@U?$pair@$$CBV?$basic_string@DU?$char_traits@D@std@@V?$allocator@D@2@@std@@H@2@U_Kfn@?$map@V?$basic_string@DU?$char_traits@D@std@@V?$allocator@D@2@@std@@HU?$less@V?$basic_string@DU?$char_traits@D@std@@V?$allocator@D@2@@std@@@2@V?$allocator@H@2@@2@U?$less@V?$basic_string@DU?$char_traits@D@std@@V?$allocator@D@2@@std@@@2@V?$allocator@H@2@@std@@QAE?AViterator@12@XZ 0040ea30 f i cPARSE.obj
 0001:0000da80       ?end@?$_Tree@V?$basic_string@DU?$char_traits@D@std@@V?$allocator@D@2@@std@@U?$pair@$$CBV?$basic_string@DU?$char_traits@D@std@@V?$allocator@D@2@@std@@H@2@U_Kfn@?$map@V?$basic_string@DU?$char_traits@D@std@@V?$allocator@D@2@@std@@HU?$less@V?$basic_string@DU?$char_traits@D@std@@V?$allocator@D@2@@std@@@2@V?$allocator@H@2@@2@U?$less@V?$basic_string@DU?$char_traits@D@std@@V?$allocator@D@2@@std@@@2@V?$allocator@H@2@@std@@QAE?AViterator@12@XZ 0040ea80 f i cPARSE.obj
 0001:0000dad0       ?insert@?$_Tree@V?$basic_string@DU?$char_traits@D@std@@V?$allocator@D@2@@std@@U?$pair@$$CBV?$basic_string@DU?$char_traits@D@std@@V?$allocator@D@2@@std@@H@2@U_Kfn@?$map@V?$basic_string@DU?$char_traits@D@std@@V?$allocator@D@2@@std@@HU?$less@V?$basic_string@DU?$char_traits@D@std@@V?$allocator@D@2@@std@@@2@V?$allocator@H@2@@2@U?$less@V?$basic_string@DU?$char_traits@D@std@@V?$allocator@D@2@@std@@@2@V?$allocator@H@2@@std@@QAE?AU?$pair@Viterator@?$_Tree@V?$basic_string@DU?$char_traits@D@std@@V?$allocator@D@2@@std@@U?$pair@$$CBV?$basic_string@DU?$char_traits@D@std@@V?$allocator@D@2@@std@@H@2@U_Kfn@?$map@V?$basic_string@DU?$char_traits@D@std@@V?$allocator@D@2@@std@@HU?$less@V?$basic_string@DU?$char_traits@D@std@@V?$allocator@D@2@@std@@@2@V?$allocator@H@2@@2@U?$less@V?$basic_string@DU?$char_traits@D@std@@V?$allocator@D@2@@std@@@2@V?$allocator@H@2@@std@@_N@2@ABU?$pair@$$CBV?$basic_string@DU?$char_traits@D@std@@V?$allocator@D@2@@std@@H@2@@Z 0040ead0 f i cPARSE.obj
 0001:0000dd40       ?erase@?$_Tree@V?$basic_string@DU?$char_traits@D@std@@V?$allocator@D@2@@std@@U?$pair@$$CBV?$basic_string@DU?$char_traits@D@std@@V?$allocator@D@2@@std@@H@2@U_Kfn@?$map@V?$basic_string@DU?$char_traits@D@std@@V?$allocator@D@2@@std@@HU?$less@V?$basic_string@DU?$char_traits@D@std@@V?$allocator@D@2@@std@@@2@V?$allocator@H@2@@2@U?$less@V?$basic_string@DU?$char_traits@D@std@@V?$allocator@D@2@@std@@@2@V?$allocator@H@2@@std@@QAE?AViterator@12@V312@0@Z 0040ed40 f i cPARSE.obj
 0001:0000dea0       ?clear@?$_Tree@V?$basic_string@DU?$char_traits@D@std@@V?$allocator@D@2@@std@@U?$pair@$$CBV?$basic_string@DU?$char_traits@D@std@@V?$allocator@D@2@@std@@H@2@U_Kfn@?$map@V?$basic_string@DU?$char_traits@D@std@@V?$allocator@D@2@@std@@HU?$less@V?$basic_string@DU?$char_traits@D@std@@V?$allocator@D@2@@std@@@2@V?$allocator@H@2@@2@U?$less@V?$basic_string@DU?$char_traits@D@std@@V?$allocator@D@2@@std@@@2@V?$allocator@H@2@@std@@QAEXXZ 0040eea0 f i cPARSE.obj
 0001:0000df00       ?find@?$_Tree@V?$basic_string@DU?$char_traits@D@std@@V?$allocator@D@2@@std@@U?$pair@$$CBV?$basic_string@DU?$char_traits@D@std@@V?$allocator@D@2@@std@@H@2@U_Kfn@?$map@V?$basic_string@DU?$char_traits@D@std@@V?$allocator@D@2@@std@@HU?$less@V?$basic_string@DU?$char_traits@D@std@@V?$allocator@D@2@@std@@@2@V?$allocator@H@2@@2@U?$less@V?$basic_string@DU?$char_traits@D@std@@V?$allocator@D@2@@std@@@2@V?$allocator@H@2@@std@@QAE?AViterator@12@ABV?$basic_string@DU?$char_traits@D@std@@V?$allocator@D@2@@2@@Z 0040ef00 f i cPARSE.obj
 0001:0000dfc0       ?_Freenode@?$_Tree@V?$basic_string@DU?$char_traits@D@std@@V?$allocator@D@2@@std@@U?$pair@$$CBV?$basic_string@DU?$char_traits@D@std@@V?$allocator@D@2@@std@@H@2@U_Kfn@?$map@V?$basic_string@DU?$char_traits@D@std@@V?$allocator@D@2@@std@@HU?$less@V?$basic_string@DU?$char_traits@D@std@@V?$allocator@D@2@@std@@@2@V?$allocator@H@2@@2@U?$less@V?$basic_string@DU?$char_traits@D@std@@V?$allocator@D@2@@std@@@2@V?$allocator@H@2@@std@@IAEXPAU_Node@12@@Z 0040efc0 f i cPARSE.obj
 0001:0000e000       ??Diterator@?$_Tree@V?$basic_string@DU?$char_traits@D@std@@V?$allocator@D@2@@std@@U?$pair@$$CBV?$basic_string@DU?$char_traits@D@std@@V?$allocator@D@2@@std@@H@2@U_Kfn@?$map@V?$basic_string@DU?$char_traits@D@std@@V?$allocator@D@2@@std@@HU?$less@V?$basic_string@DU?$char_traits@D@std@@V?$allocator@D@2@@std@@@2@V?$allocator@H@2@@2@U?$less@V?$basic_string@DU?$char_traits@D@std@@V?$allocator@D@2@@std@@@2@V?$allocator@H@2@@std@@QBEAAU?$pair@$$CBV?$basic_string@DU?$char_traits@D@std@@V?$allocator@D@2@@std@@H@2@XZ 0040f000 f i cPARSE.obj
 0001:0000e040       ??Eiterator@?$_Tree@V?$basic_string@DU?$char_traits@D@std@@V?$allocator@D@2@@std@@U?$pair@$$CBV?$basic_string@DU?$char_traits@D@std@@V?$allocator@D@2@@std@@H@2@U_Kfn@?$map@V?$basic_string@DU?$char_traits@D@std@@V?$allocator@D@2@@std@@HU?$less@V?$basic_string@DU?$char_traits@D@std@@V?$allocator@D@2@@std@@@2@V?$allocator@H@2@@2@U?$less@V?$basic_string@DU?$char_traits@D@std@@V?$allocator@D@2@@std@@@2@V?$allocator@H@2@@std@@QAEAAV012@XZ 0040f040 f i cPARSE.obj
 0001:0000e080       ??8iterator@?$_Tree@V?$basic_string@DU?$char_traits@D@std@@V?$allocator@D@2@@std@@U?$pair@$$CBV?$basic_string@DU?$char_traits@D@std@@V?$allocator@D@2@@std@@H@2@U_Kfn@?$map@V?$basic_string@DU?$char_traits@D@std@@V?$allocator@D@2@@std@@HU?$less@V?$basic_string@DU?$char_traits@D@std@@V?$allocator@D@2@@std@@@2@V?$allocator@H@2@@2@U?$less@V?$basic_string@DU?$char_traits@D@std@@V?$allocator@D@2@@std@@@2@V?$allocator@H@2@@std@@QBE_NABV012@@Z 0040f080 f i cPARSE.obj
 0001:0000e0c0       ??0?$pair@Viterator@?$_Tree@V?$basic_string@DU?$char_traits@D@std@@V?$allocator@D@2@@std@@U?$pair@$$CBV?$basic_string@DU?$char_traits@D@std@@V?$allocator@D@2@@std@@H@2@U_Kfn@?$map@V?$basic_string@DU?$char_traits@D@std@@V?$allocator@D@2@@std@@HU?$less@V?$basic_string@DU?$char_traits@D@std@@V?$allocator@D@2@@std@@@2@V?$allocator@H@2@@2@U?$less@V?$basic_string@DU?$char_traits@D@std@@V?$allocator@D@2@@std@@@2@V?$allocator@H@2@@std@@_N@std@@QAE@ABViterator@?$_Tree@V?$basic_string@DU?$char_traits@D@std@@V?$allocator@D@2@@std@@U?$pair@$$CBV?$basic_string@DU?$char_traits@D@std@@V?$allocator@D@2@@std@@H@2@U_Kfn@?$map@V?$basic_string@DU?$char_traits@D@std@@V?$allocator@D@2@@std@@HU?$less@V?$basic_string@DU?$char_traits@D@std@@V?$allocator@D@2@@std@@@2@V?$allocator@H@2@@2@U?$less@V?$basic_string@DU?$char_traits@D@std@@V?$allocator@D@2@@std@@@2@V?$allocator@H@2@@1@AB_N@Z 0040f0c0 f i cPARSE.obj
 0001:0000e100       ??R_Kfn@?$map@V?$basic_string@DU?$char_traits@D@std@@V?$allocator@D@2@@std@@HU?$less@V?$basic_string@DU?$char_traits@D@std@@V?$allocator@D@2@@std@@@2@V?$allocator@H@2@@std@@QBEABV?$basic_string@DU?$char_traits@D@std@@V?$allocator@D@2@@2@ABU?$pair@$$CBV?$basic_string@DU?$char_traits@D@std@@V?$allocator@D@2@@std@@H@2@@Z 0040f100 f i cPARSE.obj
 0001:0000e130       ??R?$less@V?$basic_string@DU?$char_traits@D@std@@V?$allocator@D@2@@std@@@std@@QBE_NABV?$basic_string@DU?$char_traits@D@std@@V?$allocator@D@2@@1@0@Z 0040f130 f i cPARSE.obj
 0001:0000e170       ?deallocate@?$allocator@H@std@@QAEXPAXI@Z 0040f170 f i cPARSE.obj
 0001:0000e1b0       ?_Key@?$_Tree@V?$basic_string@DU?$char_traits@D@std@@V?$allocator@D@2@@std@@U?$pair@$$CBV?$basic_string@DU?$char_traits@D@std@@V?$allocator@D@2@@std@@H@2@U_Kfn@?$map@V?$basic_string@DU?$char_traits@D@std@@V?$allocator@D@2@@std@@HU?$less@V?$basic_string@DU?$char_traits@D@std@@V?$allocator@D@2@@std@@@2@V?$allocator@H@2@@2@U?$less@V?$basic_string@DU?$char_traits@D@std@@V?$allocator@D@2@@std@@@2@V?$allocator@H@2@@std@@KAABV?$basic_string@DU?$char_traits@D@std@@V?$allocator@D@2@@2@PAU_Node@12@@Z 0040f1b0 f i cPARSE.obj
 0001:0000e1f0       ?_Left@?$_Tree@V?$basic_string@DU?$char_traits@D@std@@V?$allocator@D@2@@std@@U?$pair@$$CBV?$basic_string@DU?$char_traits@D@std@@V?$allocator@D@2@@std@@H@2@U_Kfn@?$map@V?$basic_string@DU?$char_traits@D@std@@V?$allocator@D@2@@std@@HU?$less@V?$basic_string@DU?$char_traits@D@std@@V?$allocator@D@2@@std@@@2@V?$allocator@H@2@@2@U?$less@V?$basic_string@DU?$char_traits@D@std@@V?$allocator@D@2@@std@@@2@V?$allocator@H@2@@std@@KAAAPAU_Node@12@PAU312@@Z 0040f1f0 f i cPARSE.obj
 0001:0000e220       ?_Right@?$_Tree@V?$basic_string@DU?$char_traits@D@std@@V?$allocator@D@2@@std@@U?$pair@$$CBV?$basic_string@DU?$char_traits@D@std@@V?$allocator@D@2@@std@@H@2@U_Kfn@?$map@V?$basic_string@DU?$char_traits@D@std@@V?$allocator@D@2@@std@@HU?$less@V?$basic_string@DU?$char_traits@D@std@@V?$allocator@D@2@@std@@@2@V?$allocator@H@2@@2@U?$less@V?$basic_string@DU?$char_traits@D@std@@V?$allocator@D@2@@std@@@2@V?$allocator@H@2@@std@@KAAAPAU_Node@12@PAU312@@Z 0040f220 f i cPARSE.obj
 0001:0000e250       ?_Value@?$_Tree@V?$basic_string@DU?$char_traits@D@std@@V?$allocator@D@2@@std@@U?$pair@$$CBV?$basic_string@DU?$char_traits@D@std@@V?$allocator@D@2@@std@@H@2@U_Kfn@?$map@V?$basic_string@DU?$char_traits@D@std@@V?$allocator@D@2@@std@@HU?$less@V?$basic_string@DU?$char_traits@D@std@@V?$allocator@D@2@@std@@@2@V?$allocator@H@2@@2@U?$less@V?$basic_string@DU?$char_traits@D@std@@V?$allocator@D@2@@std@@@2@V?$allocator@H@2@@std@@KAAAU?$pair@$$CBV?$basic_string@DU?$char_traits@D@std@@V?$allocator@D@2@@std@@H@2@PAU_Node@12@@Z 0040f250 f i cPARSE.obj
 0001:0000e280       ?size@?$_Tree@V?$basic_string@DU?$char_traits@D@std@@V?$allocator@D@2@@std@@U?$pair@$$CBV?$basic_string@DU?$char_traits@D@std@@V?$allocator@D@2@@std@@H@2@U_Kfn@?$map@V?$basic_string@DU?$char_traits@D@std@@V?$allocator@D@2@@std@@HU?$less@V?$basic_string@DU?$char_traits@D@std@@V?$allocator@D@2@@std@@@2@V?$allocator@H@2@@2@U?$less@V?$basic_string@DU?$char_traits@D@std@@V?$allocator@D@2@@std@@@2@V?$allocator@H@2@@std@@QBEIXZ 0040f280 f i cPARSE.obj
 0001:0000e2b0       ?erase@?$_Tree@V?$basic_string@DU?$char_traits@D@std@@V?$allocator@D@2@@std@@U?$pair@$$CBV?$basic_string@DU?$char_traits@D@std@@V?$allocator@D@2@@std@@H@2@U_Kfn@?$map@V?$basic_string@DU?$char_traits@D@std@@V?$allocator@D@2@@std@@HU?$less@V?$basic_string@DU?$char_traits@D@std@@V?$allocator@D@2@@std@@@2@V?$allocator@H@2@@2@U?$less@V?$basic_string@DU?$char_traits@D@std@@V?$allocator@D@2@@std@@@2@V?$allocator@H@2@@std@@QAE?AViterator@12@V312@@Z 0040f2b0 f i cPARSE.obj
 0001:0000eb20       ?lower_bound@?$_Tree@V?$basic_string@DU?$char_traits@D@std@@V?$allocator@D@2@@std@@U?$pair@$$CBV?$basic_string@DU?$char_traits@D@std@@V?$allocator@D@2@@std@@H@2@U_Kfn@?$map@V?$basic_string@DU?$char_traits@D@std@@V?$allocator@D@2@@std@@HU?$less@V?$basic_string@DU?$char_traits@D@std@@V?$allocator@D@2@@std@@@2@V?$allocator@H@2@@2@U?$less@V?$basic_string@DU?$char_traits@D@std@@V?$allocator@D@2@@std@@@2@V?$allocator@H@2@@std@@QAE?AViterator@12@ABV?$basic_string@DU?$char_traits@D@std@@V?$allocator@D@2@@2@@Z 0040fb20 f i cPARSE.obj
 0001:0000eb70       ?_Erase@?$_Tree@V?$basic_string@DU?$char_traits@D@std@@V?$allocator@D@2@@std@@U?$pair@$$CBV?$basic_string@DU?$char_traits@D@std@@V?$allocator@D@2@@std@@H@2@U_Kfn@?$map@V?$basic_string@DU?$char_traits@D@std@@V?$allocator@D@2@@std@@HU?$less@V?$basic_string@DU?$char_traits@D@std@@V?$allocator@D@2@@std@@@2@V?$allocator@H@2@@2@U?$less@V?$basic_string@DU?$char_traits@D@std@@V?$allocator@D@2@@std@@@2@V?$allocator@H@2@@std@@IAEXPAU_Node@12@@Z 0040fb70 f i cPARSE.obj
 0001:0000ec50       ?_Init@?$_Tree@V?$basic_string@DU?$char_traits@D@std@@V?$allocator@D@2@@std@@U?$pair@$$CBV?$basic_string@DU?$char_traits@D@std@@V?$allocator@D@2@@std@@H@2@U_Kfn@?$map@V?$basic_string@DU?$char_traits@D@std@@V?$allocator@D@2@@std@@HU?$less@V?$basic_string@DU?$char_traits@D@std@@V?$allocator@D@2@@std@@@2@V?$allocator@H@2@@2@U?$less@V?$basic_string@DU?$char_traits@D@std@@V?$allocator@D@2@@std@@@2@V?$allocator@H@2@@std@@IAEXXZ 0040fc50 f i cPARSE.obj
 0001:0000ed50       ?_Insert@?$_Tree@V?$basic_string@DU?$char_traits@D@std@@V?$allocator@D@2@@std@@U?$pair@$$CBV?$basic_string@DU?$char_traits@D@std@@V?$allocator@D@2@@std@@H@2@U_Kfn@?$map@V?$basic_string@DU?$char_traits@D@std@@V?$allocator@D@2@@std@@HU?$less@V?$basic_string@DU?$char_traits@D@std@@V?$allocator@D@2@@std@@@2@V?$allocator@H@2@@2@U?$less@V?$basic_string@DU?$char_traits@D@std@@V?$allocator@D@2@@std@@@2@V?$allocator@H@2@@std@@IAE?AViterator@12@PAU_Node@12@0ABU?$pair@$$CBV?$basic_string@DU?$char_traits@D@std@@V?$allocator@D@2@@std@@H@2@@Z 0040fd50 f i cPARSE.obj
 0001:0000f240       ?_Lmost@?$_Tree@V?$basic_string@DU?$char_traits@D@std@@V?$allocator@D@2@@std@@U?$pair@$$CBV?$basic_string@DU?$char_traits@D@std@@V?$allocator@D@2@@std@@H@2@U_Kfn@?$map@V?$basic_string@DU?$char_traits@D@std@@V?$allocator@D@2@@std@@HU?$less@V?$basic_string@DU?$char_traits@D@std@@V?$allocator@D@2@@std@@@2@V?$allocator@H@2@@2@U?$less@V?$basic_string@DU?$char_traits@D@std@@V?$allocator@D@2@@std@@@2@V?$allocator@H@2@@std@@IAEAAPAU_Node@12@XZ 00410240 f i cPARSE.obj
 0001:0000f280       ?_Rmost@?$_Tree@V?$basic_string@DU?$char_traits@D@std@@V?$allocator@D@2@@std@@U?$pair@$$CBV?$basic_string@DU?$char_traits@D@std@@V?$allocator@D@2@@std@@H@2@U_Kfn@?$map@V?$basic_string@DU?$char_traits@D@std@@V?$allocator@D@2@@std@@HU?$less@V?$basic_string@DU?$char_traits@D@std@@V?$allocator@D@2@@std@@@2@V?$allocator@H@2@@2@U?$less@V?$basic_string@DU?$char_traits@D@std@@V?$allocator@D@2@@std@@@2@V?$allocator@H@2@@std@@IAEAAPAU_Node@12@XZ 00410280 f i cPARSE.obj
 0001:0000f2c0       ?_Root@?$_Tree@V?$basic_string@DU?$char_traits@D@std@@V?$allocator@D@2@@std@@U?$pair@$$CBV?$basic_string@DU?$char_traits@D@std@@V?$allocator@D@2@@std@@H@2@U_Kfn@?$map@V?$basic_string@DU?$char_traits@D@std@@V?$allocator@D@2@@std@@HU?$less@V?$basic_string@DU?$char_traits@D@std@@V?$allocator@D@2@@std@@@2@V?$allocator@H@2@@2@U?$less@V?$basic_string@DU?$char_traits@D@std@@V?$allocator@D@2@@std@@@2@V?$allocator@H@2@@std@@IAEAAPAU_Node@12@XZ 004102c0 f i cPARSE.obj
 0001:0000f300       ?_Inc@const_iterator@?$_Tree@V?$basic_string@DU?$char_traits@D@std@@V?$allocator@D@2@@std@@U?$pair@$$CBV?$basic_string@DU?$char_traits@D@std@@V?$allocator@D@2@@std@@H@2@U_Kfn@?$map@V?$basic_string@DU?$char_traits@D@std@@V?$allocator@D@2@@std@@HU?$less@V?$basic_string@DU?$char_traits@D@std@@V?$allocator@D@2@@std@@@2@V?$allocator@H@2@@2@U?$less@V?$basic_string@DU?$char_traits@D@std@@V?$allocator@D@2@@std@@@2@V?$allocator@H@2@@std@@QAEXXZ 00410300 f i cPARSE.obj
 0001:0000f400       ?_Mynode@const_iterator@?$_Tree@V?$basic_string@DU?$char_traits@D@std@@V?$allocator@D@2@@std@@U?$pair@$$CBV?$basic_string@DU?$char_traits@D@std@@V?$allocator@D@2@@std@@H@2@U_Kfn@?$map@V?$basic_string@DU?$char_traits@D@std@@V?$allocator@D@2@@std@@HU?$less@V?$basic_string@DU?$char_traits@D@std@@V?$allocator@D@2@@std@@@2@V?$allocator@H@2@@2@U?$less@V?$basic_string@DU?$char_traits@D@std@@V?$allocator@D@2@@std@@@2@V?$allocator@H@2@@std@@QBEPAU_Node@23@XZ 00410400 f i cPARSE.obj
 0001:0000f430       ??0iterator@?$_Tree@V?$basic_string@DU?$char_traits@D@std@@V?$allocator@D@2@@std@@U?$pair@$$CBV?$basic_string@DU?$char_traits@D@std@@V?$allocator@D@2@@std@@H@2@U_Kfn@?$map@V?$basic_string@DU?$char_traits@D@std@@V?$allocator@D@2@@std@@HU?$less@V?$basic_string@DU?$char_traits@D@std@@V?$allocator@D@2@@std@@@2@V?$allocator@H@2@@2@U?$less@V?$basic_string@DU?$char_traits@D@std@@V?$allocator@D@2@@std@@@2@V?$allocator@H@2@@std@@QAE@PAU_Node@12@@Z 00410430 f i cPARSE.obj
 0001:0000f470       ??Fiterator@?$_Tree@V?$basic_string@DU?$char_traits@D@std@@V?$allocator@D@2@@std@@U?$pair@$$CBV?$basic_string@DU?$char_traits@D@std@@V?$allocator@D@2@@std@@H@2@U_Kfn@?$map@V?$basic_string@DU?$char_traits@D@std@@V?$allocator@D@2@@std@@HU?$less@V?$basic_string@DU?$char_traits@D@std@@V?$allocator@D@2@@std@@@2@V?$allocator@H@2@@2@U?$less@V?$basic_string@DU?$char_traits@D@std@@V?$allocator@D@2@@std@@@2@V?$allocator@H@2@@std@@QAEAAV012@XZ 00410470 f i cPARSE.obj
 0001:0000f4b0       ?_Color@?$_Tree@V?$basic_string@DU?$char_traits@D@std@@V?$allocator@D@2@@std@@U?$pair@$$CBV?$basic_string@DU?$char_traits@D@std@@V?$allocator@D@2@@std@@H@2@U_Kfn@?$map@V?$basic_string@DU?$char_traits@D@std@@V?$allocator@D@2@@std@@HU?$less@V?$basic_string@DU?$char_traits@D@std@@V?$allocator@D@2@@std@@@2@V?$allocator@H@2@@2@U?$less@V?$basic_string@DU?$char_traits@D@std@@V?$allocator@D@2@@std@@@2@V?$allocator@H@2@@std@@KAAAW4_Redbl@12@PAU_Node@12@@Z 004104b0 f i cPARSE.obj
 0001:0000f4e0       ?_Parent@?$_Tree@V?$basic_string@DU?$char_traits@D@std@@V?$allocator@D@2@@std@@U?$pair@$$CBV?$basic_string@DU?$char_traits@D@std@@V?$allocator@D@2@@std@@H@2@U_Kfn@?$map@V?$basic_string@DU?$char_traits@D@std@@V?$allocator@D@2@@std@@HU?$less@V?$basic_string@DU?$char_traits@D@std@@V?$allocator@D@2@@std@@@2@V?$allocator@H@2@@2@U?$less@V?$basic_string@DU?$char_traits@D@std@@V?$allocator@D@2@@std@@@2@V?$allocator@H@2@@std@@KAAAPAU_Node@12@PAU312@@Z 004104e0 f i cPARSE.obj
 0001:0000f510       ?_Lbound@?$_Tree@V?$basic_string@DU?$char_traits@D@std@@V?$allocator@D@2@@std@@U?$pair@$$CBV?$basic_string@DU?$char_traits@D@std@@V?$allocator@D@2@@std@@H@2@U_Kfn@?$map@V?$basic_string@DU?$char_traits@D@std@@V?$allocator@D@2@@std@@HU?$less@V?$basic_string@DU?$char_traits@D@std@@V?$allocator@D@2@@std@@@2@V?$allocator@H@2@@2@U?$less@V?$basic_string@DU?$char_traits@D@std@@V?$allocator@D@2@@std@@@2@V?$allocator@H@2@@std@@IBEPAU_Node@12@ABV?$basic_string@DU?$char_traits@D@std@@V?$allocator@D@2@@2@@Z 00410510 f i cPARSE.obj
 0001:0000f600       ?_Lrotate@?$_Tree@V?$basic_string@DU?$char_traits@D@std@@V?$allocator@D@2@@std@@U?$pair@$$CBV?$basic_string@DU?$char_traits@D@std@@V?$allocator@D@2@@std@@H@2@U_Kfn@?$map@V?$basic_string@DU?$char_traits@D@std@@V?$allocator@D@2@@std@@HU?$less@V?$basic_string@DU?$char_traits@D@std@@V?$allocator@D@2@@std@@@2@V?$allocator@H@2@@2@U?$less@V?$basic_string@DU?$char_traits@D@std@@V?$allocator@D@2@@std@@@2@V?$allocator@H@2@@std@@IAEXPAU_Node@12@@Z 00410600 f i cPARSE.obj
 0001:0000f790       ?_Max@?$_Tree@V?$basic_string@DU?$char_traits@D@std@@V?$allocator@D@2@@std@@U?$pair@$$CBV?$basic_string@DU?$char_traits@D@std@@V?$allocator@D@2@@std@@H@2@U_Kfn@?$map@V?$basic_string@DU?$char_traits@D@std@@V?$allocator@D@2@@std@@HU?$less@V?$basic_string@DU?$char_traits@D@std@@V?$allocator@D@2@@std@@@2@V?$allocator@H@2@@2@U?$less@V?$basic_string@DU?$char_traits@D@std@@V?$allocator@D@2@@std@@@2@V?$allocator@H@2@@std@@KAPAU_Node@12@PAU312@@Z 00410790 f i cPARSE.obj
 0001:0000f830       ?_Min@?$_Tree@V?$basic_string@DU?$char_traits@D@std@@V?$allocator@D@2@@std@@U?$pair@$$CBV?$basic_string@DU?$char_traits@D@std@@V?$allocator@D@2@@std@@H@2@U_Kfn@?$map@V?$basic_string@DU?$char_traits@D@std@@V?$allocator@D@2@@std@@HU?$less@V?$basic_string@DU?$char_traits@D@std@@V?$allocator@D@2@@std@@@2@V?$allocator@H@2@@2@U?$less@V?$basic_string@DU?$char_traits@D@std@@V?$allocator@D@2@@std@@@2@V?$allocator@H@2@@std@@KAPAU_Node@12@PAU312@@Z 00410830 f i cPARSE.obj
 0001:0000f8d0       ?_Rrotate@?$_Tree@V?$basic_string@DU?$char_traits@D@std@@V?$allocator@D@2@@std@@U?$pair@$$CBV?$basic_string@DU?$char_traits@D@std@@V?$allocator@D@2@@std@@H@2@U_Kfn@?$map@V?$basic_string@DU?$char_traits@D@std@@V?$allocator@D@2@@std@@HU?$less@V?$basic_string@DU?$char_traits@D@std@@V?$allocator@D@2@@std@@@2@V?$allocator@H@2@@2@U?$less@V?$basic_string@DU?$char_traits@D@std@@V?$allocator@D@2@@std@@@2@V?$allocator@H@2@@std@@IAEXPAU_Node@12@@Z 004108d0 f i cPARSE.obj
 0001:0000fa60       ?_Buynode@?$_Tree@V?$basic_string@DU?$char_traits@D@std@@V?$allocator@D@2@@std@@U?$pair@$$CBV?$basic_string@DU?$char_traits@D@std@@V?$allocator@D@2@@std@@H@2@U_Kfn@?$map@V?$basic_string@DU?$char_traits@D@std@@V?$allocator@D@2@@std@@HU?$less@V?$basic_string@DU?$char_traits@D@std@@V?$allocator@D@2@@std@@@2@V?$allocator@H@2@@2@U?$less@V?$basic_string@DU?$char_traits@D@std@@V?$allocator@D@2@@std@@@2@V?$allocator@H@2@@std@@IAEPAU_Node@12@PAU312@W4_Redbl@12@@Z 00410a60 f i cPARSE.obj
 0001:0000fad0       ?_Consval@?$_Tree@V?$basic_string@DU?$char_traits@D@std@@V?$allocator@D@2@@std@@U?$pair@$$CBV?$basic_string@DU?$char_traits@D@std@@V?$allocator@D@2@@std@@H@2@U_Kfn@?$map@V?$basic_string@DU?$char_traits@D@std@@V?$allocator@D@2@@std@@HU?$less@V?$basic_string@DU?$char_traits@D@std@@V?$allocator@D@2@@std@@@2@V?$allocator@H@2@@2@U?$less@V?$basic_string@DU?$char_traits@D@std@@V?$allocator@D@2@@std@@@2@V?$allocator@H@2@@std@@IAEXPAU?$pair@$$CBV?$basic_string@DU?$char_traits@D@std@@V?$allocator@D@2@@std@@H@2@ABU32@@Z 00410ad0 f i cPARSE.obj
 0001:0000fb10       ?_Destval@?$_Tree@V?$basic_string@DU?$char_traits@D@std@@V?$allocator@D@2@@std@@U?$pair@$$CBV?$basic_string@DU?$char_traits@D@std@@V?$allocator@D@2@@std@@H@2@U_Kfn@?$map@V?$basic_string@DU?$char_traits@D@std@@V?$allocator@D@2@@std@@HU?$less@V?$basic_string@DU?$char_traits@D@std@@V?$allocator@D@2@@std@@@2@V?$allocator@H@2@@2@U?$less@V?$basic_string@DU?$char_traits@D@std@@V?$allocator@D@2@@std@@@2@V?$allocator@H@2@@std@@IAEXPAU?$pair@$$CBV?$basic_string@DU?$char_traits@D@std@@V?$allocator@D@2@@std@@H@2@@Z 00410b10 f i cPARSE.obj
 0001:0000fb50       ??0const_iterator@?$_Tree@V?$basic_string@DU?$char_traits@D@std@@V?$allocator@D@2@@std@@U?$pair@$$CBV?$basic_string@DU?$char_traits@D@std@@V?$allocator@D@2@@std@@H@2@U_Kfn@?$map@V?$basic_string@DU?$char_traits@D@std@@V?$allocator@D@2@@std@@HU?$less@V?$basic_string@DU?$char_traits@D@std@@V?$allocator@D@2@@std@@@2@V?$allocator@H@2@@2@U?$less@V?$basic_string@DU?$char_traits@D@std@@V?$allocator@D@2@@std@@@2@V?$allocator@H@2@@std@@QAE@PAU_Node@12@@Z 00410b50 f i cPARSE.obj
 0001:0000fb90       ?_Dec@const_iterator@?$_Tree@V?$basic_string@DU?$char_traits@D@std@@V?$allocator@D@2@@std@@U?$pair@$$CBV?$basic_string@DU?$char_traits@D@std@@V?$allocator@D@2@@std@@H@2@U_Kfn@?$map@V?$basic_string@DU?$char_traits@D@std@@V?$allocator@D@2@@std@@HU?$less@V?$basic_string@DU?$char_traits@D@std@@V?$allocator@D@2@@std@@@2@V?$allocator@H@2@@2@U?$less@V?$basic_string@DU?$char_traits@D@std@@V?$allocator@D@2@@std@@@2@V?$allocator@H@2@@std@@QAEXXZ 00410b90 f i cPARSE.obj
 0001:0000fcc0       ?_Charalloc@?$allocator@H@std@@QAEPADI@Z 00410cc0 f i cPARSE.obj
 0001:0000fd00       ?_Root@?$_Tree@V?$basic_string@DU?$char_traits@D@std@@V?$allocator@D@2@@std@@U?$pair@$$CBV?$basic_string@DU?$char_traits@D@std@@V?$allocator@D@2@@std@@H@2@U_Kfn@?$map@V?$basic_string@DU?$char_traits@D@std@@V?$allocator@D@2@@std@@HU?$less@V?$basic_string@DU?$char_traits@D@std@@V?$allocator@D@2@@std@@@2@V?$allocator@H@2@@2@U?$less@V?$basic_string@DU?$char_traits@D@std@@V?$allocator@D@2@@std@@@2@V?$allocator@H@2@@std@@IBEAAPAU_Node@12@XZ 00410d00 f i cPARSE.obj
 0001:0000fd40       ??Mstd@@YA_NABV?$basic_string@DU?$char_traits@D@std@@V?$allocator@D@2@@0@0@Z 00410d40 f i cPARSE.obj
 0001:0000fd80       ?swap@std@@YAXAAW4_Redbl@?$_Tree@V?$basic_string@DU?$char_traits@D@std@@V?$allocator@D@2@@std@@U?$pair@$$CBV?$basic_string@DU?$char_traits@D@std@@V?$allocator@D@2@@std@@H@2@U_Kfn@?$map@V?$basic_string@DU?$char_traits@D@std@@V?$allocator@D@2@@std@@HU?$less@V?$basic_string@DU?$char_traits@D@std@@V?$allocator@D@2@@std@@@2@V?$allocator@H@2@@2@U?$less@V?$basic_string@DU?$char_traits@D@std@@V?$allocator@D@2@@std@@@2@V?$allocator@H@2@@1@0@Z 00410d80 f i cPARSE.obj
 0001:0000fdc0       ?_Construct@std@@YAXPAU?$pair@$$CBV?$basic_string@DU?$char_traits@D@std@@V?$allocator@D@2@@std@@H@1@ABU21@@Z 00410dc0 f i cPARSE.obj
 0001:0000fe50       ?_Destroy@std@@YAXPAU?$pair@$$CBV?$basic_string@DU?$char_traits@D@std@@V?$allocator@D@2@@std@@H@1@@Z 00410e50 f i cPARSE.obj
 0001:0000fe90       ??0?$pair@$$CBV?$basic_string@DU?$char_traits@D@std@@V?$allocator@D@2@@std@@H@std@@QAE@ABU01@@Z 00410e90 f i cPARSE.obj
 0001:0000fee0       ??_G?$pair@$$CBV?$basic_string@DU?$char_traits@D@std@@V?$allocator@D@2@@std@@H@std@@QAEPAXI@Z 00410ee0 f i cPARSE.obj
 0001:0000ff40       ?compare@?$basic_string@DU?$char_traits@D@std@@V?$allocator@D@2@@std@@QBEHABV12@@Z 00410f40 f i cPARSE.obj
 0001:0000ffa0       ?compare@?$basic_string@DU?$char_traits@D@std@@V?$allocator@D@2@@std@@QBEHIIPBDI@Z 00410fa0 f i cPARSE.obj
 0001:00010070       ?compare@?$char_traits@D@std@@SAHPBD0I@Z 00411070 f i cPARSE.obj
 0001:000100b0       ?_Psum@?$basic_string@DU?$char_traits@D@std@@V?$allocator@D@2@@std@@CAPADPADI@Z 004110b0 f i cPARSE.obj
 0001:00010370       ??0cPosition@@QAE@ABVcBoard@@@Z 00411370 f   cPosition.obj
 0001:00010400       ??0cPosition@@QAE@ABV0@@Z  00411400 f   cPosition.obj
 0001:000104c0       ??1cPosition@@QAE@XZ       004114c0 f   cPosition.obj
 0001:000104f0       ??4cPosition@@QAEAAV0@ABV0@@Z 004114f0 f   cPosition.obj
 0001:00010580       ?gen_pawn_move@cPosition@@AAEXAAV?$vector@VcMove@@V?$allocator@VcMove@@@std@@@std@@AAVcBitArray@@HH@Z 00411580 f   cPosition.obj
 0001:000107d0       ?isEmpty@cBitArray@@QAEHHH@Z 004117d0 f i cPosition.obj
 0001:00010820       ??0cMove@@QAE@HHHHHHH@Z    00411820 f i cPosition.obj
 0001:00010890       ?gen_knight_move@cPosition@@AAEXAAV?$vector@VcMove@@V?$allocator@VcMove@@@std@@@std@@AAVcBitArray@@HH@Z 00411890 f   cPosition.obj
 0001:00010990       ?gen_sl_move@cPosition@@AAEXAAV?$vector@VcMove@@V?$allocator@VcMove@@@std@@@std@@AAVcBitArray@@HHHHH@Z 00411990 f   cPosition.obj
 0001:00010a90       ?gen_attack@cPosition@@AAEHHHHH@Z 00411a90 f   cPosition.obj
 0001:00010b70       ?gen_bishop_move@cPosition@@AAEXAAV?$vector@VcMove@@V?$allocator@VcMove@@@std@@@std@@AAVcBitArray@@HH@Z 00411b70 f   cPosition.obj
 0001:00010bf0       ?gen_rook_move@cPosition@@AAEXAAV?$vector@VcMove@@V?$allocator@VcMove@@@std@@@std@@AAVcBitArray@@HH@Z 00411bf0 f   cPosition.obj
 0001:00010c70       ?gen_queen_move@cPosition@@AAEXAAV?$vector@VcMove@@V?$allocator@VcMove@@@std@@@std@@AAVcBitArray@@HH@Z 00411c70 f   cPosition.obj
 0001:00010cf0       ?gen_king_move@cPosition@@AAEXAAV?$vector@VcMove@@V?$allocator@VcMove@@@std@@@std@@AAVcBitArray@@HH@Z 00411cf0 f   cPosition.obj
 0001:00010f40       ?move_gen@cPosition@@QAEHHAAV?$vector@VcMove@@V?$allocator@VcMove@@@std@@@std@@@Z 00411f40 f   cPosition.obj
 0001:00011180       ?is_attacked@cPosition@@AAEHHH@Z 00412180 f   cPosition.obj
 0001:00011490       ?eval@cPosition@@QAEHXZ    00412490 f   cPosition.obj
 0001:00011520       ?evalMaterial@cPosition@@AAEHXZ 00412520 f   cPosition.obj
 0001:00011720       ?evalKingSaftey@cPosition@@AAEHXZ 00412720 f   cPosition.obj
 0001:00011840       ??0cBitArray@@QAE@ABV0@@Z  00412840 f i cPosition.obj
 0001:00011880       ?size@?$vector@VcMove@@V?$allocator@VcMove@@@std@@@std@@QBEIXZ 00412880 f i cPosition.obj
 0001:000118d0       ?push_back@?$vector@VcMove@@V?$allocator@VcMove@@@std@@@std@@QAEXABVcMove@@@Z 004128d0 f i cPosition.obj
 0001:00011920       ?insert@?$vector@VcMove@@V?$allocator@VcMove@@@std@@@std@@QAEPAVcMove@@PAV3@ABV3@@Z 00412920 f i cPosition.obj
 0001:00011990       ?insert@?$vector@VcMove@@V?$allocator@VcMove@@@std@@@std@@QAEXPAVcMove@@IABV3@@Z 00412990 f i cPosition.obj
 0001:00011be0       ?_Ucopy@?$vector@VcMove@@V?$allocator@VcMove@@@std@@@std@@IAEPAVcMove@@PBV3@0PAV3@@Z 00412be0 f i cPosition.obj
 0001:00011c50       ?_Ufill@?$vector@VcMove@@V?$allocator@VcMove@@@std@@@std@@IAEXPAVcMove@@IABV3@@Z 00412c50 f i cPosition.obj
 0001:00011cb0       ?allocate@?$allocator@VcMove@@@std@@QAEPAVcMove@@IPBX@Z 00412cb0 f i cPosition.obj
 0001:00011cf0       ?construct@?$allocator@VcMove@@@std@@QAEXPAVcMove@@ABV3@@Z 00412cf0 f i cPosition.obj
 0001:00011d30       ?sign@@YAHABH@Z            00412d30 f i cPosition.obj
 0001:00011d80       ?fill@std@@YAXPAVcMove@@0ABV2@@Z 00412d80 f i cPosition.obj
 0001:00011dd0       ?copy_backward@std@@YAPAVcMove@@PAV2@00@Z 00412dd0 f i cPosition.obj
 0001:00011e30       ?_Allocate@std@@YAPAVcMove@@HPAV2@@Z 00412e30 f i cPosition.obj
 0001:00011e80       ?_Construct@std@@YAXPAVcMove@@ABV2@@Z 00412e80 f i cPosition.obj
 0001:00011f90       ??0cSquares@@QAE@XZ        00412f90 f   cSquares.obj
 0001:00012420       ?insert@cSquares@@AAEXPADW4SQUARE_NAMES@@@Z 00413420 f i cSquares.obj
 0001:000124e0       ??1?$pair@$$CBV?$basic_string@DU?$char_traits@D@std@@V?$allocator@D@2@@std@@W4SQUARE_NAMES@@@std@@QAE@XZ 004134e0 f i cSquares.obj
 0001:00012520       ??1?$map@V?$basic_string@DU?$char_traits@D@std@@V?$allocator@D@2@@std@@W4SQUARE_NAMES@@U?$less@V?$basic_string@DU?$char_traits@D@std@@V?$allocator@D@2@@std@@@2@V?$allocator@W4SQUARE_NAMES@@@2@@std@@QAE@XZ 00413520 f i cSquares.obj
 0001:00012560       ??1cSquares@@QAE@XZ        00413560 f   cSquares.obj
 0001:000125d0       ?search@cSquares@@QAE?AW4SQUARE_NAMES@@AAV?$basic_string@DU?$char_traits@D@std@@V?$allocator@D@2@@std@@@Z 004135d0 f   cSquares.obj
 0001:000126a0       ?toLower@cSquares@@AAEXViterator@?$_Tree@V?$basic_string@DU?$char_traits@D@std@@V?$allocator@D@2@@std@@U?$pair@$$CBV?$basic_string@DU?$char_traits@D@std@@V?$allocator@D@2@@std@@W4SQUARE_NAMES@@@2@U_Kfn@?$map@V?$basic_string@DU?$char_traits@D@std@@V?$allocator@D@2@@std@@W4SQUARE_NAMES@@U?$less@V?$basic_string@DU?$char_traits@D@std@@V?$allocator@D@2@@std@@@2@V?$allocator@W4SQUARE_NAMES@@@2@@2@U?$less@V?$basic_string@DU?$char_traits@D@std@@V?$allocator@D@2@@std@@@2@V?$allocator@W4SQUARE_NAMES@@@2@@std@@@Z 004136a0 f   cSquares.obj
 0001:000127a0       ??0?$map@V?$basic_string@DU?$char_traits@D@std@@V?$allocator@D@2@@std@@W4SQUARE_NAMES@@U?$less@V?$basic_string@DU?$char_traits@D@std@@V?$allocator@D@2@@std@@@2@V?$allocator@W4SQUARE_NAMES@@@2@@std@@QAE@ABU?$less@V?$basic_string@DU?$char_traits@D@std@@V?$allocator@D@2@@std@@@1@ABV?$allocator@W4SQUARE_NAMES@@@1@@Z 004137a0 f i cSquares.obj
 0001:000127f0       ?begin@?$map@V?$basic_string@DU?$char_traits@D@std@@V?$allocator@D@2@@std@@W4SQUARE_NAMES@@U?$less@V?$basic_string@DU?$char_traits@D@std@@V?$allocator@D@2@@std@@@2@V?$allocator@W4SQUARE_NAMES@@@2@@std@@QAE?AViterator@?$_Tree@V?$basic_string@DU?$char_traits@D@std@@V?$allocator@D@2@@std@@U?$pair@$$CBV?$basic_string@DU?$char_traits@D@std@@V?$allocator@D@2@@std@@W4SQUARE_NAMES@@@2@U_Kfn@?$map@V?$basic_string@DU?$char_traits@D@std@@V?$allocator@D@2@@std@@W4SQUARE_NAMES@@U?$less@V?$basic_string@DU?$char_traits@D@std@@V?$allocator@D@2@@std@@@2@V?$allocator@W4SQUARE_NAMES@@@2@@2@U?$less@V?$basic_string@DU?$char_traits@D@std@@V?$allocator@D@2@@std@@@2@V?$allocator@W4SQUARE_NAMES@@@2@@2@XZ 004137f0 f i cSquares.obj
 0001:00012840       ?end@?$map@V?$basic_string@DU?$char_traits@D@std@@V?$allocator@D@2@@std@@W4SQUARE_NAMES@@U?$less@V?$basic_string@DU?$char_traits@D@std@@V?$allocator@D@2@@std@@@2@V?$allocator@W4SQUARE_NAMES@@@2@@std@@QAE?AViterator@?$_Tree@V?$basic_string@DU?$char_traits@D@std@@V?$allocator@D@2@@std@@U?$pair@$$CBV?$basic_string@DU?$char_traits@D@std@@V?$allocator@D@2@@std@@W4SQUARE_NAMES@@@2@U_Kfn@?$map@V?$basic_string@DU?$char_traits@D@std@@V?$allocator@D@2@@std@@W4SQUARE_NAMES@@U?$less@V?$basic_string@DU?$char_traits@D@std@@V?$allocator@D@2@@std@@@2@V?$allocator@W4SQUARE_NAMES@@@2@@2@U?$less@V?$basic_string@DU?$char_traits@D@std@@V?$allocator@D@2@@std@@@2@V?$allocator@W4SQUARE_NAMES@@@2@@2@XZ 00413840 f i cSquares.obj
 0001:00012890       ?insert@?$map@V?$basic_string@DU?$char_traits@D@std@@V?$allocator@D@2@@std@@W4SQUARE_NAMES@@U?$less@V?$basic_string@DU?$char_traits@D@std@@V?$allocator@D@2@@std@@@2@V?$allocator@W4SQUARE_NAMES@@@2@@std@@QAE?AU?$pair@Viterator@?$_Tree@V?$basic_string@DU?$char_traits@D@std@@V?$allocator@D@2@@std@@U?$pair@$$CBV?$basic_string@DU?$char_traits@D@std@@V?$allocator@D@2@@std@@W4SQUARE_NAMES@@@2@U_Kfn@?$map@V?$basic_string@DU?$char_traits@D@std@@V?$allocator@D@2@@std@@W4SQUARE_NAMES@@U?$less@V?$basic_string@DU?$char_traits@D@std@@V?$allocator@D@2@@std@@@2@V?$allocator@W4SQUARE_NAMES@@@2@@2@U?$less@V?$basic_string@DU?$char_traits@D@std@@V?$allocator@D@2@@std@@@2@V?$allocator@W4SQUARE_NAMES@@@2@@std@@_N@2@ABU?$pair@$$CBV?$basic_string@DU?$char_traits@D@std@@V?$allocator@D@2@@std@@W4SQUARE_NAMES@@@2@@Z 00413890 f i cSquares.obj
 0001:00012900       ?clear@?$map@V?$basic_string@DU?$char_traits@D@std@@V?$allocator@D@2@@std@@W4SQUARE_NAMES@@U?$less@V?$basic_string@DU?$char_traits@D@std@@V?$allocator@D@2@@std@@@2@V?$allocator@W4SQUARE_NAMES@@@2@@std@@QAEXXZ 00413900 f i cSquares.obj
 0001:00012940       ?find@?$map@V?$basic_string@DU?$char_traits@D@std@@V?$allocator@D@2@@std@@W4SQUARE_NAMES@@U?$less@V?$basic_string@DU?$char_traits@D@std@@V?$allocator@D@2@@std@@@2@V?$allocator@W4SQUARE_NAMES@@@2@@std@@QAE?AViterator@?$_Tree@V?$basic_string@DU?$char_traits@D@std@@V?$allocator@D@2@@std@@U?$pair@$$CBV?$basic_string@DU?$char_traits@D@std@@V?$allocator@D@2@@std@@W4SQUARE_NAMES@@@2@U_Kfn@?$map@V?$basic_string@DU?$char_traits@D@std@@V?$allocator@D@2@@std@@W4SQUARE_NAMES@@U?$less@V?$basic_string@DU?$char_traits@D@std@@V?$allocator@D@2@@std@@@2@V?$allocator@W4SQUARE_NAMES@@@2@@2@U?$less@V?$basic_string@DU?$char_traits@D@std@@V?$allocator@D@2@@std@@@2@V?$allocator@W4SQUARE_NAMES@@@2@@2@ABV?$basic_string@DU?$char_traits@D@std@@V?$allocator@D@2@@2@@Z 00413940 f i cSquares.obj
 0001:00012990       ??1?$_Tree@V?$basic_string@DU?$char_traits@D@std@@V?$allocator@D@2@@std@@U?$pair@$$CBV?$basic_string@DU?$char_traits@D@std@@V?$allocator@D@2@@std@@W4SQUARE_NAMES@@@2@U_Kfn@?$map@V?$basic_string@DU?$char_traits@D@std@@V?$allocator@D@2@@std@@W4SQUARE_NAMES@@U?$less@V?$basic_string@DU?$char_traits@D@std@@V?$allocator@D@2@@std@@@2@V?$allocator@W4SQUARE_NAMES@@@2@@2@U?$less@V?$basic_string@DU?$char_traits@D@std@@V?$allocator@D@2@@std@@@2@V?$allocator@W4SQUARE_NAMES@@@2@@std@@QAE@XZ 00413990 f i cSquares.obj
 0001:00012a80       ??0?$pair@$$CBV?$basic_string@DU?$char_traits@D@std@@V?$allocator@D@2@@std@@W4SQUARE_NAMES@@@std@@QAE@ABV?$basic_string@DU?$char_traits@D@std@@V?$allocator@D@2@@1@ABW4SQUARE_NAMES@@@Z 00413a80 f i cSquares.obj
 0001:00012ad0       ??Citerator@?$_Tree@V?$basic_string@DU?$char_traits@D@std@@V?$allocator@D@2@@std@@U?$pair@$$CBV?$basic_string@DU?$char_traits@D@std@@V?$allocator@D@2@@std@@W4SQUARE_NAMES@@@2@U_Kfn@?$map@V?$basic_string@DU?$char_traits@D@std@@V?$allocator@D@2@@std@@W4SQUARE_NAMES@@U?$less@V?$basic_string@DU?$char_traits@D@std@@V?$allocator@D@2@@std@@@2@V?$allocator@W4SQUARE_NAMES@@@2@@2@U?$less@V?$basic_string@DU?$char_traits@D@std@@V?$allocator@D@2@@std@@@2@V?$allocator@W4SQUARE_NAMES@@@2@@std@@QBEPAU?$pair@$$CBV?$basic_string@DU?$char_traits@D@std@@V?$allocator@D@2@@std@@W4SQUARE_NAMES@@@2@XZ 00413ad0 f i cSquares.obj
 0001:00012b10       ??Eiterator@?$_Tree@V?$basic_string@DU?$char_traits@D@std@@V?$allocator@D@2@@std@@U?$pair@$$CBV?$basic_string@DU?$char_traits@D@std@@V?$allocator@D@2@@std@@W4SQUARE_NAMES@@@2@U_Kfn@?$map@V?$basic_string@DU?$char_traits@D@std@@V?$allocator@D@2@@std@@W4SQUARE_NAMES@@U?$less@V?$basic_string@DU?$char_traits@D@std@@V?$allocator@D@2@@std@@@2@V?$allocator@W4SQUARE_NAMES@@@2@@2@U?$less@V?$basic_string@DU?$char_traits@D@std@@V?$allocator@D@2@@std@@@2@V?$allocator@W4SQUARE_NAMES@@@2@@std@@QAE?AV012@H@Z 00413b10 f i cSquares.obj
 0001:00012b60       ??9iterator@?$_Tree@V?$basic_string@DU?$char_traits@D@std@@V?$allocator@D@2@@std@@U?$pair@$$CBV?$basic_string@DU?$char_traits@D@std@@V?$allocator@D@2@@std@@W4SQUARE_NAMES@@@2@U_Kfn@?$map@V?$basic_string@DU?$char_traits@D@std@@V?$allocator@D@2@@std@@W4SQUARE_NAMES@@U?$less@V?$basic_string@DU?$char_traits@D@std@@V?$allocator@D@2@@std@@@2@V?$allocator@W4SQUARE_NAMES@@@2@@2@U?$less@V?$basic_string@DU?$char_traits@D@std@@V?$allocator@D@2@@std@@@2@V?$allocator@W4SQUARE_NAMES@@@2@@std@@QBE_NABV012@@Z 00413b60 f i cSquares.obj
 0001:00012bb0       ??0?$_Tree@V?$basic_string@DU?$char_traits@D@std@@V?$allocator@D@2@@std@@U?$pair@$$CBV?$basic_string@DU?$char_traits@D@std@@V?$allocator@D@2@@std@@W4SQUARE_NAMES@@@2@U_Kfn@?$map@V?$basic_string@DU?$char_traits@D@std@@V?$allocator@D@2@@std@@W4SQUARE_NAMES@@U?$less@V?$basic_string@DU?$char_traits@D@std@@V?$allocator@D@2@@std@@@2@V?$allocator@W4SQUARE_NAMES@@@2@@2@U?$less@V?$basic_string@DU?$char_traits@D@std@@V?$allocator@D@2@@std@@@2@V?$allocator@W4SQUARE_NAMES@@@2@@std@@QAE@ABU?$less@V?$basic_string@DU?$char_traits@D@std@@V?$allocator@D@2@@std@@@1@_NABV?$allocator@W4SQUARE_NAMES@@@1@@Z 00413bb0 f i cSquares.obj
 0001:00012c10       ?begin@?$_Tree@V?$basic_string@DU?$char_traits@D@std@@V?$allocator@D@2@@std@@U?$pair@$$CBV?$basic_string@DU?$char_traits@D@std@@V?$allocator@D@2@@std@@W4SQUARE_NAMES@@@2@U_Kfn@?$map@V?$basic_string@DU?$char_traits@D@std@@V?$allocator@D@2@@std@@W4SQUARE_NAMES@@U?$less@V?$basic_string@DU?$char_traits@D@std@@V?$allocator@D@2@@std@@@2@V?$allocator@W4SQUARE_NAMES@@@2@@2@U?$less@V?$basic_string@DU?$char_traits@D@std@@V?$allocator@D@2@@std@@@2@V?$allocator@W4SQUARE_NAMES@@@2@@std@@QAE?AViterator@12@XZ 00413c10 f i cSquares.obj
 0001:00012c60       ?end@?$_Tree@V?$basic_string@DU?$char_traits@D@std@@V?$allocator@D@2@@std@@U?$pair@$$CBV?$basic_string@DU?$char_traits@D@std@@V?$allocator@D@2@@std@@W4SQUARE_NAMES@@@2@U_Kfn@?$map@V?$basic_string@DU?$char_traits@D@std@@V?$allocator@D@2@@std@@W4SQUARE_NAMES@@U?$less@V?$basic_string@DU?$char_traits@D@std@@V?$allocator@D@2@@std@@@2@V?$allocator@W4SQUARE_NAMES@@@2@@2@U?$less@V?$basic_string@DU?$char_traits@D@std@@V?$allocator@D@2@@std@@@2@V?$allocator@W4SQUARE_NAMES@@@2@@std@@QAE?AViterator@12@XZ 00413c60 f i cSquares.obj
 0001:00012cb0       ?insert@?$_Tree@V?$basic_string@DU?$char_traits@D@std@@V?$allocator@D@2@@std@@U?$pair@$$CBV?$basic_string@DU?$char_traits@D@std@@V?$allocator@D@2@@std@@W4SQUARE_NAMES@@@2@U_Kfn@?$map@V?$basic_string@DU?$char_traits@D@std@@V?$allocator@D@2@@std@@W4SQUARE_NAMES@@U?$less@V?$basic_string@DU?$char_traits@D@std@@V?$allocator@D@2@@std@@@2@V?$allocator@W4SQUARE_NAMES@@@2@@2@U?$less@V?$basic_string@DU?$char_traits@D@std@@V?$allocator@D@2@@std@@@2@V?$allocator@W4SQUARE_NAMES@@@2@@std@@QAE?AU?$pair@Viterator@?$_Tree@V?$basic_string@DU?$char_traits@D@std@@V?$allocator@D@2@@std@@U?$pair@$$CBV?$basic_string@DU?$char_traits@D@std@@V?$allocator@D@2@@std@@W4SQUARE_NAMES@@@2@U_Kfn@?$map@V?$basic_string@DU?$char_traits@D@std@@V?$allocator@D@2@@std@@W4SQUARE_NAMES@@U?$less@V?$basic_string@DU?$char_traits@D@std@@V?$allocator@D@2@@std@@@2@V?$allocator@W4SQUARE_NAMES@@@2@@2@U?$less@V?$basic_string@DU?$char_traits@D@std@@V?$allocator@D@2@@std@@@2@V?$allocator@W4SQUARE_NAMES@@@2@@std@@_N@2@ABU?$pair@$$CBV?$basic_string@DU?$char_traits@D@std@@V?$allocator@D@2@@std@@W4SQUARE_NAMES@@@2@@Z 00413cb0 f i cSquares.obj
 0001:00012f20       ?erase@?$_Tree@V?$basic_string@DU?$char_traits@D@std@@V?$allocator@D@2@@std@@U?$pair@$$CBV?$basic_string@DU?$char_traits@D@std@@V?$allocator@D@2@@std@@W4SQUARE_NAMES@@@2@U_Kfn@?$map@V?$basic_string@DU?$char_traits@D@std@@V?$allocator@D@2@@std@@W4SQUARE_NAMES@@U?$less@V?$basic_string@DU?$char_traits@D@std@@V?$allocator@D@2@@std@@@2@V?$allocator@W4SQUARE_NAMES@@@2@@2@U?$less@V?$basic_string@DU?$char_traits@D@std@@V?$allocator@D@2@@std@@@2@V?$allocator@W4SQUARE_NAMES@@@2@@std@@QAE?AViterator@12@V312@0@Z 00413f20 f i cSquares.obj
 0001:00013080       ?clear@?$_Tree@V?$basic_string@DU?$char_traits@D@std@@V?$allocator@D@2@@std@@U?$pair@$$CBV?$basic_string@DU?$char_traits@D@std@@V?$allocator@D@2@@std@@W4SQUARE_NAMES@@@2@U_Kfn@?$map@V?$basic_string@DU?$char_traits@D@std@@V?$allocator@D@2@@std@@W4SQUARE_NAMES@@U?$less@V?$basic_string@DU?$char_traits@D@std@@V?$allocator@D@2@@std@@@2@V?$allocator@W4SQUARE_NAMES@@@2@@2@U?$less@V?$basic_string@DU?$char_traits@D@std@@V?$allocator@D@2@@std@@@2@V?$allocator@W4SQUARE_NAMES@@@2@@std@@QAEXXZ 00414080 f i cSquares.obj
 0001:000130e0       ?find@?$_Tree@V?$basic_string@DU?$char_traits@D@std@@V?$allocator@D@2@@std@@U?$pair@$$CBV?$basic_string@DU?$char_traits@D@std@@V?$allocator@D@2@@std@@W4SQUARE_NAMES@@@2@U_Kfn@?$map@V?$basic_string@DU?$char_traits@D@std@@V?$allocator@D@2@@std@@W4SQUARE_NAMES@@U?$less@V?$basic_string@DU?$char_traits@D@std@@V?$allocator@D@2@@std@@@2@V?$allocator@W4SQUARE_NAMES@@@2@@2@U?$less@V?$basic_string@DU?$char_traits@D@std@@V?$allocator@D@2@@std@@@2@V?$allocator@W4SQUARE_NAMES@@@2@@std@@QAE?AViterator@12@ABV?$basic_string@DU?$char_traits@D@std@@V?$allocator@D@2@@2@@Z 004140e0 f i cSquares.obj
 0001:000131a0       ?_Freenode@?$_Tree@V?$basic_string@DU?$char_traits@D@std@@V?$allocator@D@2@@std@@U?$pair@$$CBV?$basic_string@DU?$char_traits@D@std@@V?$allocator@D@2@@std@@W4SQUARE_NAMES@@@2@U_Kfn@?$map@V?$basic_string@DU?$char_traits@D@std@@V?$allocator@D@2@@std@@W4SQUARE_NAMES@@U?$less@V?$basic_string@DU?$char_traits@D@std@@V?$allocator@D@2@@std@@@2@V?$allocator@W4SQUARE_NAMES@@@2@@2@U?$less@V?$basic_string@DU?$char_traits@D@std@@V?$allocator@D@2@@std@@@2@V?$allocator@W4SQUARE_NAMES@@@2@@std@@IAEXPAU_Node@12@@Z 004141a0 f i cSquares.obj
 0001:000131e0       ??Diterator@?$_Tree@V?$basic_string@DU?$char_traits@D@std@@V?$allocator@D@2@@std@@U?$pair@$$CBV?$basic_string@DU?$char_traits@D@std@@V?$allocator@D@2@@std@@W4SQUARE_NAMES@@@2@U_Kfn@?$map@V?$basic_string@DU?$char_traits@D@std@@V?$allocator@D@2@@std@@W4SQUARE_NAMES@@U?$less@V?$basic_string@DU?$char_traits@D@std@@V?$allocator@D@2@@std@@@2@V?$allocator@W4SQUARE_NAMES@@@2@@2@U?$less@V?$basic_string@DU?$char_traits@D@std@@V?$allocator@D@2@@std@@@2@V?$allocator@W4SQUARE_NAMES@@@2@@std@@QBEAAU?$pair@$$CBV?$basic_string@DU?$char_traits@D@std@@V?$allocator@D@2@@std@@W4SQUARE_NAMES@@@2@XZ 004141e0 f i cSquares.obj
 0001:00013220       ??Eiterator@?$_Tree@V?$basic_string@DU?$char_traits@D@std@@V?$allocator@D@2@@std@@U?$pair@$$CBV?$basic_string@DU?$char_traits@D@std@@V?$allocator@D@2@@std@@W4SQUARE_NAMES@@@2@U_Kfn@?$map@V?$basic_string@DU?$char_traits@D@std@@V?$allocator@D@2@@std@@W4SQUARE_NAMES@@U?$less@V?$basic_string@DU?$char_traits@D@std@@V?$allocator@D@2@@std@@@2@V?$allocator@W4SQUARE_NAMES@@@2@@2@U?$less@V?$basic_string@DU?$char_traits@D@std@@V?$allocator@D@2@@std@@@2@V?$allocator@W4SQUARE_NAMES@@@2@@std@@QAEAAV012@XZ 00414220 f i cSquares.obj
 0001:00013260       ??8iterator@?$_Tree@V?$basic_string@DU?$char_traits@D@std@@V?$allocator@D@2@@std@@U?$pair@$$CBV?$basic_string@DU?$char_traits@D@std@@V?$allocator@D@2@@std@@W4SQUARE_NAMES@@@2@U_Kfn@?$map@V?$basic_string@DU?$char_traits@D@std@@V?$allocator@D@2@@std@@W4SQUARE_NAMES@@U?$less@V?$basic_string@DU?$char_traits@D@std@@V?$allocator@D@2@@std@@@2@V?$allocator@W4SQUARE_NAMES@@@2@@2@U?$less@V?$basic_string@DU?$char_traits@D@std@@V?$allocator@D@2@@std@@@2@V?$allocator@W4SQUARE_NAMES@@@2@@std@@QBE_NABV012@@Z 00414260 f i cSquares.obj
 0001:000132a0       ??0?$pair@Viterator@?$_Tree@V?$basic_string@DU?$char_traits@D@std@@V?$allocator@D@2@@std@@U?$pair@$$CBV?$basic_string@DU?$char_traits@D@std@@V?$allocator@D@2@@std@@W4SQUARE_NAMES@@@2@U_Kfn@?$map@V?$basic_string@DU?$char_traits@D@std@@V?$allocator@D@2@@std@@W4SQUARE_NAMES@@U?$less@V?$basic_string@DU?$char_traits@D@std@@V?$allocator@D@2@@std@@@2@V?$allocator@W4SQUARE_NAMES@@@2@@2@U?$less@V?$basic_string@DU?$char_traits@D@std@@V?$allocator@D@2@@std@@@2@V?$allocator@W4SQUARE_NAMES@@@2@@std@@_N@std@@QAE@ABViterator@?$_Tree@V?$basic_string@DU?$char_traits@D@std@@V?$allocator@D@2@@std@@U?$pair@$$CBV?$basic_string@DU?$char_traits@D@std@@V?$allocator@D@2@@std@@W4SQUARE_NAMES@@@2@U_Kfn@?$map@V?$basic_string@DU?$char_traits@D@std@@V?$allocator@D@2@@std@@W4SQUARE_NAMES@@U?$less@V?$basic_string@DU?$char_traits@D@std@@V?$allocator@D@2@@std@@@2@V?$allocator@W4SQUARE_NAMES@@@2@@2@U?$less@V?$basic_string@DU?$char_traits@D@std@@V?$allocator@D@2@@std@@@2@V?$allocator@W4SQUARE_NAMES@@@2@@1@AB_N@Z 004142a0 f i cSquares.obj
 0001:000132e0       ??R_Kfn@?$map@V?$basic_string@DU?$char_traits@D@std@@V?$allocator@D@2@@std@@W4SQUARE_NAMES@@U?$less@V?$basic_string@DU?$char_traits@D@std@@V?$allocator@D@2@@std@@@2@V?$allocator@W4SQUARE_NAMES@@@2@@std@@QBEABV?$basic_string@DU?$char_traits@D@std@@V?$allocator@D@2@@2@ABU?$pair@$$CBV?$basic_string@DU?$char_traits@D@std@@V?$allocator@D@2@@std@@W4SQUARE_NAMES@@@2@@Z 004142e0 f i cSquares.obj
 0001:00013310       ?deallocate@?$allocator@W4SQUARE_NAMES@@@std@@QAEXPAXI@Z 00414310 f i cSquares.obj
 0001:00013350       ?_Key@?$_Tree@V?$basic_string@DU?$char_traits@D@std@@V?$allocator@D@2@@std@@U?$pair@$$CBV?$basic_string@DU?$char_traits@D@std@@V?$allocator@D@2@@std@@W4SQUARE_NAMES@@@2@U_Kfn@?$map@V?$basic_string@DU?$char_traits@D@std@@V?$allocator@D@2@@std@@W4SQUARE_NAMES@@U?$less@V?$basic_string@DU?$char_traits@D@std@@V?$allocator@D@2@@std@@@2@V?$allocator@W4SQUARE_NAMES@@@2@@2@U?$less@V?$basic_string@DU?$char_traits@D@std@@V?$allocator@D@2@@std@@@2@V?$allocator@W4SQUARE_NAMES@@@2@@std@@KAABV?$basic_string@DU?$char_traits@D@std@@V?$allocator@D@2@@2@PAU_Node@12@@Z 00414350 f i cSquares.obj
 0001:00013390       ?_Left@?$_Tree@V?$basic_string@DU?$char_traits@D@std@@V?$allocator@D@2@@std@@U?$pair@$$CBV?$basic_string@DU?$char_traits@D@std@@V?$allocator@D@2@@std@@W4SQUARE_NAMES@@@2@U_Kfn@?$map@V?$basic_string@DU?$char_traits@D@std@@V?$allocator@D@2@@std@@W4SQUARE_NAMES@@U?$less@V?$basic_string@DU?$char_traits@D@std@@V?$allocator@D@2@@std@@@2@V?$allocator@W4SQUARE_NAMES@@@2@@2@U?$less@V?$basic_string@DU?$char_traits@D@std@@V?$allocator@D@2@@std@@@2@V?$allocator@W4SQUARE_NAMES@@@2@@std@@KAAAPAU_Node@12@PAU312@@Z 00414390 f i cSquares.obj
 0001:000133c0       ?_Right@?$_Tree@V?$basic_string@DU?$char_traits@D@std@@V?$allocator@D@2@@std@@U?$pair@$$CBV?$basic_string@DU?$char_traits@D@std@@V?$allocator@D@2@@std@@W4SQUARE_NAMES@@@2@U_Kfn@?$map@V?$basic_string@DU?$char_traits@D@std@@V?$allocator@D@2@@std@@W4SQUARE_NAMES@@U?$less@V?$basic_string@DU?$char_traits@D@std@@V?$allocator@D@2@@std@@@2@V?$allocator@W4SQUARE_NAMES@@@2@@2@U?$less@V?$basic_string@DU?$char_traits@D@std@@V?$allocator@D@2@@std@@@2@V?$allocator@W4SQUARE_NAMES@@@2@@std@@KAAAPAU_Node@12@PAU312@@Z 004143c0 f i cSquares.obj
 0001:000133f0       ?_Value@?$_Tree@V?$basic_string@DU?$char_traits@D@std@@V?$allocator@D@2@@std@@U?$pair@$$CBV?$basic_string@DU?$char_traits@D@std@@V?$allocator@D@2@@std@@W4SQUARE_NAMES@@@2@U_Kfn@?$map@V?$basic_string@DU?$char_traits@D@std@@V?$allocator@D@2@@std@@W4SQUARE_NAMES@@U?$less@V?$basic_string@DU?$char_traits@D@std@@V?$allocator@D@2@@std@@@2@V?$allocator@W4SQUARE_NAMES@@@2@@2@U?$less@V?$basic_string@DU?$char_traits@D@std@@V?$allocator@D@2@@std@@@2@V?$allocator@W4SQUARE_NAMES@@@2@@std@@KAAAU?$pair@$$CBV?$basic_string@DU?$char_traits@D@std@@V?$allocator@D@2@@std@@W4SQUARE_NAMES@@@2@PAU_Node@12@@Z 004143f0 f i cSquares.obj
 0001:00013420       ?size@?$_Tree@V?$basic_string@DU?$char_traits@D@std@@V?$allocator@D@2@@std@@U?$pair@$$CBV?$basic_string@DU?$char_traits@D@std@@V?$allocator@D@2@@std@@W4SQUARE_NAMES@@@2@U_Kfn@?$map@V?$basic_string@DU?$char_traits@D@std@@V?$allocator@D@2@@std@@W4SQUARE_NAMES@@U?$less@V?$basic_string@DU?$char_traits@D@std@@V?$allocator@D@2@@std@@@2@V?$allocator@W4SQUARE_NAMES@@@2@@2@U?$less@V?$basic_string@DU?$char_traits@D@std@@V?$allocator@D@2@@std@@@2@V?$allocator@W4SQUARE_NAMES@@@2@@std@@QBEIXZ 00414420 f i cSquares.obj
 0001:00013450       ?erase@?$_Tree@V?$basic_string@DU?$char_traits@D@std@@V?$allocator@D@2@@std@@U?$pair@$$CBV?$basic_string@DU?$char_traits@D@std@@V?$allocator@D@2@@std@@W4SQUARE_NAMES@@@2@U_Kfn@?$map@V?$basic_string@DU?$char_traits@D@std@@V?$allocator@D@2@@std@@W4SQUARE_NAMES@@U?$less@V?$basic_string@DU?$char_traits@D@std@@V?$allocator@D@2@@std@@@2@V?$allocator@W4SQUARE_NAMES@@@2@@2@U?$less@V?$basic_string@DU?$char_traits@D@std@@V?$allocator@D@2@@std@@@2@V?$allocator@W4SQUARE_NAMES@@@2@@std@@QAE?AViterator@12@V312@@Z 00414450 f i cSquares.obj
 0001:00013cc0       ?lower_bound@?$_Tree@V?$basic_string@DU?$char_traits@D@std@@V?$allocator@D@2@@std@@U?$pair@$$CBV?$basic_string@DU?$char_traits@D@std@@V?$allocator@D@2@@std@@W4SQUARE_NAMES@@@2@U_Kfn@?$map@V?$basic_string@DU?$char_traits@D@std@@V?$allocator@D@2@@std@@W4SQUARE_NAMES@@U?$less@V?$basic_string@DU?$char_traits@D@std@@V?$allocator@D@2@@std@@@2@V?$allocator@W4SQUARE_NAMES@@@2@@2@U?$less@V?$basic_string@DU?$char_traits@D@std@@V?$allocator@D@2@@std@@@2@V?$allocator@W4SQUARE_NAMES@@@2@@std@@QAE?AViterator@12@ABV?$basic_string@DU?$char_traits@D@std@@V?$allocator@D@2@@2@@Z 00414cc0 f i cSquares.obj
 0001:00013d10       ?_Erase@?$_Tree@V?$basic_string@DU?$char_traits@D@std@@V?$allocator@D@2@@std@@U?$pair@$$CBV?$basic_string@DU?$char_traits@D@std@@V?$allocator@D@2@@std@@W4SQUARE_NAMES@@@2@U_Kfn@?$map@V?$basic_string@DU?$char_traits@D@std@@V?$allocator@D@2@@std@@W4SQUARE_NAMES@@U?$less@V?$basic_string@DU?$char_traits@D@std@@V?$allocator@D@2@@std@@@2@V?$allocator@W4SQUARE_NAMES@@@2@@2@U?$less@V?$basic_string@DU?$char_traits@D@std@@V?$allocator@D@2@@std@@@2@V?$allocator@W4SQUARE_NAMES@@@2@@std@@IAEXPAU_Node@12@@Z 00414d10 f i cSquares.obj
 0001:00013df0       ?_Init@?$_Tree@V?$basic_string@DU?$char_traits@D@std@@V?$allocator@D@2@@std@@U?$pair@$$CBV?$basic_string@DU?$char_traits@D@std@@V?$allocator@D@2@@std@@W4SQUARE_NAMES@@@2@U_Kfn@?$map@V?$basic_string@DU?$char_traits@D@std@@V?$allocator@D@2@@std@@W4SQUARE_NAMES@@U?$less@V?$basic_string@DU?$char_traits@D@std@@V?$allocator@D@2@@std@@@2@V?$allocator@W4SQUARE_NAMES@@@2@@2@U?$less@V?$basic_string@DU?$char_traits@D@std@@V?$allocator@D@2@@std@@@2@V?$allocator@W4SQUARE_NAMES@@@2@@std@@IAEXXZ 00414df0 f i cSquares.obj
 0001:00013ef0       ?_Insert@?$_Tree@V?$basic_string@DU?$char_traits@D@std@@V?$allocator@D@2@@std@@U?$pair@$$CBV?$basic_string@DU?$char_traits@D@std@@V?$allocator@D@2@@std@@W4SQUARE_NAMES@@@2@U_Kfn@?$map@V?$basic_string@DU?$char_traits@D@std@@V?$allocator@D@2@@std@@W4SQUARE_NAMES@@U?$less@V?$basic_string@DU?$char_traits@D@std@@V?$allocator@D@2@@std@@@2@V?$allocator@W4SQUARE_NAMES@@@2@@2@U?$less@V?$basic_string@DU?$char_traits@D@std@@V?$allocator@D@2@@std@@@2@V?$allocator@W4SQUARE_NAMES@@@2@@std@@IAE?AViterator@12@PAU_Node@12@0ABU?$pair@$$CBV?$basic_string@DU?$char_traits@D@std@@V?$allocator@D@2@@std@@W4SQUARE_NAMES@@@2@@Z 00414ef0 f i cSquares.obj
 0001:000143e0       ?_Lmost@?$_Tree@V?$basic_string@DU?$char_traits@D@std@@V?$allocator@D@2@@std@@U?$pair@$$CBV?$basic_string@DU?$char_traits@D@std@@V?$allocator@D@2@@std@@W4SQUARE_NAMES@@@2@U_Kfn@?$map@V?$basic_string@DU?$char_traits@D@std@@V?$allocator@D@2@@std@@W4SQUARE_NAMES@@U?$less@V?$basic_string@DU?$char_traits@D@std@@V?$allocator@D@2@@std@@@2@V?$allocator@W4SQUARE_NAMES@@@2@@2@U?$less@V?$basic_string@DU?$char_traits@D@std@@V?$allocator@D@2@@std@@@2@V?$allocator@W4SQUARE_NAMES@@@2@@std@@IAEAAPAU_Node@12@XZ 004153e0 f i cSquares.obj
 0001:00014420       ?_Rmost@?$_Tree@V?$basic_string@DU?$char_traits@D@std@@V?$allocator@D@2@@std@@U?$pair@$$CBV?$basic_string@DU?$char_traits@D@std@@V?$allocator@D@2@@std@@W4SQUARE_NAMES@@@2@U_Kfn@?$map@V?$basic_string@DU?$char_traits@D@std@@V?$allocator@D@2@@std@@W4SQUARE_NAMES@@U?$less@V?$basic_string@DU?$char_traits@D@std@@V?$allocator@D@2@@std@@@2@V?$allocator@W4SQUARE_NAMES@@@2@@2@U?$less@V?$basic_string@DU?$char_traits@D@std@@V?$allocator@D@2@@std@@@2@V?$allocator@W4SQUARE_NAMES@@@2@@std@@IAEAAPAU_Node@12@XZ 00415420 f i cSquares.obj
 0001:00014460       ?_Root@?$_Tree@V?$basic_string@DU?$char_traits@D@std@@V?$allocator@D@2@@std@@U?$pair@$$CBV?$basic_string@DU?$char_traits@D@std@@V?$allocator@D@2@@std@@W4SQUARE_NAMES@@@2@U_Kfn@?$map@V?$basic_string@DU?$char_traits@D@std@@V?$allocator@D@2@@std@@W4SQUARE_NAMES@@U?$less@V?$basic_string@DU?$char_traits@D@std@@V?$allocator@D@2@@std@@@2@V?$allocator@W4SQUARE_NAMES@@@2@@2@U?$less@V?$basic_string@DU?$char_traits@D@std@@V?$allocator@D@2@@std@@@2@V?$allocator@W4SQUARE_NAMES@@@2@@std@@IAEAAPAU_Node@12@XZ 00415460 f i cSquares.obj
 0001:000144a0       ?_Inc@const_iterator@?$_Tree@V?$basic_string@DU?$char_traits@D@std@@V?$allocator@D@2@@std@@U?$pair@$$CBV?$basic_string@DU?$char_traits@D@std@@V?$allocator@D@2@@std@@W4SQUARE_NAMES@@@2@U_Kfn@?$map@V?$basic_string@DU?$char_traits@D@std@@V?$allocator@D@2@@std@@W4SQUARE_NAMES@@U?$less@V?$basic_string@DU?$char_traits@D@std@@V?$allocator@D@2@@std@@@2@V?$allocator@W4SQUARE_NAMES@@@2@@2@U?$less@V?$basic_string@DU?$char_traits@D@std@@V?$allocator@D@2@@std@@@2@V?$allocator@W4SQUARE_NAMES@@@2@@std@@QAEXXZ 004154a0 f i cSquares.obj
 0001:000145a0       ?_Mynode@const_iterator@?$_Tree@V?$basic_string@DU?$char_traits@D@std@@V?$allocator@D@2@@std@@U?$pair@$$CBV?$basic_string@DU?$char_traits@D@std@@V?$allocator@D@2@@std@@W4SQUARE_NAMES@@@2@U_Kfn@?$map@V?$basic_string@DU?$char_traits@D@std@@V?$allocator@D@2@@std@@W4SQUARE_NAMES@@U?$less@V?$basic_string@DU?$char_traits@D@std@@V?$allocator@D@2@@std@@@2@V?$allocator@W4SQUARE_NAMES@@@2@@2@U?$less@V?$basic_string@DU?$char_traits@D@std@@V?$allocator@D@2@@std@@@2@V?$allocator@W4SQUARE_NAMES@@@2@@std@@QBEPAU_Node@23@XZ 004155a0 f i cSquares.obj
 0001:000145d0       ??0iterator@?$_Tree@V?$basic_string@DU?$char_traits@D@std@@V?$allocator@D@2@@std@@U?$pair@$$CBV?$basic_string@DU?$char_traits@D@std@@V?$allocator@D@2@@std@@W4SQUARE_NAMES@@@2@U_Kfn@?$map@V?$basic_string@DU?$char_traits@D@std@@V?$allocator@D@2@@std@@W4SQUARE_NAMES@@U?$less@V?$basic_string@DU?$char_traits@D@std@@V?$allocator@D@2@@std@@@2@V?$allocator@W4SQUARE_NAMES@@@2@@2@U?$less@V?$basic_string@DU?$char_traits@D@std@@V?$allocator@D@2@@std@@@2@V?$allocator@W4SQUARE_NAMES@@@2@@std@@QAE@PAU_Node@12@@Z 004155d0 f i cSquares.obj
 0001:00014610       ??Fiterator@?$_Tree@V?$basic_string@DU?$char_traits@D@std@@V?$allocator@D@2@@std@@U?$pair@$$CBV?$basic_string@DU?$char_traits@D@std@@V?$allocator@D@2@@std@@W4SQUARE_NAMES@@@2@U_Kfn@?$map@V?$basic_string@DU?$char_traits@D@std@@V?$allocator@D@2@@std@@W4SQUARE_NAMES@@U?$less@V?$basic_string@DU?$char_traits@D@std@@V?$allocator@D@2@@std@@@2@V?$allocator@W4SQUARE_NAMES@@@2@@2@U?$less@V?$basic_string@DU?$char_traits@D@std@@V?$allocator@D@2@@std@@@2@V?$allocator@W4SQUARE_NAMES@@@2@@std@@QAEAAV012@XZ 00415610 f i cSquares.obj
 0001:00014650       ?_Color@?$_Tree@V?$basic_string@DU?$char_traits@D@std@@V?$allocator@D@2@@std@@U?$pair@$$CBV?$basic_string@DU?$char_traits@D@std@@V?$allocator@D@2@@std@@W4SQUARE_NAMES@@@2@U_Kfn@?$map@V?$basic_string@DU?$char_traits@D@std@@V?$allocator@D@2@@std@@W4SQUARE_NAMES@@U?$less@V?$basic_string@DU?$char_traits@D@std@@V?$allocator@D@2@@std@@@2@V?$allocator@W4SQUARE_NAMES@@@2@@2@U?$less@V?$basic_string@DU?$char_traits@D@std@@V?$allocator@D@2@@std@@@2@V?$allocator@W4SQUARE_NAMES@@@2@@std@@KAAAW4_Redbl@12@PAU_Node@12@@Z 00415650 f i cSquares.obj
 0001:00014680       ?_Parent@?$_Tree@V?$basic_string@DU?$char_traits@D@std@@V?$allocator@D@2@@std@@U?$pair@$$CBV?$basic_string@DU?$char_traits@D@std@@V?$allocator@D@2@@std@@W4SQUARE_NAMES@@@2@U_Kfn@?$map@V?$basic_string@DU?$char_traits@D@std@@V?$allocator@D@2@@std@@W4SQUARE_NAMES@@U?$less@V?$basic_string@DU?$char_traits@D@std@@V?$allocator@D@2@@std@@@2@V?$allocator@W4SQUARE_NAMES@@@2@@2@U?$less@V?$basic_string@DU?$char_traits@D@std@@V?$allocator@D@2@@std@@@2@V?$allocator@W4SQUARE_NAMES@@@2@@std@@KAAAPAU_Node@12@PAU312@@Z 00415680 f i cSquares.obj
 0001:000146b0       ?_Lbound@?$_Tree@V?$basic_string@DU?$char_traits@D@std@@V?$allocator@D@2@@std@@U?$pair@$$CBV?$basic_string@DU?$char_traits@D@std@@V?$allocator@D@2@@std@@W4SQUARE_NAMES@@@2@U_Kfn@?$map@V?$basic_string@DU?$char_traits@D@std@@V?$allocator@D@2@@std@@W4SQUARE_NAMES@@U?$less@V?$basic_string@DU?$char_traits@D@std@@V?$allocator@D@2@@std@@@2@V?$allocator@W4SQUARE_NAMES@@@2@@2@U?$less@V?$basic_string@DU?$char_traits@D@std@@V?$allocator@D@2@@std@@@2@V?$allocator@W4SQUARE_NAMES@@@2@@std@@IBEPAU_Node@12@ABV?$basic_string@DU?$char_traits@D@std@@V?$allocator@D@2@@2@@Z 004156b0 f i cSquares.obj
 0001:000147a0       ?_Lrotate@?$_Tree@V?$basic_string@DU?$char_traits@D@std@@V?$allocator@D@2@@std@@U?$pair@$$CBV?$basic_string@DU?$char_traits@D@std@@V?$allocator@D@2@@std@@W4SQUARE_NAMES@@@2@U_Kfn@?$map@V?$basic_string@DU?$char_traits@D@std@@V?$allocator@D@2@@std@@W4SQUARE_NAMES@@U?$less@V?$basic_string@DU?$char_traits@D@std@@V?$allocator@D@2@@std@@@2@V?$allocator@W4SQUARE_NAMES@@@2@@2@U?$less@V?$basic_string@DU?$char_traits@D@std@@V?$allocator@D@2@@std@@@2@V?$allocator@W4SQUARE_NAMES@@@2@@std@@IAEXPAU_Node@12@@Z 004157a0 f i cSquares.obj
 0001:00014930       ?_Max@?$_Tree@V?$basic_string@DU?$char_traits@D@std@@V?$allocator@D@2@@std@@U?$pair@$$CBV?$basic_string@DU?$char_traits@D@std@@V?$allocator@D@2@@std@@W4SQUARE_NAMES@@@2@U_Kfn@?$map@V?$basic_string@DU?$char_traits@D@std@@V?$allocator@D@2@@std@@W4SQUARE_NAMES@@U?$less@V?$basic_string@DU?$char_traits@D@std@@V?$allocator@D@2@@std@@@2@V?$allocator@W4SQUARE_NAMES@@@2@@2@U?$less@V?$basic_string@DU?$char_traits@D@std@@V?$allocator@D@2@@std@@@2@V?$allocator@W4SQUARE_NAMES@@@2@@std@@KAPAU_Node@12@PAU312@@Z 00415930 f i cSquares.obj
 0001:000149d0       ?_Min@?$_Tree@V?$basic_string@DU?$char_traits@D@std@@V?$allocator@D@2@@std@@U?$pair@$$CBV?$basic_string@DU?$char_traits@D@std@@V?$allocator@D@2@@std@@W4SQUARE_NAMES@@@2@U_Kfn@?$map@V?$basic_string@DU?$char_traits@D@std@@V?$allocator@D@2@@std@@W4SQUARE_NAMES@@U?$less@V?$basic_string@DU?$char_traits@D@std@@V?$allocator@D@2@@std@@@2@V?$allocator@W4SQUARE_NAMES@@@2@@2@U?$less@V?$basic_string@DU?$char_traits@D@std@@V?$allocator@D@2@@std@@@2@V?$allocator@W4SQUARE_NAMES@@@2@@std@@KAPAU_Node@12@PAU312@@Z 004159d0 f i cSquares.obj
 0001:00014a70       ?_Rrotate@?$_Tree@V?$basic_string@DU?$char_traits@D@std@@V?$allocator@D@2@@std@@U?$pair@$$CBV?$basic_string@DU?$char_traits@D@std@@V?$allocator@D@2@@std@@W4SQUARE_NAMES@@@2@U_Kfn@?$map@V?$basic_string@DU?$char_traits@D@std@@V?$allocator@D@2@@std@@W4SQUARE_NAMES@@U?$less@V?$basic_string@DU?$char_traits@D@std@@V?$allocator@D@2@@std@@@2@V?$allocator@W4SQUARE_NAMES@@@2@@2@U?$less@V?$basic_string@DU?$char_traits@D@std@@V?$allocator@D@2@@std@@@2@V?$allocator@W4SQUARE_NAMES@@@2@@std@@IAEXPAU_Node@12@@Z 00415a70 f i cSquares.obj
 0001:00014c00       ?_Buynode@?$_Tree@V?$basic_string@DU?$char_traits@D@std@@V?$allocator@D@2@@std@@U?$pair@$$CBV?$basic_string@DU?$char_traits@D@std@@V?$allocator@D@2@@std@@W4SQUARE_NAMES@@@2@U_Kfn@?$map@V?$basic_string@DU?$char_traits@D@std@@V?$allocator@D@2@@std@@W4SQUARE_NAMES@@U?$less@V?$basic_string@DU?$char_traits@D@std@@V?$allocator@D@2@@std@@@2@V?$allocator@W4SQUARE_NAMES@@@2@@2@U?$less@V?$basic_string@DU?$char_traits@D@std@@V?$allocator@D@2@@std@@@2@V?$allocator@W4SQUARE_NAMES@@@2@@std@@IAEPAU_Node@12@PAU312@W4_Redbl@12@@Z 00415c00 f i cSquares.obj
 0001:00014c70       ?_Consval@?$_Tree@V?$basic_string@DU?$char_traits@D@std@@V?$allocator@D@2@@std@@U?$pair@$$CBV?$basic_string@DU?$char_traits@D@std@@V?$allocator@D@2@@std@@W4SQUARE_NAMES@@@2@U_Kfn@?$map@V?$basic_string@DU?$char_traits@D@std@@V?$allocator@D@2@@std@@W4SQUARE_NAMES@@U?$less@V?$basic_string@DU?$char_traits@D@std@@V?$allocator@D@2@@std@@@2@V?$allocator@W4SQUARE_NAMES@@@2@@2@U?$less@V?$basic_string@DU?$char_traits@D@std@@V?$allocator@D@2@@std@@@2@V?$allocator@W4SQUARE_NAMES@@@2@@std@@IAEXPAU?$pair@$$CBV?$basic_string@DU?$char_traits@D@std@@V?$allocator@D@2@@std@@W4SQUARE_NAMES@@@2@ABU32@@Z 00415c70 f i cSquares.obj
 0001:00014cb0       ?_Destval@?$_Tree@V?$basic_string@DU?$char_traits@D@std@@V?$allocator@D@2@@std@@U?$pair@$$CBV?$basic_string@DU?$char_traits@D@std@@V?$allocator@D@2@@std@@W4SQUARE_NAMES@@@2@U_Kfn@?$map@V?$basic_string@DU?$char_traits@D@std@@V?$allocator@D@2@@std@@W4SQUARE_NAMES@@U?$less@V?$basic_string@DU?$char_traits@D@std@@V?$allocator@D@2@@std@@@2@V?$allocator@W4SQUARE_NAMES@@@2@@2@U?$less@V?$basic_string@DU?$char_traits@D@std@@V?$allocator@D@2@@std@@@2@V?$allocator@W4SQUARE_NAMES@@@2@@std@@IAEXPAU?$pair@$$CBV?$basic_string@DU?$char_traits@D@std@@V?$allocator@D@2@@std@@W4SQUARE_NAMES@@@2@@Z 00415cb0 f i cSquares.obj
 0001:00014cf0       ??0const_iterator@?$_Tree@V?$basic_string@DU?$char_traits@D@std@@V?$allocator@D@2@@std@@U?$pair@$$CBV?$basic_string@DU?$char_traits@D@std@@V?$allocator@D@2@@std@@W4SQUARE_NAMES@@@2@U_Kfn@?$map@V?$basic_string@DU?$char_traits@D@std@@V?$allocator@D@2@@std@@W4SQUARE_NAMES@@U?$less@V?$basic_string@DU?$char_traits@D@std@@V?$allocator@D@2@@std@@@2@V?$allocator@W4SQUARE_NAMES@@@2@@2@U?$less@V?$basic_string@DU?$char_traits@D@std@@V?$allocator@D@2@@std@@@2@V?$allocator@W4SQUARE_NAMES@@@2@@std@@QAE@PAU_Node@12@@Z 00415cf0 f i cSquares.obj
 0001:00014d30       ?_Dec@const_iterator@?$_Tree@V?$basic_string@DU?$char_traits@D@std@@V?$allocator@D@2@@std@@U?$pair@$$CBV?$basic_string@DU?$char_traits@D@std@@V?$allocator@D@2@@std@@W4SQUARE_NAMES@@@2@U_Kfn@?$map@V?$basic_string@DU?$char_traits@D@std@@V?$allocator@D@2@@std@@W4SQUARE_NAMES@@U?$less@V?$basic_string@DU?$char_traits@D@std@@V?$allocator@D@2@@std@@@2@V?$allocator@W4SQUARE_NAMES@@@2@@2@U?$less@V?$basic_string@DU?$char_traits@D@std@@V?$allocator@D@2@@std@@@2@V?$allocator@W4SQUARE_NAMES@@@2@@std@@QAEXXZ 00415d30 f i cSquares.obj
 0001:00014e60       ?_Charalloc@?$allocator@W4SQUARE_NAMES@@@std@@QAEPADI@Z 00415e60 f i cSquares.obj
 0001:00014ea0       ?_Root@?$_Tree@V?$basic_string@DU?$char_traits@D@std@@V?$allocator@D@2@@std@@U?$pair@$$CBV?$basic_string@DU?$char_traits@D@std@@V?$allocator@D@2@@std@@W4SQUARE_NAMES@@@2@U_Kfn@?$map@V?$basic_string@DU?$char_traits@D@std@@V?$allocator@D@2@@std@@W4SQUARE_NAMES@@U?$less@V?$basic_string@DU?$char_traits@D@std@@V?$allocator@D@2@@std@@@2@V?$allocator@W4SQUARE_NAMES@@@2@@2@U?$less@V?$basic_string@DU?$char_traits@D@std@@V?$allocator@D@2@@std@@@2@V?$allocator@W4SQUARE_NAMES@@@2@@std@@IBEAAPAU_Node@12@XZ 00415ea0 f i cSquares.obj
 0001:00014ee0       ?swap@std@@YAXAAW4_Redbl@?$_Tree@V?$basic_string@DU?$char_traits@D@std@@V?$allocator@D@2@@std@@U?$pair@$$CBV?$basic_string@DU?$char_traits@D@std@@V?$allocator@D@2@@std@@W4SQUARE_NAMES@@@2@U_Kfn@?$map@V?$basic_string@DU?$char_traits@D@std@@V?$allocator@D@2@@std@@W4SQUARE_NAMES@@U?$less@V?$basic_string@DU?$char_traits@D@std@@V?$allocator@D@2@@std@@@2@V?$allocator@W4SQUARE_NAMES@@@2@@2@U?$less@V?$basic_string@DU?$char_traits@D@std@@V?$allocator@D@2@@std@@@2@V?$allocator@W4SQUARE_NAMES@@@2@@1@0@Z 00415ee0 f i cSquares.obj
 0001:00014f20       ?_Construct@std@@YAXPAU?$pair@$$CBV?$basic_string@DU?$char_traits@D@std@@V?$allocator@D@2@@std@@W4SQUARE_NAMES@@@1@ABU21@@Z 00415f20 f i cSquares.obj
 0001:00014fb0       ?_Destroy@std@@YAXPAU?$pair@$$CBV?$basic_string@DU?$char_traits@D@std@@V?$allocator@D@2@@std@@W4SQUARE_NAMES@@@1@@Z 00415fb0 f i cSquares.obj
 0001:00014ff0       ??0?$pair@$$CBV?$basic_string@DU?$char_traits@D@std@@V?$allocator@D@2@@std@@W4SQUARE_NAMES@@@std@@QAE@ABU01@@Z 00415ff0 f i cSquares.obj
 0001:00015040       ??_G?$pair@$$CBV?$basic_string@DU?$char_traits@D@std@@V?$allocator@D@2@@std@@W4SQUARE_NAMES@@@std@@QAEPAXI@Z 00416040 f i cSquares.obj
 0001:00015120       ?run@cThread@@MAEKXZ       00416120 f   cThread.obj
 0001:00015190       ?isSet@cEVENT@@QAE_NXZ     00416190 f i cThread.obj
 0001:000151e0       ??0cThread@@QAE@XZ         004161e0 f   cThread.obj
 0001:00015260       ??_EcThread@@UAEPAXI@Z     00416260 f i cThread.obj
 0001:00015260       ??_GcThread@@UAEPAXI@Z     00416260 f i cThread.obj
 0001:000152c0       ??0cThread@@QAE@AAVtEVENT@@0@Z 004162c0 f   cThread.obj
 0001:00015360       ??4cEVENT@@QAEABV0@ABVtEVENT@@@Z 00416360 f i cThread.obj
 0001:000153b0       ??4tEVENT@@QAEAAV0@ABV0@@Z 004163b0 f i cThread.obj
 0001:00015400       ??1cThread@@UAE@XZ         00416400 f   cThread.obj
 0001:00015680       ??0cTree@@QAE@XZ           00416680 f   cTree.obj
 0001:00015750       ??0cPosition@@QAE@XZ       00416750 f i cTree.obj
 0001:000157c0       ?getPly@cPosition@@QAEHXZ  004167c0 f i cTree.obj
 0001:000157f0       ??_F?$vector@PAVcPosition@@V?$allocator@PAVcPosition@@@std@@@std@@QAEXXZ 004167f0 f i cTree.obj
 0001:00015830       ??1cTree@@QAE@XZ           00416830 f   cTree.obj
 0001:00015940       ??_GcPosition@@QAEPAXI@Z   00416940 f i cTree.obj
 0001:000159a0       ?prunePlys@cTree@@AAEXABVcBoard@@@Z 004169a0 f   cTree.obj
 0001:00015a80       ?addChild@cTree@@AAEXPAVcPosition@@H@Z 00416a80 f   cTree.obj
 0001:00015ad0       ?add_move_list@cTree@@AAEXAAVcPosition@@@Z 00416ad0 f   cTree.obj
 0001:00015cd0       ?move@cPosition@@AAEXAAVcMove@@@Z 00416cd0 f i cTree.obj
 0001:00015d10       ?set_last_move@cPosition@@AAEXAAVcMove@@@Z 00416d10 f i cTree.obj
 0001:00015d50       ?set_half_ply@cPosition@@AAEXH@Z 00416d50 f i cTree.obj
 0001:00015d80       ?set_to_move@cPosition@@AAEXH@Z 00416d80 f i cTree.obj
 0001:00015db0       ?set_parent@cPosition@@AAEXPAV1@@Z 00416db0 f i cTree.obj
 0001:00015df0       ?growPly@cTree@@QAEXH@Z    00416df0 f   cTree.obj
 0001:00015e80       ?dumpPly@cTree@@QAEXAAVcOUTPUT@@H@Z 00416e80 f   cTree.obj
 0001:00016000       ??0strstream@std@@QAE@XZ   00417000 f i cTree.obj
 0001:000160d0       ??0strstreambuf@std@@QAE@H@Z 004170d0 f i cTree.obj
 0001:00016160       ??_Estrstreambuf@std@@UAEPAXI@Z 00417160 f i cTree.obj
 0001:00016160       ??_Gstrstreambuf@std@@UAEPAXI@Z 00417160 f i cTree.obj
 0001:000161c0       ??_Gstrstream@std@@UAEPAXI@Z 004171c0 f i cTree.obj
 0001:000161c0       ??_Estrstream@std@@UAEPAXI@Z 004171c0 f i cTree.obj
 0001:00016220       ??_Dstrstream@std@@QAEXXZ  00417220 f i cTree.obj
 0001:00016270       ?dumpPosition@cPosition@@QAEXAAVcOUTPUT@@@Z 00417270 f i cTree.obj
 0001:000162b0       ?pruneTree@cTree@@QAEXABVcBoard@@@Z 004172b0 f   cTree.obj
 0001:00016380       ?search@cTree@@AAE?AVcMove@@H@Z 00417380 f   cTree.obj
 0001:00016460       ?getValue@cPosition@@QAEHXZ 00417460 f i cTree.obj
 0001:00016490       ?diff@cPosition@@QAE?AVcMove@@XZ 00417490 f i cTree.obj
 0001:000164e0       ?search@cTree@@QAE?AVcMove@@XZ 004174e0 f   cTree.obj
 0001:00016550       ??1?$basic_ios@DU?$char_traits@D@std@@@std@@UAE@XZ 00417550 f i cTree.obj
 0001:00016590       ??0?$basic_ios@DU?$char_traits@D@std@@@std@@IAE@XZ 00417590 f i cTree.obj
 0001:000165e0       ??0ios_base@std@@IAE@XZ    004175e0 f i cTree.obj
 0001:00016640       ??0locale@std@@QAE@W4_Uninitialized@1@@Z 00417640 f i cTree.obj
 0001:00016670       ??_Gios_base@std@@UAEPAXI@Z 00417670 f i cTree.obj
 0001:00016670       ??_Eios_base@std@@UAEPAXI@Z 00417670 f i cTree.obj
 0001:000166d0       ??0?$basic_streambuf@DU?$char_traits@D@std@@@std@@IAE@XZ 004176d0 f i cTree.obj
 0001:00016750       ??0locale@std@@QAE@XZ      00417750 f i cTree.obj
 0001:000167b0       ??1?$basic_streambuf@DU?$char_traits@D@std@@@std@@UAE@XZ 004177b0 f i cTree.obj
 0001:00016800       ?overflow@?$basic_streambuf@DU?$char_traits@D@std@@@std@@MAEHH@Z 00417800 f i cTree.obj
 0001:00016840       ?pbackfail@?$basic_streambuf@DU?$char_traits@D@std@@@std@@MAEHH@Z 00417840 f i cTree.obj
 0001:00016880       ?showmanyc@?$basic_streambuf@DU?$char_traits@D@std@@@std@@MAEHXZ 00417880 f i cTree.obj
 0001:000168b0       ?underflow@?$basic_streambuf@DU?$char_traits@D@std@@@std@@MAEHXZ 004178b0 f i cTree.obj
 0001:000168f0       ?uflow@?$basic_streambuf@DU?$char_traits@D@std@@@std@@MAEHXZ 004178f0 f i cTree.obj
 0001:00016980       ?xsgetn@?$basic_streambuf@DU?$char_traits@D@std@@@std@@MAEHPADH@Z 00417980 f i cTree.obj
 0001:00016ab0       ?xsputn@?$basic_streambuf@DU?$char_traits@D@std@@@std@@MAEHPBDH@Z 00417ab0 f i cTree.obj
 0001:00016be0       ?seekoff@?$basic_streambuf@DU?$char_traits@D@std@@@std@@MAE?AV?$fpos@H@2@JW4seekdir@ios_base@2@H@Z 00417be0 f i cTree.obj
 0001:00016c30       ?seekpos@?$basic_streambuf@DU?$char_traits@D@std@@@std@@MAE?AV?$fpos@H@2@V32@H@Z 00417c30 f i cTree.obj
 0001:00016c80       ?setbuf@?$basic_streambuf@DU?$char_traits@D@std@@@std@@MAEPAV12@PADH@Z 00417c80 f i cTree.obj
 0001:00016cb0       ?sync@?$basic_streambuf@DU?$char_traits@D@std@@@std@@MAEHXZ 00417cb0 f i cTree.obj
 0001:00016ce0       ?imbue@?$basic_streambuf@DU?$char_traits@D@std@@@std@@MAEXABVlocale@2@@Z 00417ce0 f i cTree.obj
 0001:00016d10       ??0?$basic_iostream@DU?$char_traits@D@std@@@std@@QAE@PAV?$basic_streambuf@DU?$char_traits@D@std@@@1@@Z 00417d10 f i cTree.obj
 0001:00016df0       ??0?$basic_ostream@DU?$char_traits@D@std@@@std@@QAE@PAV?$basic_streambuf@DU?$char_traits@D@std@@@1@_N1@Z 00417df0 f i cTree.obj
 0001:00016ec0       ??0?$basic_istream@DU?$char_traits@D@std@@@std@@QAE@PAV?$basic_streambuf@DU?$char_traits@D@std@@@1@_N@Z 00417ec0 f i cTree.obj
 0001:00016f80       ??1?$basic_istream@DU?$char_traits@D@std@@@std@@UAE@XZ 00417f80 f i cTree.obj
 0001:00016fc0       ??1?$basic_iostream@DU?$char_traits@D@std@@@std@@UAE@XZ 00417fc0 f i cTree.obj
 0001:00017070       ??1?$basic_ostream@DU?$char_traits@D@std@@@std@@UAE@XZ 00418070 f i cTree.obj
 0001:000170b0       ??0?$vector@PAVcPosition@@V?$allocator@PAVcPosition@@@std@@@std@@QAE@ABV?$allocator@PAVcPosition@@@1@@Z 004180b0 f i cTree.obj
 0001:00017110       ??1?$vector@PAVcPosition@@V?$allocator@PAVcPosition@@@std@@@std@@QAE@XZ 00418110 f i cTree.obj
 0001:000171a0       ?end@?$vector@PAVcPosition@@V?$allocator@PAVcPosition@@@std@@@std@@QAEPAPAVcPosition@@XZ 004181a0 f i cTree.obj
 0001:000171d0       ?size@?$vector@PAVcPosition@@V?$allocator@PAVcPosition@@@std@@@std@@QBEIXZ 004181d0 f i cTree.obj
 0001:00017220       ?push_back@?$vector@PAVcPosition@@V?$allocator@PAVcPosition@@@std@@@std@@QAEXABQAVcPosition@@@Z 00418220 f i cTree.obj
 0001:00017270       ?clear@?$vector@PAVcPosition@@V?$allocator@PAVcPosition@@@std@@@std@@QAEXXZ 00418270 f i cTree.obj
 0001:000172c0       ??_G?$basic_ostream@DU?$char_traits@D@std@@@std@@UAEPAXI@Z 004182c0 f i cTree.obj
 0001:000172c0       ??_E?$basic_ostream@DU?$char_traits@D@std@@@std@@UAEPAXI@Z 004182c0 f i cTree.obj
 0001:00017320       ??_E?$basic_ios@DU?$char_traits@D@std@@@std@@UAEPAXI@Z 00418320 f i cTree.obj
 0001:00017320       ??_G?$basic_ios@DU?$char_traits@D@std@@@std@@UAEPAXI@Z 00418320 f i cTree.obj
 0001:00017380       ??_E?$basic_istream@DU?$char_traits@D@std@@@std@@UAEPAXI@Z 00418380 f i cTree.obj
 0001:00017380       ??_G?$basic_istream@DU?$char_traits@D@std@@@std@@UAEPAXI@Z 00418380 f i cTree.obj
 0001:000173e0       ??_E?$basic_streambuf@DU?$char_traits@D@std@@@std@@UAEPAXI@Z 004183e0 f i cTree.obj
 0001:000173e0       ??_G?$basic_streambuf@DU?$char_traits@D@std@@@std@@UAEPAXI@Z 004183e0 f i cTree.obj
 0001:00017440       ??_E?$basic_iostream@DU?$char_traits@D@std@@@std@@UAEPAXI@Z 00418440 f i cTree.obj
 0001:00017440       ??_G?$basic_iostream@DU?$char_traits@D@std@@@std@@UAEPAXI@Z 00418440 f i cTree.obj
 0001:000174a0       ??_D?$basic_ostream@DU?$char_traits@D@std@@@std@@QAEXXZ 004184a0 f i cTree.obj
 0001:000174f0       ??_D?$basic_istream@DU?$char_traits@D@std@@@std@@QAEXXZ 004184f0 f i cTree.obj
 0001:00017540       ??_D?$basic_iostream@DU?$char_traits@D@std@@@std@@QAEXXZ 00418540 f i cTree.obj
 0001:00017590       ?init@?$basic_ios@DU?$char_traits@D@std@@@std@@IAEXPAV?$basic_streambuf@DU?$char_traits@D@std@@@2@_N@Z 00418590 f i cTree.obj
 0001:00017620       ??0?$fpos@H@std@@QAE@J@Z   00418620 f i cTree.obj
 0001:00017690       ?gbump@?$basic_streambuf@DU?$char_traits@D@std@@@std@@IAEXH@Z 00418690 f i cTree.obj
 0001:000176e0       ?pbump@?$basic_streambuf@DU?$char_traits@D@std@@@std@@IAEXH@Z 004186e0 f i cTree.obj
 0001:00017730       ?_Init@?$basic_streambuf@DU?$char_traits@D@std@@@std@@IAEXXZ 00418730 f i cTree.obj
 0001:000177c0       ?insert@?$vector@PAVcPosition@@V?$allocator@PAVcPosition@@@std@@@std@@QAEPAPAVcPosition@@PAPAV3@ABQAV3@@Z 004187c0 f i cTree.obj
 0001:00017830       ?erase@?$vector@PAVcPosition@@V?$allocator@PAVcPosition@@@std@@@std@@QAEPAPAVcPosition@@PAPAV3@0@Z 00418830 f i cTree.obj
 0001:000178a0       ?_Destroy@?$vector@PAVcPosition@@V?$allocator@PAVcPosition@@@std@@@std@@IAEXPAPAVcPosition@@0@Z 004188a0 f i cTree.obj
 0001:00017900       ?deallocate@?$allocator@PAVcPosition@@@std@@QAEXPAXI@Z 00418900 f i cTree.obj
 0001:00017940       ?setg@?$basic_streambuf@DU?$char_traits@D@std@@@std@@IAEXPAD00@Z 00418940 f i cTree.obj
 0001:00017990       ?setp@?$basic_streambuf@DU?$char_traits@D@std@@@std@@IAEXPAD0@Z 00418990 f i cTree.obj
 0001:000179e0       ?insert@?$vector@PAVcPosition@@V?$allocator@PAVcPosition@@@std@@@std@@QAEXPAPAVcPosition@@IABQAV3@@Z 004189e0 f i cTree.obj
 0001:00017c20       ?destroy@?$allocator@PAVcPosition@@@std@@QAEXPAPAVcPosition@@@Z 00418c20 f i cTree.obj
 0001:00017c60       ?_Ucopy@?$vector@PAVcPosition@@V?$allocator@PAVcPosition@@@std@@@std@@IAEPAPAVcPosition@@PBQAV3@0PAPAV3@@Z 00418c60 f i cTree.obj
 0001:00017cd0       ?_Ufill@?$vector@PAVcPosition@@V?$allocator@PAVcPosition@@@std@@@std@@IAEXPAPAVcPosition@@IABQAV3@@Z 00418cd0 f i cTree.obj
 0001:00017d30       ?allocate@?$allocator@PAVcPosition@@@std@@QAEPAPAVcPosition@@IPBX@Z 00418d30 f i cTree.obj
 0001:00017d70       ?construct@?$allocator@PAVcPosition@@@std@@QAEXPAPAVcPosition@@ABQAV3@@Z 00418d70 f i cTree.obj
 0001:00017db0       ?copy@std@@YAPAPAVcPosition@@PAPAV2@00@Z 00418db0 f i cTree.obj
 0001:00017e00       ?fill@std@@YAXPAPAVcPosition@@0ABQAV2@@Z 00418e00 f i cTree.obj
 0001:00017e40       ?copy_backward@std@@YAPAPAVcPosition@@PAPAV2@00@Z 00418e40 f i cTree.obj
 0001:00017e90       ?_Destroy@std@@YAXPAPAVcPosition@@@Z 00418e90 f i cTree.obj
 0001:00017eb0       ?_Allocate@std@@YAPAPAVcPosition@@HPAPAV2@@Z 00418eb0 f i cTree.obj
 0001:00017f00       ?_Construct@std@@YAXPAPAVcPosition@@ABQAV2@@Z 00418f00 f i cTree.obj
 0001:00018270       _main                      00419270 f   main.obj
 0001:000183a0       ??0tEVENT@@QAE@XZ          004193a0 f   TEVENT.OBJ
 0001:00018410       ??_GtEVENT@@UAEPAXI@Z      00419410 f i TEVENT.OBJ
 0001:00018410       ??_EtEVENT@@UAEPAXI@Z      00419410 f i TEVENT.OBJ
 0001:00018470       ??0tEVENT@@QAE@PAX@Z       00419470 f   TEVENT.OBJ
 0001:000184c0       ??0tEVENT@@QAE@ABV0@@Z     004194c0 f   TEVENT.OBJ
 0001:00018540       ??1tEVENT@@UAE@XZ          00419540 f   TEVENT.OBJ
 0001:000185a0       ?Set@tEVENT@@QAEXXZ        004195a0 f   TEVENT.OBJ
 0001:000185f0       ?Reset@tEVENT@@QAEXXZ      004195f0 f   TEVENT.OBJ
 0001:00018640       ?GetHandle@tEVENT@@QAEPAXXZ 00419640 f   TEVENT.OBJ
 0001:00018670       ?isSet@tEVENT@@QAE_NXZ     00419670 f   TEVENT.OBJ
 0001:000186c0       ?Wait@tEVENT@@QAE_NXZ      004196c0 f   TEVENT.OBJ
 0001:00018710       ?Wait@tEVENT@@QAE_NK@Z     00419710 f   TEVENT.OBJ
 0001:00018770       ??0threadObject@@QAE@XZ    00419770 f   threadObject.obj
 0001:00018810       ??0cEVENT@@QAE@XZ          00419810 f i threadObject.obj
 0001:00018860       ??1cEVENT@@UAE@XZ          00419860 f i threadObject.obj
 0001:00018890       ??_EcEVENT@@UAEPAXI@Z      00419890 f i threadObject.obj
 0001:00018890       ??_GcEVENT@@UAEPAXI@Z      00419890 f i threadObject.obj
 0001:000188f0       ??0threadObject@@QAE@AAVtEVENT@@@Z 004198f0 f   threadObject.obj
 0001:000189a0       ??1threadObject@@QAE@XZ    004199a0 f   threadObject.obj
 0001:00018a50       ?run@threadObject@@MAEKXZ  00419a50 f   threadObject.obj
 0001:00018a80       ?threadFunc@threadObject@@KGKPAX@Z 00419a80 f   threadObject.obj
 0001:00018ae0       ?remove@threadPool@@QAEHPAX@Z 00419ae0 f i threadObject.obj
 0001:00018b10       ?WaitForExit@threadObject@@QAEXXZ 00419b10 f   threadObject.obj
 0001:00018b80       ?startThread@threadObject@@QAEPAXPAVthreadPool@@@Z 00419b80 f   threadObject.obj
 0001:00018c14       _WaitForMultipleObjects@16 00419c14 f   kernel32:KERNEL32.dll
 0001:00018c1a       _Sleep@4                   00419c1a f   kernel32:KERNEL32.dll
 0001:00018c20       _InitializeCriticalSection@4 00419c20 f   kernel32:KERNEL32.dll
 0001:00018c26       _EnterCriticalSection@4    00419c26 f   kernel32:KERNEL32.dll
 0001:00018c2c       _LeaveCriticalSection@4    00419c2c f   kernel32:KERNEL32.dll
 0001:00018c32       _DeleteCriticalSection@4   00419c32 f   kernel32:KERNEL32.dll
 0001:00018c38       _WaitForSingleObject@8     00419c38 f   kernel32:KERNEL32.dll
 0001:00018c3e       _CreateEventA@16           00419c3e f   kernel32:KERNEL32.dll
 0001:00018c44       _CloseHandle@4             00419c44 f   kernel32:KERNEL32.dll
 0001:00018c4a       _SetEvent@4                00419c4a f   kernel32:KERNEL32.dll
 0001:00018c50       _ResetEvent@4              00419c50 f   kernel32:KERNEL32.dll
 0001:00018c60       __chkesp                   00419c60 f   LIBCMTD:chkesp.obj
 0001:00018ca0       __onexit                   00419ca0 f   LIBCMTD:onexit.obj
 0001:00018d60       _atexit                    00419d60 f   LIBCMTD:onexit.obj
 0001:00018d80       ___onexitinit              00419d80 f   LIBCMTD:onexit.obj
 0001:00018dd0       ?_JumpToContinuation@@YGXPAXPAUEHRegistrationNode@@@Z 00419dd0 f   LIBCMTD:trnsctrl.obj
 0001:00018e10       ?_CallMemberFunction0@@YGXPAX0@Z 00419e10 f   LIBCMTD:trnsctrl.obj
 0001:00018e20       ?_CallMemberFunction1@@YGXPAX00@Z 00419e20 f   LIBCMTD:trnsctrl.obj
 0001:00018e30       ?_CallMemberFunction2@@YGXPAX00H@Z 00419e30 f   LIBCMTD:trnsctrl.obj
 0001:00018e40       ?_UnwindNestedFrames@@YGXPAUEHRegistrationNode@@PAUEHExceptionRecord@@@Z 00419e40 f   LIBCMTD:trnsctrl.obj
 0001:00018ea0       ___CxxFrameHandler         00419ea0 f   LIBCMTD:trnsctrl.obj
 0001:00018ee0       ___CxxLongjmpUnwind@4      00419ee0 f   LIBCMTD:trnsctrl.obj
 0001:00018f10       ?_CallCatchBlock2@@YAPAXPAUEHRegistrationNode@@PBU_s_FuncInfo@@PAXHK@Z 00419f10 f   LIBCMTD:trnsctrl.obj
 0001:00018fc0       ?_CallSETranslator@@YAHPAUEHExceptionRecord@@PAUEHRegistrationNode@@PAX2PBU_s_FuncInfo@@H1@Z 00419fc0 f   LIBCMTD:trnsctrl.obj
 0001:00019120       ?_GetRangeOfTrysToCheck@@YAPBU_s_TryBlockMapEntry@@PBU_s_FuncInfo@@HHPAI1@Z 0041a120 f   LIBCMTD:trnsctrl.obj
 0001:000191b0       __global_unwind2           0041a1b0 f   LIBCMTD:exsup.obj
 0001:000191f2       __local_unwind2            0041a1f2 f   LIBCMTD:exsup.obj
 0001:0001924a       __NLG_Return2              0041a24a f   LIBCMTD:exsup.obj
 0001:0001925a       __abnormal_termination     0041a25a f   LIBCMTD:exsup.obj
 0001:0001927d       __NLG_Notify1              0041a27d f   LIBCMTD:exsup.obj
 0001:00019286       __NLG_Notify               0041a286 f   LIBCMTD:exsup.obj
 0001:00019299       __NLG_Dispatch             0041a299 f   LIBCMTD:exsup.obj
 0001:000192a0       _strlen                    0041a2a0 f   LIBCMTD:strlen.obj
 0001:00019320       _memcpy                    0041a320 f   LIBCMTD:memcpy.obj
 0001:00019660       ??3@YAXPAX@Z               0041a660 f   LIBCMTD:dbgdel.obj
 0001:00019710       ??2@YAPAXI@Z               0041a710 f   LIBCMTD:new.obj
 0001:00019730       __toupper                  0041a730 f   LIBCMTD:toupper.obj
 0001:00019740       _toupper                   0041a740 f   LIBCMTD:toupper.obj
 0001:000197e0       __toupper_lk               0041a7e0 f   LIBCMTD:toupper.obj
 0001:00019910       __allshl                   0041a910 f   LIBCMTD:llshl.obj
 0001:00019930       _clock                     0041a930 f   LIBCMTD:clock.obj
 0001:000199a0       ___inittime                0041a9a0 f   LIBCMTD:clock.obj
 0001:000199e0       __fpmath                   0041a9e0 f   LIBCMTD:fpinit.obj
 0001:00019a10       __fpclear                  0041aa10 f   LIBCMTD:fpinit.obj
 0001:00019a20       __cfltcvt_init             0041aa20 f   LIBCMTD:fpinit.obj
 0001:00019a70       ___setfflag                0041aa70 f   LIBCMTD:fpinit.obj
 0001:00019a90       _memmove                   0041aa90 f   LIBCMTD:memmove.obj
 0001:00019dd0       __purecall                 0041add0 f   LIBCMTD:purevirt.obj
 0001:00019de0       _isalpha                   0041ade0 f   LIBCMTD:_ctype.obj
 0001:00019e30       _isupper                   0041ae30 f   LIBCMTD:_ctype.obj
 0001:00019e70       _islower                   0041ae70 f   LIBCMTD:_ctype.obj
 0001:00019eb0       _isdigit                   0041aeb0 f   LIBCMTD:_ctype.obj
 0001:00019ef0       _isxdigit                  0041aef0 f   LIBCMTD:_ctype.obj
 0001:00019f40       _isspace                   0041af40 f   LIBCMTD:_ctype.obj
 0001:00019f80       _ispunct                   0041af80 f   LIBCMTD:_ctype.obj
 0001:00019fc0       _isalnum                   0041afc0 f   LIBCMTD:_ctype.obj
 0001:0001a010       _isprint                   0041b010 f   LIBCMTD:_ctype.obj
 0001:0001a060       _isgraph                   0041b060 f   LIBCMTD:_ctype.obj
 0001:0001a0b0       _iscntrl                   0041b0b0 f   LIBCMTD:_ctype.obj
 0001:0001a0f0       ___isascii                 0041b0f0 f   LIBCMTD:_ctype.obj
 0001:0001a100       ___toascii                 0041b100 f   LIBCMTD:_ctype.obj
 0001:0001a110       ___iscsymf                 0041b110 f   LIBCMTD:_ctype.obj
 0001:0001a170       ___iscsym                  0041b170 f   LIBCMTD:_ctype.obj
 0001:0001a1d0       _memset                    0041b1d0 f   LIBCMTD:memset.obj
 0001:0001a230       ??0exception@@QAE@XZ       0041b230 f   LIBCMTD:stdexcpt.obj
 0001:0001a260       ??_Eexception@@UAEPAXI@Z   0041b260 f i LIBCMTD:stdexcpt.obj
 0001:0001a260       ??_Gexception@@UAEPAXI@Z   0041b260 f i LIBCMTD:stdexcpt.obj
 0001:0001a290       ??0exception@@QAE@ABQBD@Z  0041b290 f   LIBCMTD:stdexcpt.obj
 0001:0001a300       ??0exception@@QAE@ABV0@@Z  0041b300 f   LIBCMTD:stdexcpt.obj
 0001:0001a390       ??4exception@@QAEAAV0@ABV0@@Z 0041b390 f   LIBCMTD:stdexcpt.obj
 0001:0001a3c0       ??1exception@@UAE@XZ       0041b3c0 f   LIBCMTD:stdexcpt.obj
 0001:0001a400       ?what@exception@@UBEPBDXZ  0041b400 f   LIBCMTD:stdexcpt.obj
 0001:0001a430       ??1type_info@@UAE@XZ       0041b430 f   LIBCMTD:typinfo.obj
 0001:0001a470       ??_Etype_info@@UAEPAXI@Z   0041b470 f i LIBCMTD:typinfo.obj
 0001:0001a470       ??_Gtype_info@@UAEPAXI@Z   0041b470 f i LIBCMTD:typinfo.obj
 0001:0001a4a0       ??8type_info@@QBEHABV0@@Z  0041b4a0 f   LIBCMTD:typinfo.obj
 0001:0001a4d0       ??9type_info@@QBEHABV0@@Z  0041b4d0 f   LIBCMTD:typinfo.obj
 0001:0001a500       ?before@type_info@@QBEHABV1@@Z 0041b500 f   LIBCMTD:typinfo.obj
 0001:0001a530       ?raw_name@type_info@@QBEPBDXZ 0041b530 f   LIBCMTD:typinfo.obj
 0001:0001a550       ??0type_info@@AAE@ABV0@@Z  0041b550 f   LIBCMTD:typinfo.obj
 0001:0001a570       ??4type_info@@AAEAAV0@ABV0@@Z 0041b570 f   LIBCMTD:typinfo.obj
 0001:0001a580       __CxxThrowException@8      0041b580 f   LIBCMTD:throw.obj
 0001:0001a5d0       _malloc                    0041b5d0 f   LIBCMTD:dbgheap.obj
 0001:0001a5f0       __malloc_dbg               0041b5f0 f   LIBCMTD:dbgheap.obj
 0001:0001a620       __nh_malloc                0041b620 f   LIBCMTD:dbgheap.obj
 0001:0001a640       __nh_malloc_dbg            0041b640 f   LIBCMTD:dbgheap.obj
 0001:0001a6a0       __heap_alloc               0041b6a0 f   LIBCMTD:dbgheap.obj
 0001:0001a6c0       __heap_alloc_dbg           0041b6c0 f   LIBCMTD:dbgheap.obj
 0001:0001a9e0       _calloc                    0041b9e0 f   LIBCMTD:dbgheap.obj
 0001:0001aa00       __calloc_dbg               0041ba00 f   LIBCMTD:dbgheap.obj
 0001:0001aa60       _realloc                   0041ba60 f   LIBCMTD:dbgheap.obj
 0001:0001aa80       __realloc_dbg              0041ba80 f   LIBCMTD:dbgheap.obj
 0001:0001afe0       __expand                   0041bfe0 f   LIBCMTD:dbgheap.obj
 0001:0001b000       __expand_dbg               0041c000 f   LIBCMTD:dbgheap.obj
 0001:0001b040       _free                      0041c040 f   LIBCMTD:dbgheap.obj
 0001:0001b060       __free_lk                  0041c060 f   LIBCMTD:dbgheap.obj
 0001:0001b080       __free_dbg                 0041c080 f   LIBCMTD:dbgheap.obj
 0001:0001b0b0       __free_dbg_lk              0041c0b0 f   LIBCMTD:dbgheap.obj
 0001:0001b4a0       __msize                    0041c4a0 f   LIBCMTD:dbgheap.obj
 0001:0001b4c0       __msize_dbg                0041c4c0 f   LIBCMTD:dbgheap.obj
 0001:0001b620       __CrtSetBreakAlloc         0041c620 f   LIBCMTD:dbgheap.obj
 0001:0001b640       __CrtSetDbgBlockType       0041c640 f   LIBCMTD:dbgheap.obj
 0001:0001b6e0       __CrtSetAllocHook          0041c6e0 f   LIBCMTD:dbgheap.obj
 0001:0001b790       __CrtCheckMemory           0041c790 f   LIBCMTD:dbgheap.obj
 0001:0001bb00       __CrtSetDbgFlag            0041cb00 f   LIBCMTD:dbgheap.obj
 0001:0001bb30       __CrtDoForAllClientObjects 0041cb30 f   LIBCMTD:dbgheap.obj
 0001:0001bba0       __CrtIsValidPointer        0041cba0 f   LIBCMTD:dbgheap.obj
 0001:0001bbf0       __CrtIsValidHeapPointer    0041cbf0 f   LIBCMTD:dbgheap.obj
 0001:0001bc80       __CrtIsMemoryBlock         0041cc80 f   LIBCMTD:dbgheap.obj
 0001:0001bd70       __CrtSetDumpClient         0041cd70 f   LIBCMTD:dbgheap.obj
 0001:0001bd90       __CrtMemCheckpoint         0041cd90 f   LIBCMTD:dbgheap.obj
 0001:0001bf00       __CrtMemDifference         0041cf00 f   LIBCMTD:dbgheap.obj
 0001:0001c030       __CrtMemDumpAllObjectsSince 0041d030 f   LIBCMTD:dbgheap.obj
 0001:0001c410       __CrtDumpMemoryLeaks       0041d410 f   LIBCMTD:dbgheap.obj
 0001:0001c490       __CrtMemDumpStatistics     0041d490 f   LIBCMTD:dbgheap.obj
 0001:0001c560       _sprintf                   0041d560 f   LIBCMTD:sprintf.obj
 0001:0001c660       _memchr                    0041d660 f   LIBCMTD:memchr.obj
 0001:0001c710       _localeconv                0041d710 f   LIBCMTD:lconv.obj
 0001:0001c720       _strcspn                   0041d720 f   LIBCMTD:strcspn.obj
 0001:0001c760       _strcpy                    0041d760 f   LIBCMTD:strcat.obj
 0001:0001c770       _strcat                    0041d770 f   LIBCMTD:strcat.obj
 0001:0001c850       _memcmp                    0041d850 f   LIBCMTD:memcmp.obj
 0001:0001c900       _abs                       0041d900 f   LIBCMTD:abs.obj
 0001:0001c930       _srand                     0041d930 f   LIBCMTD:rand.obj
 0001:0001c940       _rand                      0041d940 f   LIBCMTD:rand.obj
 0001:0001c980       ??_M@YGXPAXIHP6EX0@Z@Z     0041d980 f   LIBCMTD:ehvecdtr.obj
 0001:0001ca30       ?__ArrayUnwind@@YGXPAXIHP6EX0@Z@Z 0041da30 f   LIBCMTD:ehvecdtr.obj
 0001:0001cae0       ??_L@YGXPAXIHP6EX0@Z1@Z    0041dae0 f   LIBCMTD:ehvecctr.obj
 0001:0001cb80       __chkstk                   0041db80 f   LIBCMTD:chkstk.obj
 0001:0001cb80       __alloca_probe             0041db80 f   LIBCMTD:chkstk.obj
 0001:0001cbb0       __beginthreadex            0041dbb0 f   LIBCMTD:threadex.obj
 0001:0001cd40       __endthreadex              0041dd40 f   LIBCMTD:threadex.obj
 0001:0001cd90       _mainCRTStartup            0041dd90 f   LIBCMTD:crt0.obj
 0001:0001cee0       __amsg_exit                0041dee0 f   LIBCMTD:crt0.obj
 0001:0001cf40       __CrtDbgBreak              0041df40 f   LIBCMTD:dbgrpt.obj
 0001:0001cf50       __CrtSetReportMode         0041df50 f   LIBCMTD:dbgrpt.obj
 0001:0001cfb0       __CrtSetReportFile         0041dfb0 f   LIBCMTD:dbgrpt.obj
 0001:0001d030       __CrtSetReportHook         0041e030 f   LIBCMTD:dbgrpt.obj
 0001:0001d050       __CrtDbgReport             0041e050 f   LIBCMTD:dbgrpt.obj
 0001:0001d6f0       __cinit                    0041e6f0 f   LIBCMTD:crt0dat.obj
 0001:0001d730       _exit                      0041e730 f   LIBCMTD:crt0dat.obj
 0001:0001d750       __exit                     0041e750 f   LIBCMTD:crt0dat.obj
 0001:0001d770       __cexit                    0041e770 f   LIBCMTD:crt0dat.obj
 0001:0001d790       __c_exit                   0041e790 f   LIBCMTD:crt0dat.obj
 0001:0001d8a0       __lockexit                 0041e8a0 f   LIBCMTD:crt0dat.obj
 0001:0001d8b0       __unlockexit               0041e8b0 f   LIBCMTD:crt0dat.obj
 0001:0001d8f0       ___InternalCxxFrameHandler 0041e8f0 f   LIBCMTD:frame.obj
 0001:0001de60       ___FrameUnwindToState      0041ee60 f   LIBCMTD:frame.obj
 0001:0001e470       ?_DestructExceptionObject@@YAXPAUEHExceptionRecord@@E@Z 0041f470 f   LIBCMTD:frame.obj
 0001:0001e550       __CallSettingFrame@12      0041f550 f   LIBCMTD:lowhelpr.obj
 0001:0001e577       __NLG_Return               0041f577 f   LIBCMTD:lowhelpr.obj
 0001:0001e5a0       __mtinit                   0041f5a0 f   LIBCMTD:tidtable.obj
 0001:0001e630       __mtterm                   0041f630 f   LIBCMTD:tidtable.obj
 0001:0001e660       __initptd                  0041f660 f   LIBCMTD:tidtable.obj
 0001:0001e680       __getptd                   0041f680 f   LIBCMTD:tidtable.obj
 0001:0001e720       __freeptd                  0041f720 f   LIBCMTD:tidtable.obj
 0001:0001e830       ___threadid                0041f830 f   LIBCMTD:tidtable.obj
 0001:0001e840       ___threadhandle            0041f840 f   LIBCMTD:tidtable.obj
 0001:0001e850       ?terminate@@YAXXZ          0041f850 f   LIBCMTD:hooks.obj
 0001:0001e8e0       ?unexpected@@YAXXZ         0041f8e0 f   LIBCMTD:hooks.obj
 0001:0001e900       ?_inconsistency@@YAXXZ     0041f900 f   LIBCMTD:hooks.obj
 0001:0001e990       __mtinitlocks              0041f990 f   LIBCMTD:mlock.obj
 0001:0001e9d0       __mtdeletelocks            0041f9d0 f   LIBCMTD:mlock.obj
 0001:0001ea70       __lock                     0041fa70 f   LIBCMTD:mlock.obj
 0001:0001eb10       __unlock                   0041fb10 f   LIBCMTD:mlock.obj
 0001:0001eb30       __lockerr_exit             0041fb30 f   LIBCMTD:mlock.obj
 0001:0001eb50       _setlocale                 0041fb50 f   LIBCMTD:setlocal.obj
 0001:0001f1e0       __expandlocale             004201e0 f   LIBCMTD:setlocal.obj
 0001:0001f370       ___init_dummy              00420370 f   LIBCMTD:setlocal.obj
 0001:0001f380       __strcats                  00420380 f   LIBCMTD:setlocal.obj
 0001:0001f3d0       ___lc_strtolc              004203d0 f   LIBCMTD:setlocal.obj
 0001:0001f530       ___lc_lctostr              00420530 f   LIBCMTD:setlocal.obj
 0001:0001f5a0       ___crtLCMapStringA         004205a0 f   LIBCMTD:a_map.obj
 0001:0001f900       __isctype                  00420900 f   LIBCMTD:isctype.obj
 0001:0001f9c0       __aulldiv                  004209c0 f   LIBCMTD:ulldiv.obj
 0001:0001fa30       __setdefaultprecision      00420a30 f   LIBCMTD:fp8.obj
 0001:0001fa50       __ms_p5_test_fdiv          00420a50 f   LIBCMTD:testfdiv.obj
 0001:0001fab0       __ms_p5_mp_test_fdiv       00420ab0 f   LIBCMTD:testfdiv.obj
 0001:0001fb00       __forcdecpt                00420b00 f   LIBCMTD:cvt.obj
 0001:0001fbb0       __cropzeros                00420bb0 f   LIBCMTD:cvt.obj
 0001:0001fc90       __positive                 00420c90 f   LIBCMTD:cvt.obj
 0001:0001fcc0       __fassign                  00420cc0 f   LIBCMTD:cvt.obj
 0001:0001fd10       __cftoe                    00420d10 f   LIBCMTD:cvt.obj
 0001:0001ff00       __cftof                    00420f00 f   LIBCMTD:cvt.obj
 0001:000200b0       __cftog                    004210b0 f   LIBCMTD:cvt.obj
 0001:000201a0       __cfltcvt                  004211a0 f   LIBCMTD:cvt.obj
 0001:00020230       __free_base                00421230 f   LIBCMTD:free.obj
 0001:000202a0       _strcmp                    004212a0 f   LIBCMTD:strcmp.obj
 0001:00020330       ?__CxxUnhandledExceptionFilter@@YGJPAU_EXCEPTION_POINTERS@@@Z 00421330 f   LIBCMTD:unhandld.obj
 0001:00020390       ?__CxxSetUnhandledExceptionFilter@@YAXXZ 00421390 f   LIBCMTD:unhandld.obj
 0001:000203b0       ?__CxxRestoreUnhandledExceptionFilter@@YAXXZ 004213b0 f   LIBCMTD:unhandld.obj
 0001:000203d0       ?_set_new_handler@@YAP6AHI@ZP6AHI@Z@Z 004213d0 f   LIBCMTD:handler.obj
 0001:00020400       ?_query_new_handler@@YAP6AHI@ZXZ 00421400 f   LIBCMTD:handler.obj
 0001:00020410       __callnewh                 00421410 f   LIBCMTD:handler.obj
 0001:00020440       __malloc_base              00421440 f   LIBCMTD:malloc.obj
 0001:00020460       __nh_malloc_base           00421460 f   LIBCMTD:malloc.obj
 0001:000204c0       __heap_alloc_base          004214c0 f   LIBCMTD:malloc.obj
 0001:00020530       __CrtDefaultAllocHook      00421530 f   LIBCMTD:dbghook.obj
 0001:00020540       __expand_base              00421540 f   LIBCMTD:expand.obj
 0001:000205f0       __realloc_base             004215f0 f   LIBCMTD:realloc.obj
 0001:000207e0       __heapchk                  004217e0 f   LIBCMTD:heapchk.obj
 0001:00020860       __heapset                  00421860 f   LIBCMTD:heapchk.obj
 0001:00020870       __heap_init                00421870 f   LIBCMTD:heapinit.obj
 0001:000208c0       __heap_term                004218c0 f   LIBCMTD:heapinit.obj
 0001:00020960       __get_sbh_threshold        00421960 f   LIBCMTD:sbheap.obj
 0001:00020970       __set_sbh_threshold        00421970 f   LIBCMTD:sbheap.obj
 0001:00020990       ___sbh_heap_init           00421990 f   LIBCMTD:sbheap.obj
 0001:000209f0       ___sbh_find_block          004219f0 f   LIBCMTD:sbheap.obj
 0001:00020a50       ___sbh_verify_block        00421a50 f   LIBCMTD:sbheap.obj
 0001:00020ab0       ___sbh_free_block          00421ab0 f   LIBCMTD:sbheap.obj
 0001:00021080       ___sbh_alloc_block         00422080 f   LIBCMTD:sbheap.obj
 0001:000215c0       ___sbh_alloc_new_region    004225c0 f   LIBCMTD:sbheap.obj
 0001:000216d0       ___sbh_alloc_new_group     004226d0 f   LIBCMTD:sbheap.obj
 0001:000218c0       ___sbh_resize_block        004228c0 f   LIBCMTD:sbheap.obj
 0001:00021eb0       ___sbh_heapmin             00422eb0 f   LIBCMTD:sbheap.obj
 0001:00021fe0       ___sbh_heap_check          00422fe0 f   LIBCMTD:sbheap.obj
 0001:00022600       __flsbuf                   00423600 f   LIBCMTD:_flsbuf.obj
 0001:00022880       __output                   00423880 f   LIBCMTD:output.obj
 0001:00023724       __except_handler3          00424724 f   LIBCMTD:exsup3.obj
 0001:000237e1       __seh_longjmp_unwind@4     004247e1 f   LIBCMTD:exsup3.obj
 0001:00023800       __dosmaperr                00424800 f   LIBCMTD:dosmap.obj
 0001:000238a0       __errno                    004248a0 f   LIBCMTD:dosmap.obj
 0001:000238b0       ___doserrno                004248b0 f   LIBCMTD:dosmap.obj
 0001:000238c0       __XcptFilter               004248c0 f   LIBCMTD:winxfltr.obj
 0001:00023ae0       __setenvp                  00424ae0 f   LIBCMTD:stdenvp.obj
 0001:00023c30       __setargv                  00424c30 f   LIBCMTD:stdargv.obj
 0001:00024140       ___crtGetEnvironmentStringsA 00425140 f   LIBCMTD:a_env.obj
 0001:00024360       __ioinit                   00425360 f   LIBCMTD:ioinit.obj
 0001:00024690       __ioterm                   00425690 f   LIBCMTD:ioinit.obj
 0001:00024730       __FF_MSGBANNER             00425730 f   LIBCMTD:crt0msg.obj
 0001:00024780       __NMSG_WRITE               00425780 f   LIBCMTD:crt0msg.obj
 0001:00024940       __GET_RTERRMSG             00425940 f   LIBCMTD:crt0msg.obj
 0001:00024990       __itoa                     00425990 f   LIBCMTD:xtoa.obj
 0001:00024ab0       __ltoa                     00425ab0 f   LIBCMTD:xtoa.obj
 0001:00024af0       __ultoa                    00425af0 f   LIBCMTD:xtoa.obj
 0001:00024b10       __i64toa                   00425b10 f   LIBCMTD:xtoa.obj
 0001:00024c60       __ui64toa                  00425c60 f   LIBCMTD:xtoa.obj
 0001:00024c80       __snprintf                 00425c80 f   LIBCMTD:snprintf.obj
 0001:00024d80       __vsnprintf                00425d80 f   LIBCMTD:vsnprint.obj
 0001:00024e80       _signal                    00425e80 f   LIBCMTD:winsig.obj
 0001:00025150       _raise                     00426150 f   LIBCMTD:winsig.obj
 0001:000253f0       ___fpecode                 004263f0 f   LIBCMTD:winsig.obj
 0001:00025400       ___pxcptinfoptrs           00426400 f   LIBCMTD:winsig.obj
 0001:00025410       ___crtMessageBoxA          00426410 f   LIBCMTD:crtmbox.obj
 0001:000254d0       _strncpy                   004264d0 f   LIBCMTD:strncpy.obj
 0001:000255d0       ?_ValidateRead@@YAHPBXI@Z  004265d0 f   LIBCMTD:validate.obj
 0001:00025600       ?_ValidateWrite@@YAHPAXI@Z 00426600 f   LIBCMTD:validate.obj
 0001:00025630       ?_ValidateExecute@@YAHP6GHXZ@Z 00426630 f   LIBCMTD:validate.obj
 0001:00025660       _abort                     00426660 f   LIBCMTD:abort.obj
 0001:00025680       ___init_time               00426680 f   LIBCMTD:inittime.obj
 0001:00026000       ___init_numeric            00427000 f   LIBCMTD:initnum.obj
 0001:00026330       ___init_monetary           00427330 f   LIBCMTD:initmon.obj
 0001:00026790       ___init_ctype              00427790 f   LIBCMTD:initctyp.obj
 0001:00026b30       ___init_collate            00427b30 f   LIBCMTD:initcoll.obj
 0001:00026b40       _strncmp                   00427b40 f   LIBCMTD:strncmp.obj
 0001:00026b80       _strpbrk                   00427b80 f   LIBCMTD:strpbrk.obj
 0001:00026bc0       ___get_qualified_locale    00427bc0 f   LIBCMTD:getqloc.obj
 0001:00027960       ___crtGetStringTypeA       00428960 f   LIBCMTD:a_str.obj
 0001:00027b20       __statusfp                 00428b20 f   LIBCMTD:ieee87.obj
 0001:00027b40       __clearfp                  00428b40 f   LIBCMTD:ieee87.obj
 0001:00027b60       __control87                00428b60 f   LIBCMTD:ieee87.obj
 0001:00027bb0       __controlfp                00428bb0 f   LIBCMTD:ieee87.obj
 0001:00027bd0       __fpreset                  00428bd0 f   LIBCMTD:ieee87.obj
 0001:00027fc0       __tolower                  00428fc0 f   LIBCMTD:tolower.obj
 0001:00027fd0       _tolower                   00428fd0 f   LIBCMTD:tolower.obj
 0001:00028070       __tolower_lk               00429070 f   LIBCMTD:tolower.obj
 0001:000281a0       __ZeroTail                 004291a0 f   LIBCMTD:intrncvt.obj
 0001:00028230       __IncMan                   00429230 f   LIBCMTD:intrncvt.obj
 0001:000282e0       __RoundMan                 004292e0 f   LIBCMTD:intrncvt.obj
 0001:000283c0       __CopyMan                  004293c0 f   LIBCMTD:intrncvt.obj
 0001:00028410       __FillZeroMan              00429410 f   LIBCMTD:intrncvt.obj
 0001:00028440       __IsZeroMan                00429440 f   LIBCMTD:intrncvt.obj
 0001:00028480       __ShrMan                   00429480 f   LIBCMTD:intrncvt.obj
 0001:00028570       __ld12cvt                  00429570 f   LIBCMTD:intrncvt.obj
 0001:000287c0       __ld12tod                  004297c0 f   LIBCMTD:intrncvt.obj
 0001:000287e0       __ld12tof                  004297e0 f   LIBCMTD:intrncvt.obj
 0001:00028800       __ld12told                 00429800 f   LIBCMTD:intrncvt.obj
 0001:000288c0       __atodbl                   004298c0 f   LIBCMTD:intrncvt.obj
 0001:00028900       __atoldbl                  00429900 f   LIBCMTD:intrncvt.obj
 0001:00028940       __atoflt                   00429940 f   LIBCMTD:intrncvt.obj
 0001:00028980       __fptostr                  00429980 f   LIBCMTD:_fptostr.obj
 0001:00028a80       __fltout2                  00429a80 f   LIBCMTD:cfout.obj
 0001:00028b00       ___dtold                   00429b00 f   LIBCMTD:cfout.obj
 0001:00028c70       __fptrap                   00429c70 f   LIBCMTD:crt0fp.obj
 0001:00028c80       __lseek                    00429c80 f   LIBCMTD:lseek.obj
 0001:00028d10       __lseek_lk                 00429d10 f   LIBCMTD:lseek.obj
 0001:00028dd0       __write                    00429dd0 f   LIBCMTD:write.obj
 0001:00028e60       __write_lk                 00429e60 f   LIBCMTD:write.obj
 0001:000290e0       __getbuf                   0042a0e0 f   LIBCMTD:_getbuf.obj
 0001:000291b0       __isatty                   0042a1b0 f   LIBCMTD:isatty.obj
 0001:000291f0       ___initstdio               0042a1f0 f   LIBCMTD:_file.obj
 0001:00029320       ___endstdio                0042a320 f   LIBCMTD:_file.obj
 0001:00029340       __lock_file                0042a340 f   LIBCMTD:_file.obj
 0001:00029380       __lock_file2               0042a380 f   LIBCMTD:_file.obj
 0001:000293b0       __unlock_file              0042a3b0 f   LIBCMTD:_file.obj
 0001:000293f0       __unlock_file2             0042a3f0 f   LIBCMTD:_file.obj
 0001:00029420       _wctomb                    0042a420 f   LIBCMTD:wctomb.obj
 0001:000294a0       __wctomb_lk                0042a4a0 f   LIBCMTD:wctomb.obj
 0001:00029540       __aullrem                  0042a540 f   LIBCMTD:ullrem.obj
 0001:000295c0       __setmbcp                  0042a5c0 f   LIBCMTD:mbctype.obj
 0001:00029d80       __getmbcp                  0042ad80 f   LIBCMTD:mbctype.obj
 0001:00029da0       ___initmbctable            0042ada0 f   LIBCMTD:mbctype.obj
 0001:00029dd0       __Getdays                  0042add0 f   LIBCMTD:strftime.obj
 0001:00029f00       __Getmonths                0042af00 f   LIBCMTD:strftime.obj
 0001:0002a030       __Gettnames                0042b030 f   LIBCMTD:strftime.obj
 0001:0002a3a0       _strftime                  0042b3a0 f   LIBCMTD:strftime.obj
 0001:0002a3c0       __Strftime                 0042b3c0 f   LIBCMTD:strftime.obj
 0001:0002b240       ___getlocaleinfo           0042c240 f   LIBCMTD:inithelp.obj
 0001:0002b4d0       ___crtGetStringTypeW       0042c4d0 f   LIBCMTD:w_str.obj
 0001:0002b740       __strcmpi                  0042c740 f   LIBCMTD:stricmp.obj
 0001:0002b740       __stricmp                  0042c740 f   LIBCMTD:stricmp.obj
 0001:0002b810       __strnicmp                 0042c810 f   LIBCMTD:strnicmp.obj
 0001:0002b920       _atol                      0042c920 f   LIBCMTD:atox.obj
 0001:0002ba20       _atoi                      0042ca20 f   LIBCMTD:atox.obj
 0001:0002ba40       __atoi64                   0042ca40 f   LIBCMTD:atox.obj
 0001:0002bb70       ___addl                    0042cb70 f   LIBCMTD:mantold.obj
 0001:0002bbb0       ___add_12                  0042cbb0 f   LIBCMTD:mantold.obj
 0001:0002bc60       ___shl_12                  0042cc60 f   LIBCMTD:mantold.obj
 0001:0002bcc0       ___shr_12                  0042ccc0 f   LIBCMTD:mantold.obj
 0001:0002bd30       ___mtold12                 0042cd30 f   LIBCMTD:mantold.obj
 0001:0002be70       ___strgtold12              0042ce70 f   LIBCMTD:strgtold.obj
 0001:0002c9a0       ___STRINGTOLD              0042d9a0 f   LIBCMTD:strgtold.obj
 0001:0002c9f0       _$I10_OUTPUT               0042d9f0 f   LIBCMTD:x10fout.obj
 0001:0002cf10       __alloc_osfhnd             0042df10 f   LIBCMTD:osfinfo.obj
 0001:0002d100       __set_osfhnd               0042e100 f   LIBCMTD:osfinfo.obj
 0001:0002d1c0       __free_osfhnd              0042e1c0 f   LIBCMTD:osfinfo.obj
 0001:0002d2a0       __get_osfhandle            0042e2a0 f   LIBCMTD:osfinfo.obj
 0001:0002d310       __open_osfhandle           0042e310 f   LIBCMTD:osfinfo.obj
 0001:0002d420       __lock_fhandle             0042e420 f   LIBCMTD:osfinfo.obj
 0001:0002d4b0       __unlock_fhandle           0042e4b0 f   LIBCMTD:osfinfo.obj
 0001:0002d4e0       __fcloseall                0042e4e0 f   LIBCMTD:closeall.obj
 0001:0002d5c0       _fflush                    0042e5c0 f   LIBCMTD:fflush.obj
 0001:0002d610       __fflush_lk                0042e610 f   LIBCMTD:fflush.obj
 0001:0002d660       __flush                    0042e660 f   LIBCMTD:fflush.obj
 0001:0002d720       __flushall                 0042e720 f   LIBCMTD:fflush.obj
 0001:0002d870       ___tzset                   0042e870 f   LIBCMTD:tzset.obj
 0001:0002d8b0       __tzset                    0042e8b0 f   LIBCMTD:tzset.obj
 0001:0002dc80       __isindst                  0042ec80 f   LIBCMTD:tzset.obj
 0001:0002e1b0       ___crtGetLocaleInfoW       0042f1b0 f   LIBCMTD:w_loc.obj
 0001:0002e350       ___crtGetLocaleInfoA       0042f350 f   LIBCMTD:a_loc.obj
 0001:0002e500       __allmul                   0042f500 f   LIBCMTD:llmul.obj
 0001:0002e540       ___ld12mul                 0042f540 f   LIBCMTD:tenpow.obj
 0001:0002e980       ___multtenpow12            0042f980 f   LIBCMTD:tenpow.obj
 0001:0002ea50       _fclose                    0042fa50 f   LIBCMTD:fclose.obj
 0001:0002eae0       __fclose_lk                0042fae0 f   LIBCMTD:fclose.obj
 0001:0002eba0       __commit                   0042fba0 f   LIBCMTD:commit.obj
 0001:0002ec80       _getenv                    0042fc80 f   LIBCMTD:getenv.obj
 0001:0002ecb0       __getenv_lk                0042fcb0 f   LIBCMTD:getenv.obj
 0001:0002ed80       __close                    0042fd80 f   LIBCMTD:close.obj
 0001:0002ee00       __close_lk                 0042fe00 f   LIBCMTD:close.obj
 0001:0002eeb0       __freebuf                  0042feb0 f   LIBCMTD:_freebuf.obj
 0001:0002ef50       __mbsnbicoll               0042ff50 f   LIBCMTD:mbsnbico.obj
 0001:0002efa0       ___wtomb_environ           0042ffa0 f   LIBCMTD:wtombenv.obj
 0001:0002f050       ___crtCompareStringA       00430050 f   LIBCMTD:a_cmp.obj
 0001:0002f4a0       ___crtsetenv               004304a0 f   LIBCMTD:setenv.obj
 0001:0002f8f0       __mbschr                   004308f0 f   LIBCMTD:mbschr.obj
 0001:0002f9f0       _strchr                    004309f0 f   LIBCMTD:strchr.obj
 0001:0002f9f6       ___from_strstr_to_strchr   004309f6 f   LIBCMTD:strchr.obj
 0001:0002fd50       ??0Init@ios_base@std@@QAE@XZ 00430d50 f   libcpmtd:iostream.obj
 0001:00030030       ?setf@ios_base@std@@QAEHH@Z 00431030 f i libcpmtd:iostream.obj
 0001:00030070       ??1Init@ios_base@std@@QAE@XZ 00431070 f   libcpmtd:iostream.obj
 0001:000300e0       ??0?$basic_ostream@DU?$char_traits@D@std@@@std@@QAE@W4_Uninitialized@1@@Z 004310e0 f i libcpmtd:iostream.obj
 0001:00030170       ?tie@?$basic_ios@DU?$char_traits@D@std@@@std@@QAEPAV?$basic_ostream@DU?$char_traits@D@std@@@2@PAV32@@Z 00431170 f i libcpmtd:iostream.obj
 0001:000301a0       ??0?$basic_istream@DU?$char_traits@D@std@@@std@@QAE@W4_Uninitialized@1@@Z 004311a0 f i libcpmtd:iostream.obj
 0001:00030230       ??0?$basic_filebuf@DU?$char_traits@D@std@@@std@@QAE@PAU_iobuf@@@Z 00431230 f i libcpmtd:iostream.obj
 0001:000302a0       ??0?$basic_filebuf@DU?$char_traits@D@std@@@std@@QAE@W4_Uninitialized@1@@Z 004312a0 f i libcpmtd:iostream.obj
 0001:00030300       ??1?$basic_filebuf@DU?$char_traits@D@std@@@std@@UAE@XZ 00431300 f i libcpmtd:iostream.obj
 0001:000303a0       ?overflow@?$basic_filebuf@DU?$char_traits@D@std@@@std@@MAEHH@Z 004313a0 f i libcpmtd:iostream.obj
 0001:000305b0       ?not_eof@?$char_traits@D@std@@SAHABH@Z 004315b0 f i libcpmtd:iostream.obj
 0001:000305e0       ?_Fputc@std@@YA_NDPAU_iobuf@@@Z 004315e0 f i libcpmtd:iostream.obj
 0001:00030600       ?pbackfail@?$basic_filebuf@DU?$char_traits@D@std@@@std@@MAEHH@Z 00431600 f i libcpmtd:iostream.obj
 0001:00030780       ?_Ungetc@std@@YA_NDPAU_iobuf@@@Z 00431780 f i libcpmtd:iostream.obj
 0001:000307b0       ?underflow@?$basic_filebuf@DU?$char_traits@D@std@@@std@@MAEHXZ 004317b0 f i libcpmtd:iostream.obj
 0001:00030810       ?uflow@?$basic_filebuf@DU?$char_traits@D@std@@@std@@MAEHXZ 00431810 f i libcpmtd:iostream.obj
 0001:000309b0       ?_Fgetc@std@@YA_NAADPAU_iobuf@@@Z 004319b0 f i libcpmtd:iostream.obj
 0001:000309e0       ?seekoff@?$basic_filebuf@DU?$char_traits@D@std@@@std@@MAE?AV?$fpos@H@2@JW4seekdir@ios_base@2@H@Z 004319e0 f i libcpmtd:iostream.obj
 0001:00030a70       ?seekpos@?$basic_filebuf@DU?$char_traits@D@std@@@std@@MAE?AV?$fpos@H@2@V32@H@Z 00431a70 f i libcpmtd:iostream.obj
 0001:00030b70       ?setbuf@?$basic_filebuf@DU?$char_traits@D@std@@@std@@MAEPAV?$basic_streambuf@DU?$char_traits@D@std@@@2@PADH@Z 00431b70 f i libcpmtd:iostream.obj
 0001:00030bc0       ?sync@?$basic_filebuf@DU?$char_traits@D@std@@@std@@MAEHXZ 00431bc0 f i libcpmtd:iostream.obj
 0001:00030c00       ??_E?$basic_filebuf@DU?$char_traits@D@std@@@std@@UAEPAXI@Z 00431c00 f i libcpmtd:iostream.obj
 0001:00030c00       ??_G?$basic_filebuf@DU?$char_traits@D@std@@@std@@UAEPAXI@Z 00431c00 f i libcpmtd:iostream.obj
 0001:00030c30       ?begin@?$basic_string@DU?$char_traits@D@std@@V?$allocator@D@2@@std@@QAEPADXZ 00431c30 f i libcpmtd:iostream.obj
 0001:00030c50       ?end@?$basic_string@DU?$char_traits@D@std@@V?$allocator@D@2@@std@@QAEPADXZ 00431c50 f i libcpmtd:iostream.obj
 0001:00030c80       ??0?$fpos@H@std@@QAE@H_J@Z 00431c80 f i libcpmtd:iostream.obj
 0001:00030cc0       ?state@?$fpos@H@std@@QBEHXZ 00431cc0 f i libcpmtd:iostream.obj
 0001:00030ce0       ?get_fpos_t@?$fpos@H@std@@QBE_JXZ 00431ce0 f i libcpmtd:iostream.obj
 0001:00030d00       ??B?$fpos@H@std@@QBEJXZ    00431d00 f i libcpmtd:iostream.obj
 0001:00030d20       ??0?$basic_streambuf@DU?$char_traits@D@std@@@std@@IAE@W4_Uninitialized@1@@Z 00431d20 f i libcpmtd:iostream.obj
 0001:00030d50       ?eback@?$basic_streambuf@DU?$char_traits@D@std@@@std@@IBEPADXZ 00431d50 f i libcpmtd:iostream.obj
 0001:00030d70       ?_Gndec@?$basic_streambuf@DU?$char_traits@D@std@@@std@@IAEPADXZ 00431d70 f i libcpmtd:iostream.obj
 0001:00030db0       ?close@?$basic_filebuf@DU?$char_traits@D@std@@@std@@QAEPAV12@XZ 00431db0 f i libcpmtd:iostream.obj
 0001:00030df0       ?_Init@?$basic_filebuf@DU?$char_traits@D@std@@@std@@IAEXPAU_iobuf@@W4_Initfl@12@@Z 00431df0 f i libcpmtd:iostream.obj
 0001:00030ed0       ?in@?$codecvt@DDH@std@@QBEHAAHPBD1AAPBDPAD3AAPAD@Z 00431ed0 f i libcpmtd:iostream.obj
 0001:00030f10       ?out@?$codecvt@DDH@std@@QBEHAAHPBD1AAPBDPAD3AAPAD@Z 00431f10 f i libcpmtd:iostream.obj
 0001:00030f50       ?_Init@?$basic_streambuf@DU?$char_traits@D@std@@@std@@IAEXPAPAD0PAH001@Z 00431f50 f i libcpmtd:iostream.obj
 0001:00030fa0       ?_Ungetc@std@@YA_NABDPAU_iobuf@@I@Z 00431fa0 f i libcpmtd:iostream.obj
 0001:00031060       ?id@?$collate@D@std@@$D    00432060 f i libcpmtd:iostream.obj
 0001:000310b0       ?id@?$collate@D@std@@$E    004320b0 f i libcpmtd:iostream.obj
 0001:000312e0       ??_D?$basic_istream@GU?$char_traits@G@std@@@std@@QAEXXZ 004322e0 f i libcpmtd:wiostrea.obj
 0001:00031370       ??_D?$basic_ostream@GU?$char_traits@G@std@@@std@@QAEXXZ 00432370 f i libcpmtd:wiostrea.obj
 0001:00031460       ??0_Winit@std@@QAE@XZ      00432460 f   libcpmtd:wiostrea.obj
 0001:00031740       ??1_Winit@std@@QAE@XZ      00432740 f   libcpmtd:wiostrea.obj
 0001:000317b0       ??0?$basic_ostream@GU?$char_traits@G@std@@@std@@QAE@PAV?$basic_streambuf@GU?$char_traits@G@std@@@1@_N1@Z 004327b0 f i libcpmtd:wiostrea.obj
 0001:00031860       ??0?$basic_ostream@GU?$char_traits@G@std@@@std@@QAE@W4_Uninitialized@1@@Z 00432860 f i libcpmtd:wiostrea.obj
 0001:000318f0       ??1?$basic_ostream@GU?$char_traits@G@std@@@std@@UAE@XZ 004328f0 f i libcpmtd:wiostrea.obj
 0001:00031910       ?flush@?$basic_ostream@GU?$char_traits@G@std@@@std@@QAEAAV12@XZ 00432910 f i libcpmtd:wiostrea.obj
 0001:00031980       ??1?$basic_ios@GU?$char_traits@G@std@@@std@@UAE@XZ 00432980 f i libcpmtd:wiostrea.obj
 0001:000319a0       ?setstate@?$basic_ios@GU?$char_traits@G@std@@@std@@QAEXH_N@Z 004329a0 f i libcpmtd:wiostrea.obj
 0001:000319d0       ?tie@?$basic_ios@GU?$char_traits@G@std@@@std@@QAEPAV?$basic_ostream@GU?$char_traits@G@std@@@2@PAV32@@Z 004329d0 f i libcpmtd:wiostrea.obj
 0001:00031a00       ?rdbuf@?$basic_ios@GU?$char_traits@G@std@@@std@@QBEPAV?$basic_streambuf@GU?$char_traits@G@std@@@2@XZ 00432a00 f i libcpmtd:wiostrea.obj
 0001:00031a20       ??0?$basic_istream@GU?$char_traits@G@std@@@std@@QAE@PAV?$basic_streambuf@GU?$char_traits@G@std@@@1@_N@Z 00432a20 f i libcpmtd:wiostrea.obj
 0001:00031ac0       ??0?$basic_istream@GU?$char_traits@G@std@@@std@@QAE@W4_Uninitialized@1@@Z 00432ac0 f i libcpmtd:wiostrea.obj
 0001:00031b50       ??1?$basic_istream@GU?$char_traits@G@std@@@std@@UAE@XZ 00432b50 f i libcpmtd:wiostrea.obj
 0001:00031b70       ??0?$basic_filebuf@GU?$char_traits@G@std@@@std@@QAE@PAU_iobuf@@@Z 00432b70 f i libcpmtd:wiostrea.obj
 0001:00031be0       ??1?$basic_streambuf@GU?$char_traits@G@std@@@std@@UAE@XZ 00432be0 f i libcpmtd:wiostrea.obj
 0001:00031c00       ?overflow@?$basic_streambuf@GU?$char_traits@G@std@@@std@@MAEGG@Z 00432c00 f i libcpmtd:wiostrea.obj
 0001:00031c20       ?eof@?$char_traits@G@std@@SAGXZ 00432c20 f i libcpmtd:wiostrea.obj
 0001:00031c30       ?pbackfail@?$basic_streambuf@GU?$char_traits@G@std@@@std@@MAEGG@Z 00432c30 f i libcpmtd:wiostrea.obj
 0001:00031c50       ?showmanyc@?$basic_streambuf@GU?$char_traits@G@std@@@std@@MAEHXZ 00432c50 f i libcpmtd:wiostrea.obj
 0001:00031c60       ?underflow@?$basic_streambuf@GU?$char_traits@G@std@@@std@@MAEGXZ 00432c60 f i libcpmtd:wiostrea.obj
 0001:00031c70       ?uflow@?$basic_streambuf@GU?$char_traits@G@std@@@std@@MAEGXZ 00432c70 f i libcpmtd:wiostrea.obj
 0001:00031ce0       ?to_int_type@?$char_traits@G@std@@SAGABG@Z 00432ce0 f i libcpmtd:wiostrea.obj
 0001:00031cf0       ?eq_int_type@?$char_traits@G@std@@SA_NABG0@Z 00432cf0 f i libcpmtd:wiostrea.obj
 0001:00031d10       ?xsgetn@?$basic_streambuf@GU?$char_traits@G@std@@@std@@MAEHPAGH@Z 00432d10 f i libcpmtd:wiostrea.obj
 0001:00031e20       ?copy@?$char_traits@G@std@@SAPAGPAGPBGI@Z 00432e20 f i libcpmtd:wiostrea.obj
 0001:00031e40       _wmemcpy                   00432e40 f i libcpmtd:wiostrea.obj
 0001:00031e90       ?to_char_type@?$char_traits@G@std@@SAGABG@Z 00432e90 f i libcpmtd:wiostrea.obj
 0001:00031ea0       ?xsputn@?$basic_streambuf@GU?$char_traits@G@std@@@std@@MAEHPBGH@Z 00432ea0 f i libcpmtd:wiostrea.obj
 0001:00031fb0       ?seekoff@?$basic_streambuf@GU?$char_traits@G@std@@@std@@MAE?AV?$fpos@H@2@JW4seekdir@ios_base@2@H@Z 00432fb0 f i libcpmtd:wiostrea.obj
 0001:00031fe0       ?seekpos@?$basic_streambuf@GU?$char_traits@G@std@@@std@@MAE?AV?$fpos@H@2@V32@H@Z 00432fe0 f i libcpmtd:wiostrea.obj
 0001:00032010       ?setbuf@?$basic_streambuf@GU?$char_traits@G@std@@@std@@MAEPAV12@PAGH@Z 00433010 f i libcpmtd:wiostrea.obj
 0001:00032020       ?sync@?$basic_streambuf@GU?$char_traits@G@std@@@std@@MAEHXZ 00433020 f i libcpmtd:wiostrea.obj
 0001:00032030       ?imbue@?$basic_streambuf@GU?$char_traits@G@std@@@std@@MAEXABVlocale@2@@Z 00433030 f i libcpmtd:wiostrea.obj
 0001:00032040       ??0?$basic_filebuf@GU?$char_traits@G@std@@@std@@QAE@W4_Uninitialized@1@@Z 00433040 f i libcpmtd:wiostrea.obj
 0001:000320a0       ??1?$basic_filebuf@GU?$char_traits@G@std@@@std@@UAE@XZ 004330a0 f i libcpmtd:wiostrea.obj
 0001:00032140       ?overflow@?$basic_filebuf@GU?$char_traits@G@std@@@std@@MAEGG@Z 00433140 f i libcpmtd:wiostrea.obj
 0001:00032360       ?not_eof@?$char_traits@G@std@@SAGABG@Z 00433360 f i libcpmtd:wiostrea.obj
 0001:000323b0       ?out@?$codecvt@GDH@std@@QBEHAAHPBG1AAPBGPAD3AAPAD@Z 004333b0 f i libcpmtd:wiostrea.obj
 0001:000323f0       ?_Fputc@std@@YA_NGPAU_iobuf@@@Z 004333f0 f i libcpmtd:wiostrea.obj
 0001:00032420       ?pbackfail@?$basic_filebuf@GU?$char_traits@G@std@@@std@@MAEGG@Z 00433420 f i libcpmtd:wiostrea.obj
 0001:000325b0       ?_Ungetc@std@@YA_NGPAU_iobuf@@@Z 004335b0 f i libcpmtd:wiostrea.obj
 0001:000325e0       ?underflow@?$basic_filebuf@GU?$char_traits@G@std@@@std@@MAEGXZ 004335e0 f i libcpmtd:wiostrea.obj
 0001:00032640       ?uflow@?$basic_filebuf@GU?$char_traits@G@std@@@std@@MAEGXZ 00433640 f i libcpmtd:wiostrea.obj
 0001:000327e0       ?in@?$codecvt@GDH@std@@QBEHAAHPBD1AAPBDPAG3AAPAG@Z 004337e0 f i libcpmtd:wiostrea.obj
 0001:00032820       ?_Fgetc@std@@YA_NAAGPAU_iobuf@@@Z 00433820 f i libcpmtd:wiostrea.obj
 0001:00032860       ?seekoff@?$basic_filebuf@GU?$char_traits@G@std@@@std@@MAE?AV?$fpos@H@2@JW4seekdir@ios_base@2@H@Z 00433860 f i libcpmtd:wiostrea.obj
 0001:000328f0       ?seekpos@?$basic_filebuf@GU?$char_traits@G@std@@@std@@MAE?AV?$fpos@H@2@V32@H@Z 004338f0 f i libcpmtd:wiostrea.obj
 0001:000329f0       ?setbuf@?$basic_filebuf@GU?$char_traits@G@std@@@std@@MAEPAV?$basic_streambuf@GU?$char_traits@G@std@@@2@PAGH@Z 004339f0 f i libcpmtd:wiostrea.obj
 0001:00032a40       ?sync@?$basic_filebuf@GU?$char_traits@G@std@@@std@@MAEHXZ 00433a40 f i libcpmtd:wiostrea.obj
 0001:00032a80       ??_G?$basic_ostream@GU?$char_traits@G@std@@@std@@UAEPAXI@Z 00433a80 f i libcpmtd:wiostrea.obj
 0001:00032a80       ??_E?$basic_ostream@GU?$char_traits@G@std@@@std@@UAEPAXI@Z 00433a80 f i libcpmtd:wiostrea.obj
 0001:00032ac0       ??_G?$basic_ios@GU?$char_traits@G@std@@@std@@UAEPAXI@Z 00433ac0 f i libcpmtd:wiostrea.obj
 0001:00032ac0       ??_E?$basic_ios@GU?$char_traits@G@std@@@std@@UAEPAXI@Z 00433ac0 f i libcpmtd:wiostrea.obj
 0001:00032af0       ??_E?$basic_istream@GU?$char_traits@G@std@@@std@@UAEPAXI@Z 00433af0 f i libcpmtd:wiostrea.obj
 0001:00032af0       ??_G?$basic_istream@GU?$char_traits@G@std@@@std@@UAEPAXI@Z 00433af0 f i libcpmtd:wiostrea.obj
 0001:00032b30       ??_G?$basic_streambuf@GU?$char_traits@G@std@@@std@@UAEPAXI@Z 00433b30 f i libcpmtd:wiostrea.obj
 0001:00032b30       ??_E?$basic_streambuf@GU?$char_traits@G@std@@@std@@UAEPAXI@Z 00433b30 f i libcpmtd:wiostrea.obj
 0001:00032b60       ??_G?$basic_filebuf@GU?$char_traits@G@std@@@std@@UAEPAXI@Z 00433b60 f i libcpmtd:wiostrea.obj
 0001:00032b60       ??_E?$basic_filebuf@GU?$char_traits@G@std@@@std@@UAEPAXI@Z 00433b60 f i libcpmtd:wiostrea.obj
 0001:00032b90       ?clear@?$basic_ios@GU?$char_traits@G@std@@@std@@QAEXH_N@Z 00433b90 f i libcpmtd:wiostrea.obj
 0001:00032bd0       ?init@?$basic_ios@GU?$char_traits@G@std@@@std@@IAEXPAV?$basic_streambuf@GU?$char_traits@G@std@@@2@_N@Z 00433bd0 f i libcpmtd:wiostrea.obj
 0001:00032c40       ?_Widen@std@@YAGDPAG@Z     00433c40 f i libcpmtd:wiostrea.obj
 0001:00032c60       ??0?$basic_ios@GU?$char_traits@G@std@@@std@@IAE@XZ 00433c60 f i libcpmtd:wiostrea.obj
 0001:00032c80       ??0?$basic_streambuf@GU?$char_traits@G@std@@@std@@IAE@XZ 00433c80 f i libcpmtd:wiostrea.obj
 0001:00032ce0       ??0?$basic_streambuf@GU?$char_traits@G@std@@@std@@IAE@W4_Uninitialized@1@@Z 00433ce0 f i libcpmtd:wiostrea.obj
 0001:00032d10       ?pubsync@?$basic_streambuf@GU?$char_traits@G@std@@@std@@QAEHXZ 00433d10 f i libcpmtd:wiostrea.obj
 0001:00032d30       ?eback@?$basic_streambuf@GU?$char_traits@G@std@@@std@@IBEPAGXZ 00433d30 f i libcpmtd:wiostrea.obj
 0001:00032d50       ?gptr@?$basic_streambuf@GU?$char_traits@G@std@@@std@@IBEPAGXZ 00433d50 f i libcpmtd:wiostrea.obj
 0001:00032d70       ?pptr@?$basic_streambuf@GU?$char_traits@G@std@@@std@@IBEPAGXZ 00433d70 f i libcpmtd:wiostrea.obj
 0001:00032d90       ?egptr@?$basic_streambuf@GU?$char_traits@G@std@@@std@@IBEPAGXZ 00433d90 f i libcpmtd:wiostrea.obj
 0001:00032db0       ?gbump@?$basic_streambuf@GU?$char_traits@G@std@@@std@@IAEXH@Z 00433db0 f i libcpmtd:wiostrea.obj
 0001:00032df0       ?epptr@?$basic_streambuf@GU?$char_traits@G@std@@@std@@IBEPAGXZ 00433df0 f i libcpmtd:wiostrea.obj
 0001:00032e10       ?_Gndec@?$basic_streambuf@GU?$char_traits@G@std@@@std@@IAEPAGXZ 00433e10 f i libcpmtd:wiostrea.obj
 0001:00032e50       ?_Gninc@?$basic_streambuf@GU?$char_traits@G@std@@@std@@IAEPAGXZ 00433e50 f i libcpmtd:wiostrea.obj
 0001:00032e90       ?pbump@?$basic_streambuf@GU?$char_traits@G@std@@@std@@IAEXH@Z 00433e90 f i libcpmtd:wiostrea.obj
 0001:00032ed0       ?_Pninc@?$basic_streambuf@GU?$char_traits@G@std@@@std@@IAEPAGXZ 00433ed0 f i libcpmtd:wiostrea.obj
 0001:00032f10       ?close@?$basic_filebuf@GU?$char_traits@G@std@@@std@@QAEPAV12@XZ 00433f10 f i libcpmtd:wiostrea.obj
 0001:00032f50       ?_Init@?$basic_filebuf@GU?$char_traits@G@std@@@std@@IAEXPAU_iobuf@@W4_Initfl@12@@Z 00433f50 f i libcpmtd:wiostrea.obj
 0001:00033030       ?_Init@?$basic_streambuf@GU?$char_traits@G@std@@@std@@IAEXXZ 00434030 f i libcpmtd:wiostrea.obj
 0001:000330a0       ?_Init@?$basic_streambuf@GU?$char_traits@G@std@@@std@@IAEXPAPAG0PAH001@Z 004340a0 f i libcpmtd:wiostrea.obj
 0001:000330f0       ?setg@?$basic_streambuf@GU?$char_traits@G@std@@@std@@IAEXPAG00@Z 004340f0 f i libcpmtd:wiostrea.obj
 0001:00033130       ?setp@?$basic_streambuf@GU?$char_traits@G@std@@@std@@IAEXPAG0@Z 00434130 f i libcpmtd:wiostrea.obj
 0001:000331d0       ?_Xlen@std@@YAXXZ          004341d0 f   libcpmtd:string.obj
 0001:00033230       ??0logic_error@std@@QAE@ABV01@@Z 00434230 f i libcpmtd:string.obj
 0001:000332a0       ?what@logic_error@std@@UBEPBDXZ 004342a0 f i libcpmtd:string.obj
 0001:000332c0       ?_Doraise@logic_error@std@@MBEXXZ 004342c0 f i libcpmtd:string.obj
 0001:000332f0       ??1logic_error@std@@UAE@XZ 004342f0 f i libcpmtd:string.obj
 0001:00033350       ??_Glogic_error@std@@UAEPAXI@Z 00434350 f i libcpmtd:string.obj
 0001:00033350       ??_Elogic_error@std@@UAEPAXI@Z 00434350 f i libcpmtd:string.obj
 0001:00033380       ??0length_error@std@@QAE@ABV?$basic_string@DU?$char_traits@D@std@@V?$allocator@D@2@@1@@Z 00434380 f i libcpmtd:string.obj
 0001:000333b0       ??0logic_error@std@@QAE@ABV?$basic_string@DU?$char_traits@D@std@@V?$allocator@D@2@@1@@Z 004343b0 f i libcpmtd:string.obj
 0001:00033420       ??1length_error@std@@UAE@XZ 00434420 f i libcpmtd:string.obj
 0001:00033440       ?_Doraise@length_error@std@@MBEXXZ 00434440 f i libcpmtd:string.obj
 0001:00033470       ??_Glength_error@std@@UAEPAXI@Z 00434470 f i libcpmtd:string.obj
 0001:00033470       ??_Elength_error@std@@UAEPAXI@Z 00434470 f i libcpmtd:string.obj
 0001:000334a0       ??0length_error@std@@QAE@ABV01@@Z 004344a0 f i libcpmtd:string.obj
 0001:000334d0       ?_Xran@std@@YAXXZ          004344d0 f   libcpmtd:string.obj
 0001:00033530       ??0out_of_range@std@@QAE@ABV?$basic_string@DU?$char_traits@D@std@@V?$allocator@D@2@@1@@Z 00434530 f i libcpmtd:string.obj
 0001:00033560       ??1out_of_range@std@@UAE@XZ 00434560 f i libcpmtd:string.obj
 0001:00033580       ?_Doraise@out_of_range@std@@MBEXXZ 00434580 f i libcpmtd:string.obj
 0001:000335b0       ??_Gout_of_range@std@@UAEPAXI@Z 004345b0 f i libcpmtd:string.obj
 0001:000335b0       ??_Eout_of_range@std@@UAEPAXI@Z 004345b0 f i libcpmtd:string.obj
 0001:000335e0       ??0out_of_range@std@@QAE@ABV01@@Z 004345e0 f i libcpmtd:string.obj
 0001:00033670       ??1istrstream@std@@UAE@XZ  00434670 f   libcpmtd:strstrea.obj
 0001:000336e0       ??_Gistrstream@std@@UAEPAXI@Z 004346e0 f i libcpmtd:strstrea.obj
 0001:000336e0       ??_Eistrstream@std@@UAEPAXI@Z 004346e0 f i libcpmtd:strstrea.obj
 0001:00033720       ??_Distrstream@std@@QAEXXZ 00434720 f i libcpmtd:strstrea.obj
 0001:00033750       ??0ostrstream@std@@QAE@PADHH@Z 00434750 f   libcpmtd:strstrea.obj
 0001:00033830       ??0strstreambuf@std@@QAE@PADH0@Z 00434830 f i libcpmtd:strstrea.obj
 0001:000338a0       ??_Gostrstream@std@@UAEPAXI@Z 004348a0 f i libcpmtd:strstrea.obj
 0001:000338a0       ??_Eostrstream@std@@UAEPAXI@Z 004348a0 f i libcpmtd:strstrea.obj
 0001:000338e0       ??_Dostrstream@std@@QAEXXZ 004348e0 f i libcpmtd:strstrea.obj
 0001:00033910       ??1ostrstream@std@@UAE@XZ  00434910 f   libcpmtd:strstrea.obj
 0001:00033980       ??0strstream@std@@QAE@PADHH@Z 00434980 f   libcpmtd:strstrea.obj
 0001:00033a60       ??1strstream@std@@UAE@XZ   00434a60 f   libcpmtd:strstrea.obj
 0001:00033ad0       ??1strstreambuf@std@@UAE@XZ 00434ad0 f   libcpmtd:strstrea.obj
 0001:00033b30       ?freeze@strstreambuf@std@@QAEX_N@Z 00434b30 f   libcpmtd:strstrea.obj
 0001:00033bf0       ?overflow@strstreambuf@std@@MAEHH@Z 00434bf0 f   libcpmtd:strstrea.obj
 0001:00033e60       ?pbackfail@strstreambuf@std@@MAEHH@Z 00434e60 f   libcpmtd:strstrea.obj
 0001:00033f00       ?underflow@strstreambuf@std@@MAEHXZ 00434f00 f   libcpmtd:strstrea.obj
 0001:00033fd0       ?seekoff@strstreambuf@std@@MAE?AV?$fpos@H@2@JW4seekdir@ios_base@2@H@Z 00434fd0 f   libcpmtd:strstrea.obj
 0001:000341f0       ?seekpos@strstreambuf@std@@MAE?AV?$fpos@H@2@V32@H@Z 004351f0 f   libcpmtd:strstrea.obj
 0001:00034360       ?_Init@strstreambuf@std@@IAEXHPAD0H@Z 00435360 f   libcpmtd:strstrea.obj
 0001:000344a0       ?_Tidy@strstreambuf@std@@IAEXXZ 004354a0 f   libcpmtd:strstrea.obj
 0001:00034510       ?pbase@?$basic_streambuf@DU?$char_traits@D@std@@@std@@IBEPADXZ 00435510 f i libcpmtd:strstrea.obj
 0001:00034530       ?setp@?$basic_streambuf@DU?$char_traits@D@std@@@std@@IAEXPAD00@Z 00435530 f i libcpmtd:strstrea.obj
 0001:000345d0       ??0_Lockit@std@@QAE@XZ     004355d0 f   libcpmtd:xlock.obj
 0001:000346b0       ??1_Lockit@std@@QAE@XZ     004356b0 f   libcpmtd:xlock.obj
 0001:000346d0       ?clear@ios_base@std@@QAEXH_N@Z 004356d0 f   libcpmtd:ios.obj
 0001:000347b0       ??0runtime_error@std@@QAE@ABV01@@Z 004357b0 f i libcpmtd:ios.obj
 0001:00034820       ?what@runtime_error@std@@UBEPBDXZ 00435820 f i libcpmtd:ios.obj
 0001:00034840       ?_Doraise@runtime_error@std@@MBEXXZ 00435840 f i libcpmtd:ios.obj
 0001:00034870       ??1runtime_error@std@@UAE@XZ 00435870 f i libcpmtd:ios.obj
 0001:000348d0       ??_Gruntime_error@std@@UAEPAXI@Z 004358d0 f i libcpmtd:ios.obj
 0001:000348d0       ??_Eruntime_error@std@@UAEPAXI@Z 004358d0 f i libcpmtd:ios.obj
 0001:00034900       ??0failure@ios_base@std@@QAE@ABV?$basic_string@DU?$char_traits@D@std@@V?$allocator@D@2@@2@@Z 00435900 f i libcpmtd:ios.obj
 0001:00034930       ??0runtime_error@std@@QAE@ABV?$basic_string@DU?$char_traits@D@std@@V?$allocator@D@2@@1@@Z 00435930 f i libcpmtd:ios.obj
 0001:000349a0       ??1failure@ios_base@std@@UAE@XZ 004359a0 f i libcpmtd:ios.obj
 0001:000349c0       ?_Doraise@failure@ios_base@std@@MBEXXZ 004359c0 f i libcpmtd:ios.obj
 0001:000349f0       ??_Gfailure@ios_base@std@@UAEPAXI@Z 004359f0 f i libcpmtd:ios.obj
 0001:000349f0       ??_Efailure@ios_base@std@@UAEPAXI@Z 004359f0 f i libcpmtd:ios.obj
 0001:00034a20       ??0failure@ios_base@std@@QAE@ABV012@@Z 00435a20 f i libcpmtd:ios.obj
 0001:00034a50       ?copyfmt@ios_base@std@@QAEAAV12@ABV12@@Z 00435a50 f   libcpmtd:ios.obj
 0001:00034b30       ??4locale@std@@QAEAAV01@ABV01@@Z 00435b30 f i libcpmtd:ios.obj
 0001:00034ba0       ?exceptions@ios_base@std@@QAEXH@Z 00435ba0 f i libcpmtd:ios.obj
 0001:00034bd0       ?iword@ios_base@std@@QAEAAJH@Z 00435bd0 f i libcpmtd:ios.obj
 0001:00034bf0       ?pword@ios_base@std@@QAEAAPAXH@Z 00435bf0 f i libcpmtd:ios.obj
 0001:00034c10       ?imbue@ios_base@std@@QAE?AVlocale@2@ABV32@@Z 00435c10 f   libcpmtd:ios.obj
 0001:00034ca0       ?register_callback@ios_base@std@@QAEXP6AXW4event@12@AAV12@H@ZH@Z 00435ca0 f   libcpmtd:ios.obj
 0001:00034d30       ??0_Fnarray@ios_base@std@@QAE@HP6AXW4event@12@AAV12@H@ZPAU012@@Z 00435d30 f i libcpmtd:ios.obj
 0001:00034d60       ??1ios_base@std@@UAE@XZ    00435d60 f   libcpmtd:ios.obj
 0001:00034df0       ?_Callfns@ios_base@std@@AAEXW4event@12@@Z 00435df0 f   libcpmtd:ios.obj
 0001:00034e40       ?_Findarr@ios_base@std@@AAEAAU_Iosarray@12@H@Z 00435e40 f   libcpmtd:ios.obj
 0001:00034f70       ??0_Iosarray@ios_base@std@@QAE@HPAU012@@Z 00435f70 f i libcpmtd:ios.obj
 0001:00034fb0       ?_Addstd@ios_base@std@@IAEXXZ 00435fb0 f   libcpmtd:ios.obj
 0001:00035040       ?_Init@ios_base@std@@IAEXXZ 00436040 f   libcpmtd:ios.obj
 0001:000350d0       ?_Tidy@ios_base@std@@AAEXXZ 004360d0 f   libcpmtd:ios.obj
 0001:00035170       ?uncaught_exception@std@@YA_NXZ 00436170 f   libcpmtd:uncaught.obj
 0001:000351e0       ?classic@locale@std@@SAABV12@XZ 004361e0 f   libcpmtd:locale0.obj
 0001:00035210       ?empty@locale@std@@SA?AV12@XZ 00436210 f   libcpmtd:locale0.obj
 0001:000352a0       ??0locale@std@@AAE@PAV_Locimp@01@@Z 004362a0 f i libcpmtd:locale0.obj
 0001:000352c0       ?_Getfacet@locale@std@@QBEPBVfacet@12@I_N@Z 004362c0 f   libcpmtd:locale0.obj
 0001:00035370       ?_Iscloc@locale@std@@QBE_NXZ 00436370 f   libcpmtd:locale0.obj
 0001:000353d0       ??8locale@std@@QBE_NABV01@@Z 004363d0 f   libcpmtd:locale0.obj
 0001:000354f0       ?name@locale@std@@QBE?AV?$basic_string@DU?$char_traits@D@std@@V?$allocator@D@2@@2@XZ 004364f0 f i libcpmtd:locale0.obj
 0001:00035530       ?_Init@locale@std@@CAPAV_Locimp@12@XZ 00436530 f   libcpmtd:locale0.obj
 0001:00035660       ?_Tidy@locale@std@@CAXXZ   00436660 f   libcpmtd:locale0.obj
 0001:000356f0       ??0_Locimp@locale@std@@AAE@_N@Z 004366f0 f   libcpmtd:locale0.obj
 0001:00035780       ??_E_Locimp@locale@std@@UAEPAXI@Z 00436780 f i libcpmtd:locale0.obj
 0001:00035780       ??_G_Locimp@locale@std@@UAEPAXI@Z 00436780 f i libcpmtd:locale0.obj
 0001:000357b0       ??1_Locimp@locale@std@@UAE@XZ 004367b0 f   libcpmtd:locale0.obj
 0001:000358a0       ?compare@?$basic_string@DU?$char_traits@D@std@@V?$allocator@D@2@@std@@QBEHPBD@Z 004368a0 f i libcpmtd:locale0.obj
 0001:00035930       ??0locale@std@@QAE@ABV01@0H@Z 00436930 f   libcpmtd:locale.obj
 0001:00035a20       ??0locale@std@@QAE@PBDH@Z  00436a20 f   libcpmtd:locale.obj
 0001:00035b90       ?_Getname@_Locinfo@std@@QBE?AV?$basic_string@DU?$char_traits@D@std@@V?$allocator@D@2@@2@XZ 00436b90 f i libcpmtd:locale.obj
 0001:00035bd0       ??0locale@std@@QAE@ABV01@PBDH@Z 00436bd0 f   libcpmtd:locale.obj
 0001:00035d60       ?_Addfac@locale@std@@QAEAAV12@PAVfacet@12@II@Z 00436d60 f   libcpmtd:locale.obj
 0001:00035e20       ?global@locale@std@@SA?AV12@ABV12@@Z 00436e20 f   libcpmtd:locale.obj
 0001:00035fa0       ?_Makeloc@_Locimp@locale@std@@CAPAV123@ABV_Locinfo@3@HPAV123@PBV23@@Z 00436fa0 f   libcpmtd:locale.obj
 0001:00036360       ??0?$ctype@D@std@@QAE@ABV_Locinfo@1@I@Z 00437360 f i libcpmtd:locale.obj
 0001:000363c0       ?_Getcat@?$ctype@D@std@@SAIXZ 004373c0 f i libcpmtd:locale.obj
 0001:000363d0       ??0_Locimp@locale@std@@AAE@ABV012@@Z 004373d0 f   libcpmtd:locale.obj
 0001:00036560       ?_Addfac@_Locimp@locale@std@@AAEXPAVfacet@23@I@Z 00437560 f   libcpmtd:locale.obj
 0001:00036690       ??0_Locinfo@std@@QAE@PBD@Z 00437690 f   libcpmtd:locale.obj
 0001:00036770       ??0_Locinfo@std@@QAE@HPBD@Z 00437770 f   libcpmtd:locale.obj
 0001:00036810       ??1_Locinfo@std@@QAE@XZ    00437810 f   libcpmtd:locale.obj
 0001:000368b0       ?_Addcats@_Locinfo@std@@QAEAAV12@HPBD@Z 004378b0 f   libcpmtd:locale.obj
 0001:00036960       ??0?$codecvt@DDH@std@@QAE@ABV_Locinfo@1@I@Z 00437960 f i libcpmtd:locale.obj
 0001:000369c0       ??0codecvt_base@std@@QAE@I@Z 004379c0 f i libcpmtd:locale.obj
 0001:000369f0       ?do_always_noconv@codecvt_base@std@@MBE_NXZ 004379f0 f i libcpmtd:locale.obj
 0001:00036a00       ?do_max_length@codecvt_base@std@@MBEHXZ 00437a00 f i libcpmtd:locale.obj
 0001:00036a10       ?do_encoding@codecvt_base@std@@MBEHXZ 00437a10 f i libcpmtd:locale.obj
 0001:00036a20       ??_Gcodecvt_base@std@@UAEPAXI@Z 00437a20 f i libcpmtd:locale.obj
 0001:00036a20       ??_Ecodecvt_base@std@@UAEPAXI@Z 00437a20 f i libcpmtd:locale.obj
 0001:00036a50       ??1codecvt_base@std@@UAE@XZ 00437a50 f i libcpmtd:locale.obj
 0001:00036a70       ?_Getcat@?$codecvt@DDH@std@@SAIXZ 00437a70 f i libcpmtd:locale.obj
 0001:00036a80       ?do_in@?$codecvt@DDH@std@@MBEHAAHPBD1AAPBDPAD3AAPAD@Z 00437a80 f i libcpmtd:locale.obj
 0001:00036ab0       ?do_out@?$codecvt@DDH@std@@MBEHAAHPBD1AAPBDPAD3AAPAD@Z 00437ab0 f i libcpmtd:locale.obj
 0001:00036ae0       ?do_length@?$codecvt@DDH@std@@MBEHAAHPBD1I@Z 00437ae0 f i libcpmtd:locale.obj
 0001:00036b10       ?_Getcat@?$num_get@DV?$istreambuf_iterator@DU?$char_traits@D@std@@@std@@@std@@SAIXZ 00437b10 f i libcpmtd:locale.obj
 0001:00036b20       ??0?$num_get@DV?$istreambuf_iterator@DU?$char_traits@D@std@@@std@@@std@@QAE@ABV_Locinfo@1@I@Z 00437b20 f i libcpmtd:locale.obj
 0001:00036b80       ?do_get@?$num_get@DV?$istreambuf_iterator@DU?$char_traits@D@std@@@std@@@std@@MBE?AV?$istreambuf_iterator@DU?$char_traits@D@std@@@2@V32@0AAVios_base@2@AAHAA_N@Z 00437b80 f i libcpmtd:locale.obj
 0001:00036dd0       ?do_get@?$num_get@DV?$istreambuf_iterator@DU?$char_traits@D@std@@@std@@@std@@MBE?AV?$istreambuf_iterator@DU?$char_traits@D@std@@@2@V32@0AAVios_base@2@AAHAAG@Z 00437dd0 f i libcpmtd:locale.obj
 0001:00036f10       ?do_get@?$num_get@DV?$istreambuf_iterator@DU?$char_traits@D@std@@@std@@@std@@MBE?AV?$istreambuf_iterator@DU?$char_traits@D@std@@@2@V32@0AAVios_base@2@AAHAAI@Z 00437f10 f i libcpmtd:locale.obj
 0001:00037050       ?do_get@?$num_get@DV?$istreambuf_iterator@DU?$char_traits@D@std@@@std@@@std@@MBE?AV?$istreambuf_iterator@DU?$char_traits@D@std@@@2@V32@0AAVios_base@2@AAHAAJ@Z 00438050 f i libcpmtd:locale.obj
 0001:00037150       ?do_get@?$num_get@DV?$istreambuf_iterator@DU?$char_traits@D@std@@@std@@@std@@MBE?AV?$istreambuf_iterator@DU?$char_traits@D@std@@@2@V32@0AAVios_base@2@AAHAAK@Z 00438150 f i libcpmtd:locale.obj
 0001:00037250       ?do_get@?$num_get@DV?$istreambuf_iterator@DU?$char_traits@D@std@@@std@@@std@@MBE?AV?$istreambuf_iterator@DU?$char_traits@D@std@@@2@V32@0AAVios_base@2@AAHAAM@Z 00438250 f i libcpmtd:locale.obj
 0001:00037350       ?do_get@?$num_get@DV?$istreambuf_iterator@DU?$char_traits@D@std@@@std@@@std@@MBE?AV?$istreambuf_iterator@DU?$char_traits@D@std@@@2@V32@0AAVios_base@2@AAHAAN@Z 00438350 f i libcpmtd:locale.obj
 0001:00037450       ?do_get@?$num_get@DV?$istreambuf_iterator@DU?$char_traits@D@std@@@std@@@std@@MBE?AV?$istreambuf_iterator@DU?$char_traits@D@std@@@2@V32@0AAVios_base@2@AAHAAO@Z 00438450 f i libcpmtd:locale.obj
 0001:00037550       ?do_get@?$num_get@DV?$istreambuf_iterator@DU?$char_traits@D@std@@@std@@@std@@MBE?AV?$istreambuf_iterator@DU?$char_traits@D@std@@@2@V32@0AAVios_base@2@AAHAAPAX@Z 00438550 f i libcpmtd:locale.obj
 0001:000376d0       ?_Getcat@?$num_put@DV?$ostreambuf_iterator@DU?$char_traits@D@std@@@std@@@std@@SAIXZ 004386d0 f i libcpmtd:locale.obj
 0001:000376e0       ??0?$num_put@DV?$ostreambuf_iterator@DU?$char_traits@D@std@@@std@@@std@@QAE@ABV_Locinfo@1@I@Z 004386e0 f i libcpmtd:locale.obj
 0001:00037740       ??0?$numpunct@D@std@@QAE@ABV_Locinfo@1@I@Z 00438740 f i libcpmtd:locale.obj
 0001:000377a0       ?_Getcat@?$numpunct@D@std@@SAIXZ 004387a0 f i libcpmtd:locale.obj
 0001:000377b0       ??_G?$codecvt@DDH@std@@UAEPAXI@Z 004387b0 f i libcpmtd:locale.obj
 0001:000377b0       ??_E?$codecvt@DDH@std@@UAEPAXI@Z 004387b0 f i libcpmtd:locale.obj
 0001:000377e0       ??1?$codecvt@DDH@std@@UAE@XZ 004387e0 f i libcpmtd:locale.obj
 0001:00037800       ??_G?$num_get@DV?$istreambuf_iterator@DU?$char_traits@D@std@@@std@@@std@@UAEPAXI@Z 00438800 f i libcpmtd:locale.obj
 0001:00037800       ??_E?$num_get@DV?$istreambuf_iterator@DU?$char_traits@D@std@@@std@@@std@@UAEPAXI@Z 00438800 f i libcpmtd:locale.obj
 0001:00037830       ??1?$num_get@DV?$istreambuf_iterator@DU?$char_traits@D@std@@@std@@@std@@UAE@XZ 00438830 f i libcpmtd:locale.obj
 0001:00037850       ??0?$basic_string@DU?$char_traits@D@std@@V?$allocator@D@2@@std@@QAE@IDABV?$allocator@D@1@@Z 00438850 f i libcpmtd:locale.obj
 0001:00037890       ?_Init@?$codecvt@DDH@std@@IAEXABV_Locinfo@2@@Z 00438890 f i libcpmtd:locale.obj
 0001:000378c0       ?_Getcvt@_Locinfo@std@@QBE?AU_Cvtvec@@XZ 004388c0 f i libcpmtd:locale.obj
 0001:000378f0       ?_Init@?$num_get@DV?$istreambuf_iterator@DU?$char_traits@D@std@@@std@@@std@@IAEXABV_Locinfo@2@@Z 004388f0 f i libcpmtd:locale.obj
 0001:00037900       ?_Getifld@?$num_get@DV?$istreambuf_iterator@DU?$char_traits@D@std@@@std@@@std@@CAHPADAAV?$istreambuf_iterator@DU?$char_traits@D@std@@@2@1HABVlocale@2@@Z 00438900 f i libcpmtd:locale.obj
 0001:00037da0       ?_Getffld@?$num_get@DV?$istreambuf_iterator@DU?$char_traits@D@std@@@std@@@std@@CAHPADAAV?$istreambuf_iterator@DU?$char_traits@D@std@@@2@1ABVlocale@2@@Z 00438da0 f i libcpmtd:locale.obj
 0001:00038280       ??D?$istreambuf_iterator@DU?$char_traits@D@std@@@std@@QBEABDXZ 00439280 f i libcpmtd:locale.obj
 0001:000382b0       ??E?$istreambuf_iterator@DU?$char_traits@D@std@@@std@@QAEAAV01@XZ 004392b0 f i libcpmtd:locale.obj
 0001:000382d0       ?assign@?$basic_string@DU?$char_traits@D@std@@V?$allocator@D@2@@std@@QAEAAV12@ID@Z 004392d0 f i libcpmtd:locale.obj
 0001:00038330       ?_Inc@?$istreambuf_iterator@DU?$char_traits@D@std@@@std@@AAEXXZ 00439330 f i libcpmtd:locale.obj
 0001:00038390       ?_Peek@?$istreambuf_iterator@DU?$char_traits@D@std@@@std@@AAEDXZ 00439390 f i libcpmtd:locale.obj
 0001:00038400       ?use_facet@std@@YAABV?$num_get@DV?$istreambuf_iterator@DU?$char_traits@D@std@@@std@@@1@ABVlocale@1@PBV21@_N@Z 00439400 f i libcpmtd:locale.obj
 0001:00038520       ?use_facet@std@@YAABV?$codecvt@DDH@1@ABVlocale@1@PBV21@_N@Z 00439520 f i libcpmtd:locale.obj
 0001:00038640       ?_Getloctxt@std@@YAHAAV?$istreambuf_iterator@DU?$char_traits@D@std@@@1@0IPBD@Z 00439640 f i libcpmtd:locale.obj
 0001:00038870       ??8std@@YA_NABV?$istreambuf_iterator@DU?$char_traits@D@std@@@0@0@Z 00439870 f i libcpmtd:locale.obj
 0001:00038890       ??9std@@YA_NABV?$istreambuf_iterator@DU?$char_traits@D@std@@@0@0@Z 00439890 f i libcpmtd:locale.obj
 0001:000388b0       ?_Narrow@std@@YAHD@Z       004398b0 f i libcpmtd:locale.obj
 0001:000388c0       ?isdigit@std@@YA_NDABVlocale@1@@Z 004398c0 f i libcpmtd:locale.obj
 0001:000388f0       ??0?$codecvt@DDH@std@@QAE@I@Z 004398f0 f i libcpmtd:locale.obj
 0001:00038980       ??0?$num_get@DV?$istreambuf_iterator@DU?$char_traits@D@std@@@std@@@std@@QAE@I@Z 00439980 f i libcpmtd:locale.obj
 0001:00038a10       ?equal@?$istreambuf_iterator@DU?$char_traits@D@std@@@std@@QBE_NABV12@@Z 00439a10 f i libcpmtd:locale.obj
 0001:00038a80       ?_Save@?$_Tidyfac@V?$num_get@DV?$istreambuf_iterator@DU?$char_traits@D@std@@@std@@@std@@@std@@SAPAV?$num_get@DV?$istreambuf_iterator@DU?$char_traits@D@std@@@std@@@2@PAV32@@Z 00439a80 f i libcpmtd:locale.obj
 0001:00038af0       ?_Save@?$_Tidyfac@V?$codecvt@DDH@std@@@std@@SAPAV?$codecvt@DDH@2@PAV32@@Z 00439af0 f i libcpmtd:locale.obj
 0001:00038b60       ?_Tidy@?$_Tidyfac@V?$num_get@DV?$istreambuf_iterator@DU?$char_traits@D@std@@@std@@@std@@@std@@SAXXZ 00439b60 f i libcpmtd:locale.obj
 0001:00038bf0       ?_Tidy@?$_Tidyfac@V?$codecvt@DDH@std@@@std@@SAXXZ 00439bf0 f i libcpmtd:locale.obj
 0001:00038ce0       __Tolower                  00439ce0 f   libcpmtd:_tolower.obj
 0001:00038d90       __Tolower_lk               00439d90 f   libcpmtd:_tolower.obj
 0001:00038ef0       __Getctype                 00439ef0 f   libcpmtd:_tolower.obj
 0001:00038fd0       __Toupper                  00439fd0 f   libcpmtd:_toupper.obj
 0001:00039080       __Toupper_lk               0043a080 f   libcpmtd:_toupper.obj
 0001:000391e0       __Mbrtowc                  0043a1e0 f   libcpmtd:xmbtowc.obj
 0001:00039480       _btowc                     0043a480 f   libcpmtd:xmbtowc.obj
 0001:000394e0       _mbrlen                    0043a4e0 f   libcpmtd:xmbtowc.obj
 0001:00039580       _mbrtowc                   0043a580 f   libcpmtd:xmbtowc.obj
 0001:00039660       _mbsrtowcs                 0043a660 f   libcpmtd:xmbtowc.obj
 0001:000397f0       ?_Nomemory@std@@YAXXZ      0043a7f0 f   libcpmtd:nomemory.obj
 0001:00039850       ??0bad_alloc@std@@QAE@PBD@Z 0043a850 f i libcpmtd:nomemory.obj
 0001:00039880       ??1bad_alloc@std@@UAE@XZ   0043a880 f i libcpmtd:nomemory.obj
 0001:000398a0       ?_Doraise@bad_alloc@std@@MBEXXZ 0043a8a0 f i libcpmtd:nomemory.obj
 0001:000398d0       ??_Gbad_alloc@std@@UAEPAXI@Z 0043a8d0 f i libcpmtd:nomemory.obj
 0001:000398d0       ??_Ebad_alloc@std@@UAEPAXI@Z 0043a8d0 f i libcpmtd:nomemory.obj
 0001:00039900       ??0bad_alloc@std@@QAE@ABV01@@Z 0043a900 f i libcpmtd:nomemory.obj
 0001:00039940       ?_Makewloc@_Locimp@locale@std@@CAXABV_Locinfo@3@HPAV123@PBV23@@Z 0043a940 f   libcpmtd:wlocale.obj
 0001:0003a1c0       ??0?$codecvt@GDH@std@@QAE@ABV_Locinfo@1@I@Z 0043b1c0 f i libcpmtd:wlocale.obj
 0001:0003a220       ?_Getcat@?$codecvt@GDH@std@@SAIXZ 0043b220 f i libcpmtd:wlocale.obj
 0001:0003a230       ?_Init@?$codecvt@GDH@std@@IAEXABV_Locinfo@2@@Z 0043b230 f i libcpmtd:wlocale.obj
 0001:0003a260       ?do_in@?$codecvt@GDH@std@@MBEHAAHPBD1AAPBDPAG3AAPAG@Z 0043b260 f i libcpmtd:wlocale.obj
 0001:0003a350       ?do_out@?$codecvt@GDH@std@@MBEHAAHPBG1AAPBGPAD3AAPAD@Z 0043b350 f i libcpmtd:wlocale.obj
 0001:0003a4a0       ?do_length@?$codecvt@GDH@std@@MBEHAAHPBG1I@Z 0043b4a0 f i libcpmtd:wlocale.obj
 0001:0003a520       ?do_always_noconv@?$codecvt@GDH@std@@MBE_NXZ 0043b520 f i libcpmtd:wlocale.obj
 0001:0003a530       ?do_max_length@?$codecvt@GDH@std@@MBEHXZ 0043b530 f i libcpmtd:wlocale.obj
 0001:0003a540       ?do_encoding@?$codecvt@GDH@std@@MBEHXZ 0043b540 f i libcpmtd:wlocale.obj
 0001:0003a550       ??_E?$codecvt@GDH@std@@UAEPAXI@Z 0043b550 f i libcpmtd:wlocale.obj
 0001:0003a550       ??_G?$codecvt@GDH@std@@UAEPAXI@Z 0043b550 f i libcpmtd:wlocale.obj
 0001:0003a580       ??1?$codecvt@GDH@std@@UAE@XZ 0043b580 f i libcpmtd:wlocale.obj
 0001:0003a5a0       ??0?$ctype@G@std@@QAE@ABV_Locinfo@1@I@Z 0043b5a0 f i libcpmtd:wlocale.obj
 0001:0003a600       ?_Getcat@?$ctype@G@std@@SAIXZ 0043b600 f i libcpmtd:wlocale.obj
 0001:0003a610       ?do_is@?$ctype@G@std@@MBE_NFG@Z 0043b610 f i libcpmtd:wlocale.obj
 0001:0003a650       ?do_is@?$ctype@G@std@@MBEPBGPBG0PAF@Z 0043b650 f i libcpmtd:wlocale.obj
 0001:0003a6b0       ?do_scan_is@?$ctype@G@std@@MBEPBGFPBG0@Z 0043b6b0 f i libcpmtd:wlocale.obj
 0001:0003a700       ?is@?$ctype@G@std@@QBE_NFG@Z 0043b700 f i libcpmtd:wlocale.obj
 0001:0003a730       ?do_scan_not@?$ctype@G@std@@MBEPBGFPBG0@Z 0043b730 f i libcpmtd:wlocale.obj
 0001:0003a780       ?do_tolower@?$ctype@G@std@@MBEGG@Z 0043b780 f i libcpmtd:wlocale.obj
 0001:0003a7c0       ?do_tolower@?$ctype@G@std@@MBEPBGPAGPBG@Z 0043b7c0 f i libcpmtd:wlocale.obj
 0001:0003a810       ?do_toupper@?$ctype@G@std@@MBEGG@Z 0043b810 f i libcpmtd:wlocale.obj
 0001:0003a850       ?do_toupper@?$ctype@G@std@@MBEPBGPAGPBG@Z 0043b850 f i libcpmtd:wlocale.obj
 0001:0003a8a0       ?do_widen@?$ctype@G@std@@MBEGD@Z 0043b8a0 f i libcpmtd:wlocale.obj
 0001:0003a8c0       ?do_widen@?$ctype@G@std@@MBEPBDPBD0PAG@Z 0043b8c0 f i libcpmtd:wlocale.obj
 0001:0003a910       ?do_narrow@?$ctype@G@std@@MBEDGD@Z 0043b910 f i libcpmtd:wlocale.obj
 0001:0003a930       ?_Narrow@std@@YAHG@Z       0043b930 f i libcpmtd:wlocale.obj
 0001:0003a950       ?do_narrow@?$ctype@G@std@@MBEPBGPBG0DPAD@Z 0043b950 f i libcpmtd:wlocale.obj
 0001:0003a9a0       ??0?$time_put@GV?$ostreambuf_iterator@GU?$char_traits@G@std@@@std@@@std@@QAE@ABV_Locinfo@1@I@Z 0043b9a0 f i libcpmtd:wlocale.obj
 0001:0003aa10       ??0_Timevec@std@@QAE@PAX@Z 0043ba10 f i libcpmtd:wlocale.obj
 0001:0003aa30       ??1_Timevec@std@@QAE@XZ    0043ba30 f i libcpmtd:wlocale.obj
 0001:0003aa50       ??0time_base@std@@QAE@I@Z  0043ba50 f i libcpmtd:wlocale.obj
 0001:0003aa80       ??_Etime_base@std@@UAEPAXI@Z 0043ba80 f i libcpmtd:wlocale.obj
 0001:0003aa80       ??_Gtime_base@std@@UAEPAXI@Z 0043ba80 f i libcpmtd:wlocale.obj
 0001:0003aab0       ??1time_base@std@@UAE@XZ   0043bab0 f i libcpmtd:wlocale.obj
 0001:0003aad0       ?_Getcat@?$time_put@GV?$ostreambuf_iterator@GU?$char_traits@G@std@@@std@@@std@@SAIXZ 0043bad0 f i libcpmtd:wlocale.obj
 0001:0003aae0       ?do_put@?$time_put@GV?$ostreambuf_iterator@GU?$char_traits@G@std@@@std@@@std@@MBE?AV?$ostreambuf_iterator@GU?$char_traits@G@std@@@2@V32@AAVios_base@2@PBUtm@@DD@Z 0043bae0 f i libcpmtd:wlocale.obj
 0001:0003ac20       ?_Getptr@_Timevec@std@@QBEPAXXZ 0043bc20 f i libcpmtd:wlocale.obj
 0001:0003ac30       ?_Getcat@?$num_get@GV?$istreambuf_iterator@GU?$char_traits@G@std@@@std@@@std@@SAIXZ 0043bc30 f i libcpmtd:wlocale.obj
 0001:0003ac40       ??0?$num_get@GV?$istreambuf_iterator@GU?$char_traits@G@std@@@std@@@std@@QAE@ABV_Locinfo@1@I@Z 0043bc40 f i libcpmtd:wlocale.obj
 0001:0003aca0       ?do_get@?$num_get@GV?$istreambuf_iterator@GU?$char_traits@G@std@@@std@@@std@@MBE?AV?$istreambuf_iterator@GU?$char_traits@G@std@@@2@V32@0AAVios_base@2@AAHAA_N@Z 0043bca0 f i libcpmtd:wlocale.obj
 0001:0003aef0       ?do_get@?$num_get@GV?$istreambuf_iterator@GU?$char_traits@G@std@@@std@@@std@@MBE?AV?$istreambuf_iterator@GU?$char_traits@G@std@@@2@V32@0AAVios_base@2@AAHAAG@Z 0043bef0 f i libcpmtd:wlocale.obj
 0001:0003b030       ?do_get@?$num_get@GV?$istreambuf_iterator@GU?$char_traits@G@std@@@std@@@std@@MBE?AV?$istreambuf_iterator@GU?$char_traits@G@std@@@2@V32@0AAVios_base@2@AAHAAI@Z 0043c030 f i libcpmtd:wlocale.obj
 0001:0003b170       ?do_get@?$num_get@GV?$istreambuf_iterator@GU?$char_traits@G@std@@@std@@@std@@MBE?AV?$istreambuf_iterator@GU?$char_traits@G@std@@@2@V32@0AAVios_base@2@AAHAAJ@Z 0043c170 f i libcpmtd:wlocale.obj
 0001:0003b270       ?do_get@?$num_get@GV?$istreambuf_iterator@GU?$char_traits@G@std@@@std@@@std@@MBE?AV?$istreambuf_iterator@GU?$char_traits@G@std@@@2@V32@0AAVios_base@2@AAHAAK@Z 0043c270 f i libcpmtd:wlocale.obj
 0001:0003b370       ?do_get@?$num_get@GV?$istreambuf_iterator@GU?$char_traits@G@std@@@std@@@std@@MBE?AV?$istreambuf_iterator@GU?$char_traits@G@std@@@2@V32@0AAVios_base@2@AAHAAM@Z 0043c370 f i libcpmtd:wlocale.obj
 0001:0003b470       ?do_get@?$num_get@GV?$istreambuf_iterator@GU?$char_traits@G@std@@@std@@@std@@MBE?AV?$istreambuf_iterator@GU?$char_traits@G@std@@@2@V32@0AAVios_base@2@AAHAAN@Z 0043c470 f i libcpmtd:wlocale.obj
 0001:0003b570       ?do_get@?$num_get@GV?$istreambuf_iterator@GU?$char_traits@G@std@@@std@@@std@@MBE?AV?$istreambuf_iterator@GU?$char_traits@G@std@@@2@V32@0AAVios_base@2@AAHAAO@Z 0043c570 f i libcpmtd:wlocale.obj
 0001:0003b670       ?do_get@?$num_get@GV?$istreambuf_iterator@GU?$char_traits@G@std@@@std@@@std@@MBE?AV?$istreambuf_iterator@GU?$char_traits@G@std@@@2@V32@0AAVios_base@2@AAHAAPAX@Z 0043c670 f i libcpmtd:wlocale.obj
 0001:0003b800       ?_Getcat@?$num_put@GV?$ostreambuf_iterator@GU?$char_traits@G@std@@@std@@@std@@SAIXZ 0043c800 f i libcpmtd:wlocale.obj
 0001:0003b810       ??0?$num_put@GV?$ostreambuf_iterator@GU?$char_traits@G@std@@@std@@@std@@QAE@ABV_Locinfo@1@I@Z 0043c810 f i libcpmtd:wlocale.obj
 0001:0003b870       ?do_put@?$num_put@GV?$ostreambuf_iterator@GU?$char_traits@G@std@@@std@@@std@@MBE?AV?$ostreambuf_iterator@GU?$char_traits@G@std@@@2@V32@AAVios_base@2@G_N@Z 0043c870 f i libcpmtd:wlocale.obj
 0001:0003bab0       ?do_put@?$num_put@GV?$ostreambuf_iterator@GU?$char_traits@G@std@@@std@@@std@@MBE?AV?$ostreambuf_iterator@GU?$char_traits@G@std@@@2@V32@AAVios_base@2@GJ@Z 0043cab0 f i libcpmtd:wlocale.obj
 0001:0003bb20       ?do_put@?$num_put@GV?$ostreambuf_iterator@GU?$char_traits@G@std@@@std@@@std@@MBE?AV?$ostreambuf_iterator@GU?$char_traits@G@std@@@2@V32@AAVios_base@2@GK@Z 0043cb20 f i libcpmtd:wlocale.obj
 0001:0003bb90       ?do_put@?$num_put@GV?$ostreambuf_iterator@GU?$char_traits@G@std@@@std@@@std@@MBE?AV?$ostreambuf_iterator@GU?$char_traits@G@std@@@2@V32@AAVios_base@2@GN@Z 0043cb90 f i libcpmtd:wlocale.obj
 0001:0003bc60       ?do_put@?$num_put@GV?$ostreambuf_iterator@GU?$char_traits@G@std@@@std@@@std@@MBE?AV?$ostreambuf_iterator@GU?$char_traits@G@std@@@2@V32@AAVios_base@2@GO@Z 0043cc60 f i libcpmtd:wlocale.obj
 0001:0003bd30       ?do_put@?$num_put@GV?$ostreambuf_iterator@GU?$char_traits@G@std@@@std@@@std@@MBE?AV?$ostreambuf_iterator@GU?$char_traits@G@std@@@2@V32@AAVios_base@2@GPBX@Z 0043cd30 f i libcpmtd:wlocale.obj
 0001:0003be40       ??0?$numpunct@G@std@@QAE@ABV_Locinfo@1@I@Z 0043ce40 f i libcpmtd:wlocale.obj
 0001:0003bea0       ?_Getcat@?$numpunct@G@std@@SAIXZ 0043cea0 f i libcpmtd:wlocale.obj
 0001:0003beb0       ?do_decimal_point@?$numpunct@G@std@@MBEGXZ 0043ceb0 f i libcpmtd:wlocale.obj
 0001:0003bed0       ?do_thousands_sep@?$numpunct@G@std@@MBEGXZ 0043ced0 f i libcpmtd:wlocale.obj
 0001:0003bef0       ?do_grouping@?$numpunct@G@std@@MBE?AV?$basic_string@DU?$char_traits@D@std@@V?$allocator@D@2@@2@XZ 0043cef0 f i libcpmtd:wlocale.obj
 0001:0003bf30       ?do_falsename@?$numpunct@G@std@@MBE?AV?$basic_string@GU?$char_traits@G@std@@V?$allocator@G@2@@2@XZ 0043cf30 f i libcpmtd:wlocale.obj
 0001:0003bf70       ?do_truename@?$numpunct@G@std@@MBE?AV?$basic_string@GU?$char_traits@G@std@@V?$allocator@G@2@@2@XZ 0043cf70 f i libcpmtd:wlocale.obj
 0001:0003bfb0       ??0?$collate@G@std@@QAE@ABV_Locinfo@1@I@Z 0043cfb0 f i libcpmtd:wlocale.obj
 0001:0003c010       ?_Getcat@?$collate@G@std@@SAIXZ 0043d010 f i libcpmtd:wlocale.obj
 0001:0003c020       ?do_compare@?$collate@G@std@@MBEHPBG000@Z 0043d020 f i libcpmtd:wlocale.obj
 0001:0003c050       ?do_transform@?$collate@G@std@@MBE?AV?$basic_string@GU?$char_traits@G@std@@V?$allocator@G@2@@2@PBG0@Z 0043d050 f i libcpmtd:wlocale.obj
 0001:0003c150       ?do_hash@?$collate@G@std@@MBEJPBG0@Z 0043d150 f i libcpmtd:wlocale.obj
 0001:0003c1a0       ??0?$messages@G@std@@QAE@ABV_Locinfo@1@I@Z 0043d1a0 f i libcpmtd:wlocale.obj
 0001:0003c200       ??0messages_base@std@@QAE@I@Z 0043d200 f i libcpmtd:wlocale.obj
 0001:0003c230       ??_Emessages_base@std@@UAEPAXI@Z 0043d230 f i libcpmtd:wlocale.obj
 0001:0003c230       ??_Gmessages_base@std@@UAEPAXI@Z 0043d230 f i libcpmtd:wlocale.obj
 0001:0003c260       ??1messages_base@std@@UAE@XZ 0043d260 f i libcpmtd:wlocale.obj
 0001:0003c280       ?_Getcat@?$messages@G@std@@SAIXZ 0043d280 f i libcpmtd:wlocale.obj
 0001:0003c290       ?do_open@?$messages@G@std@@MBEHABV?$basic_string@DU?$char_traits@D@std@@V?$allocator@D@2@@2@ABVlocale@2@@Z 0043d290 f i libcpmtd:wlocale.obj
 0001:0003c2a0       ?do_get@?$messages@G@std@@MBE?AV?$basic_string@GU?$char_traits@G@std@@V?$allocator@G@2@@2@HHHABV32@@Z 0043d2a0 f i libcpmtd:wlocale.obj
 0001:0003c320       ?do_close@?$messages@G@std@@MBEXH@Z 0043d320 f i libcpmtd:wlocale.obj
 0001:0003c330       ??0?$money_get@GV?$istreambuf_iterator@GU?$char_traits@G@std@@@std@@@std@@QAE@ABV_Locinfo@1@I@Z 0043d330 f i libcpmtd:wlocale.obj
 0001:0003c390       ?_Getcat@?$money_get@GV?$istreambuf_iterator@GU?$char_traits@G@std@@@std@@@std@@SAIXZ 0043d390 f i libcpmtd:wlocale.obj
 0001:0003c3a0       ?do_get@?$money_get@GV?$istreambuf_iterator@GU?$char_traits@G@std@@@std@@@std@@MBE?AV?$istreambuf_iterator@GU?$char_traits@G@std@@@2@V32@0_NAAVios_base@2@AAHAAO@Z 0043d3a0 f i libcpmtd:wlocale.obj
 0001:0003c520       ?do_get@?$money_get@GV?$istreambuf_iterator@GU?$char_traits@G@std@@@std@@@std@@MBE?AV?$istreambuf_iterator@GU?$char_traits@G@std@@@2@V32@0_NAAVios_base@2@AAHAAV?$basic_string@GU?$char_traits@G@std@@V?$allocator@G@2@@2@@Z 0043d520 f i libcpmtd:wlocale.obj
 0001:0003c5e0       ??0?$money_put@GV?$ostreambuf_iterator@GU?$char_traits@G@std@@@std@@@std@@QAE@ABV_Locinfo@1@I@Z 0043d5e0 f i libcpmtd:wlocale.obj
 0001:0003c640       ?_Getcat@?$money_put@GV?$ostreambuf_iterator@GU?$char_traits@G@std@@@std@@@std@@SAIXZ 0043d640 f i libcpmtd:wlocale.obj
 0001:0003c650       ?do_put@?$money_put@GV?$ostreambuf_iterator@GU?$char_traits@G@std@@@std@@@std@@MBE?AV?$ostreambuf_iterator@GU?$char_traits@G@std@@@2@V32@_NAAVios_base@2@GO@Z 0043d650 f i libcpmtd:wlocale.obj
 0001:0003c7c0       ?do_put@?$money_put@GV?$ostreambuf_iterator@GU?$char_traits@G@std@@@std@@@std@@MBE?AV?$ostreambuf_iterator@GU?$char_traits@G@std@@@2@V32@_NAAVios_base@2@GABV?$basic_string@GU?$char_traits@G@std@@V?$allocator@G@2@@2@@Z 0043d7c0 f i libcpmtd:wlocale.obj
 0001:0003c940       ??0?$moneypunct@G$0A@@std@@QAE@ABV_Locinfo@1@I@Z 0043d940 f i libcpmtd:wlocale.obj
 0001:0003c970       ?_Getcat@?$moneypunct@G$0A@@std@@SAIXZ 0043d970 f i libcpmtd:wlocale.obj
 0001:0003c980       ?do_decimal_point@?$_Mpunct@G@std@@MBEGXZ 0043d980 f i libcpmtd:wlocale.obj
 0001:0003c9a0       ?do_thousands_sep@?$_Mpunct@G@std@@MBEGXZ 0043d9a0 f i libcpmtd:wlocale.obj
 0001:0003c9c0       ?do_grouping@?$_Mpunct@G@std@@MBE?AV?$basic_string@DU?$char_traits@D@std@@V?$allocator@D@2@@2@XZ 0043d9c0 f i libcpmtd:wlocale.obj
 0001:0003ca00       ?do_curr_symbol@?$_Mpunct@G@std@@MBE?AV?$basic_string@GU?$char_traits@G@std@@V?$allocator@G@2@@2@XZ 0043da00 f i libcpmtd:wlocale.obj
 0001:0003ca40       ?do_positive_sign@?$_Mpunct@G@std@@MBE?AV?$basic_string@GU?$char_traits@G@std@@V?$allocator@G@2@@2@XZ 0043da40 f i libcpmtd:wlocale.obj
 0001:0003ca80       ?do_negative_sign@?$_Mpunct@G@std@@MBE?AV?$basic_string@GU?$char_traits@G@std@@V?$allocator@G@2@@2@XZ 0043da80 f i libcpmtd:wlocale.obj
 0001:0003cac0       ?do_frac_digits@?$_Mpunct@G@std@@MBEHXZ 0043dac0 f i libcpmtd:wlocale.obj
 0001:0003cae0       ?do_pos_format@?$_Mpunct@G@std@@MBE?AUpattern@money_base@2@XZ 0043dae0 f i libcpmtd:wlocale.obj
 0001:0003cb00       ?do_neg_format@?$_Mpunct@G@std@@MBE?AUpattern@money_base@2@XZ 0043db00 f i libcpmtd:wlocale.obj
 0001:0003cb20       ??0?$moneypunct@G$00@std@@QAE@ABV_Locinfo@1@I@Z 0043db20 f i libcpmtd:wlocale.obj
 0001:0003cb50       ?_Getcat@?$moneypunct@G$00@std@@SAIXZ 0043db50 f i libcpmtd:wlocale.obj
 0001:0003cb60       ??0?$time_get@GV?$istreambuf_iterator@GU?$char_traits@G@std@@@std@@@std@@QAE@ABV_Locinfo@1@I@Z 0043db60 f i libcpmtd:wlocale.obj
 0001:0003cbc0       ?_Getcat@?$time_get@GV?$istreambuf_iterator@GU?$char_traits@G@std@@@std@@@std@@SAIXZ 0043dbc0 f i libcpmtd:wlocale.obj
 0001:0003cbd0       ?do_date_order@?$time_get@GV?$istreambuf_iterator@GU?$char_traits@G@std@@@std@@@std@@MBEHXZ 0043dbd0 f i libcpmtd:wlocale.obj
 0001:0003cbe0       ?do_get_time@?$time_get@GV?$istreambuf_iterator@GU?$char_traits@G@std@@@std@@@std@@MBE?AV?$istreambuf_iterator@GU?$char_traits@G@std@@@2@V32@0AAVios_base@2@AAHPAUtm@@@Z 0043dbe0 f i libcpmtd:wlocale.obj
 0001:0003ccf0       ?do_get_date@?$time_get@GV?$istreambuf_iterator@GU?$char_traits@G@std@@@std@@@std@@MBE?AV?$istreambuf_iterator@GU?$char_traits@G@std@@@2@V32@0AAVios_base@2@AAHPAUtm@@@Z 0043dcf0 f i libcpmtd:wlocale.obj
 0001:0003cea0       ?do_get_weekday@?$time_get@GV?$istreambuf_iterator@GU?$char_traits@G@std@@@std@@@std@@MBE?AV?$istreambuf_iterator@GU?$char_traits@G@std@@@2@V32@0AAVios_base@2@AAHPAUtm@@@Z 0043dea0 f i libcpmtd:wlocale.obj
 0001:0003cf00       ?do_get_monthname@?$time_get@GV?$istreambuf_iterator@GU?$char_traits@G@std@@@std@@@std@@MBE?AV?$istreambuf_iterator@GU?$char_traits@G@std@@@2@V32@0AAVios_base@2@AAHPAUtm@@@Z 0043df00 f i libcpmtd:wlocale.obj
 0001:0003cf60       ?do_get_year@?$time_get@GV?$istreambuf_iterator@GU?$char_traits@G@std@@@std@@@std@@MBE?AV?$istreambuf_iterator@GU?$char_traits@G@std@@@2@V32@0AAVios_base@2@AAHPAUtm@@@Z 0043df60 f i libcpmtd:wlocale.obj
 0001:0003d000       ??_G?$ctype@G@std@@UAEPAXI@Z 0043e000 f i libcpmtd:wlocale.obj
 0001:0003d000       ??_E?$ctype@G@std@@UAEPAXI@Z 0043e000 f i libcpmtd:wlocale.obj
 0001:0003d030       ??1?$ctype@G@std@@UAE@XZ   0043e030 f i libcpmtd:wlocale.obj
 0001:0003d070       ??_E?$time_put@GV?$ostreambuf_iterator@GU?$char_traits@G@std@@@std@@@std@@UAEPAXI@Z 0043e070 f i libcpmtd:wlocale.obj
 0001:0003d070       ??_G?$time_put@GV?$ostreambuf_iterator@GU?$char_traits@G@std@@@std@@@std@@UAEPAXI@Z 0043e070 f i libcpmtd:wlocale.obj
 0001:0003d0a0       ??1?$time_put@GV?$ostreambuf_iterator@GU?$char_traits@G@std@@@std@@@std@@UAE@XZ 0043e0a0 f i libcpmtd:wlocale.obj
 0001:0003d100       ??_E?$num_get@GV?$istreambuf_iterator@GU?$char_traits@G@std@@@std@@@std@@UAEPAXI@Z 0043e100 f i libcpmtd:wlocale.obj
 0001:0003d100       ??_G?$num_get@GV?$istreambuf_iterator@GU?$char_traits@G@std@@@std@@@std@@UAEPAXI@Z 0043e100 f i libcpmtd:wlocale.obj
 0001:0003d130       ??1?$num_get@GV?$istreambuf_iterator@GU?$char_traits@G@std@@@std@@@std@@UAE@XZ 0043e130 f i libcpmtd:wlocale.obj
 0001:0003d150       ??_G?$num_put@GV?$ostreambuf_iterator@GU?$char_traits@G@std@@@std@@@std@@UAEPAXI@Z 0043e150 f i libcpmtd:wlocale.obj
 0001:0003d150       ??_E?$num_put@GV?$ostreambuf_iterator@GU?$char_traits@G@std@@@std@@@std@@UAEPAXI@Z 0043e150 f i libcpmtd:wlocale.obj
 0001:0003d180       ??1?$num_put@GV?$ostreambuf_iterator@GU?$char_traits@G@std@@@std@@@std@@UAE@XZ 0043e180 f i libcpmtd:wlocale.obj
 0001:0003d1a0       ??_G?$numpunct@G@std@@UAEPAXI@Z 0043e1a0 f i libcpmtd:wlocale.obj
 0001:0003d1a0       ??_E?$numpunct@G@std@@UAEPAXI@Z 0043e1a0 f i libcpmtd:wlocale.obj
 0001:0003d1d0       ??1?$numpunct@G@std@@UAE@XZ 0043e1d0 f i libcpmtd:wlocale.obj
 0001:0003d230       ??_E?$collate@G@std@@UAEPAXI@Z 0043e230 f i libcpmtd:wlocale.obj
 0001:0003d230       ??_G?$collate@G@std@@UAEPAXI@Z 0043e230 f i libcpmtd:wlocale.obj
 0001:0003d260       ??1?$collate@G@std@@UAE@XZ 0043e260 f i libcpmtd:wlocale.obj
 0001:0003d280       ??_E?$messages@G@std@@UAEPAXI@Z 0043e280 f i libcpmtd:wlocale.obj
 0001:0003d280       ??_G?$messages@G@std@@UAEPAXI@Z 0043e280 f i libcpmtd:wlocale.obj
 0001:0003d2b0       ??1?$messages@G@std@@UAE@XZ 0043e2b0 f i libcpmtd:wlocale.obj
 0001:0003d300       ??_G?$money_get@GV?$istreambuf_iterator@GU?$char_traits@G@std@@@std@@@std@@UAEPAXI@Z 0043e300 f i libcpmtd:wlocale.obj
 0001:0003d300       ??_E?$money_get@GV?$istreambuf_iterator@GU?$char_traits@G@std@@@std@@@std@@UAEPAXI@Z 0043e300 f i libcpmtd:wlocale.obj
 0001:0003d330       ??1?$money_get@GV?$istreambuf_iterator@GU?$char_traits@G@std@@@std@@@std@@UAE@XZ 0043e330 f i libcpmtd:wlocale.obj
 0001:0003d350       ??_G?$money_put@GV?$ostreambuf_iterator@GU?$char_traits@G@std@@@std@@@std@@UAEPAXI@Z 0043e350 f i libcpmtd:wlocale.obj
 0001:0003d350       ??_E?$money_put@GV?$ostreambuf_iterator@GU?$char_traits@G@std@@@std@@@std@@UAEPAXI@Z 0043e350 f i libcpmtd:wlocale.obj
 0001:0003d380       ??1?$money_put@GV?$ostreambuf_iterator@GU?$char_traits@G@std@@@std@@@std@@UAE@XZ 0043e380 f i libcpmtd:wlocale.obj
 0001:0003d3a0       ??_E?$moneypunct@G$0A@@std@@UAEPAXI@Z 0043e3a0 f i libcpmtd:wlocale.obj
 0001:0003d3a0       ??_G?$moneypunct@G$0A@@std@@UAEPAXI@Z 0043e3a0 f i libcpmtd:wlocale.obj
 0001:0003d3d0       ??_G?$moneypunct@G$00@std@@UAEPAXI@Z 0043e3d0 f i libcpmtd:wlocale.obj
 0001:0003d3d0       ??_E?$moneypunct@G$00@std@@UAEPAXI@Z 0043e3d0 f i libcpmtd:wlocale.obj
 0001:0003d400       ??_E?$time_get@GV?$istreambuf_iterator@GU?$char_traits@G@std@@@std@@@std@@UAEPAXI@Z 0043e400 f i libcpmtd:wlocale.obj
 0001:0003d400       ??_G?$time_get@GV?$istreambuf_iterator@GU?$char_traits@G@std@@@std@@@std@@UAEPAXI@Z 0043e400 f i libcpmtd:wlocale.obj
 0001:0003d430       ??1?$time_get@GV?$istreambuf_iterator@GU?$char_traits@G@std@@@std@@@std@@UAE@XZ 0043e430 f i libcpmtd:wlocale.obj
 0001:0003d480       ??1?$moneypunct@G$0A@@std@@UAE@XZ 0043e480 f i libcpmtd:wlocale.obj
 0001:0003d4a0       ??1?$_Mpunct@G@std@@UAE@XZ 0043e4a0 f i libcpmtd:wlocale.obj
 0001:0003d520       ??1money_base@std@@UAE@XZ  0043e520 f i libcpmtd:wlocale.obj
 0001:0003d540       ??_E?$_Mpunct@G@std@@UAEPAXI@Z 0043e540 f i libcpmtd:wlocale.obj
 0001:0003d540       ??_G?$_Mpunct@G@std@@UAEPAXI@Z 0043e540 f i libcpmtd:wlocale.obj
 0001:0003d570       ??1?$moneypunct@G$00@std@@UAE@XZ 0043e570 f i libcpmtd:wlocale.obj
 0001:0003d590       ?reserve@?$basic_string@DU?$char_traits@D@std@@V?$allocator@D@2@@std@@QAEXI@Z 0043e590 f i libcpmtd:wlocale.obj
 0001:0003d5c0       ?widen@?$ctype@G@std@@QBEGD@Z 0043e5c0 f i libcpmtd:wlocale.obj
 0001:0003d5e0       ?narrow@?$ctype@G@std@@QBEDGD@Z 0043e5e0 f i libcpmtd:wlocale.obj
 0001:0003d610       ?_Init@?$ctype@G@std@@IAEXABV_Locinfo@2@@Z 0043e610 f i libcpmtd:wlocale.obj
 0001:0003d650       ?_Init@?$time_put@GV?$ostreambuf_iterator@GU?$char_traits@G@std@@@std@@@std@@IAEXABV_Locinfo@2@@Z 0043e650 f i libcpmtd:wlocale.obj
 0001:0003d6c0       ??4_Timevec@std@@QAEAAV01@ABV01@@Z 0043e6c0 f i libcpmtd:wlocale.obj
 0001:0003d6f0       ?_Gettnames@_Locinfo@std@@QBE?AV_Timevec@2@XZ 0043e6f0 f i libcpmtd:wlocale.obj
 0001:0003d720       ??4?$ostreambuf_iterator@GU?$char_traits@G@std@@@std@@QAEAAV01@G@Z 0043e720 f i libcpmtd:wlocale.obj
 0001:0003d780       ?sputc@?$basic_streambuf@GU?$char_traits@G@std@@@std@@QAEGG@Z 0043e780 f i libcpmtd:wlocale.obj
 0001:0003d800       ??D?$ostreambuf_iterator@GU?$char_traits@G@std@@@std@@QAEAAV01@XZ 0043e800 f i libcpmtd:wlocale.obj
 0001:0003d810       ??E?$ostreambuf_iterator@GU?$char_traits@G@std@@@std@@QAEAAV01@XZ 0043e810 f i libcpmtd:wlocale.obj
 0001:0003d820       ?_Init@?$num_get@GV?$istreambuf_iterator@GU?$char_traits@G@std@@@std@@@std@@IAEXABV_Locinfo@2@@Z 0043e820 f i libcpmtd:wlocale.obj
 0001:0003d830       ?_Getifld@?$num_get@GV?$istreambuf_iterator@GU?$char_traits@G@std@@@std@@@std@@CAHPADAAV?$istreambuf_iterator@GU?$char_traits@G@std@@@2@1HABVlocale@2@@Z 0043e830 f i libcpmtd:wlocale.obj
 0001:0003dd00       ?_Getffld@?$num_get@GV?$istreambuf_iterator@GU?$char_traits@G@std@@@std@@@std@@CAHPADAAV?$istreambuf_iterator@GU?$char_traits@G@std@@@2@1ABVlocale@2@@Z 0043ed00 f i libcpmtd:wlocale.obj
 0001:0003e210       ??D?$istreambuf_iterator@GU?$char_traits@G@std@@@std@@QBEABGXZ 0043f210 f i libcpmtd:wlocale.obj
 0001:0003e240       ??E?$istreambuf_iterator@GU?$char_traits@G@std@@@std@@QAEAAV01@XZ 0043f240 f i libcpmtd:wlocale.obj
 0001:0003e260       ?_Init@?$num_put@GV?$ostreambuf_iterator@GU?$char_traits@G@std@@@std@@@std@@IAEXABV_Locinfo@2@@Z 0043f260 f i libcpmtd:wlocale.obj
 0001:0003e270       ?_Ffmt@?$num_put@GV?$ostreambuf_iterator@GU?$char_traits@G@std@@@std@@@std@@KAPADPADDH@Z 0043f270 f i libcpmtd:wlocale.obj
 0001:0003e340       ?_Fput@?$num_put@GV?$ostreambuf_iterator@GU?$char_traits@G@std@@@std@@@std@@KA?AV?$ostreambuf_iterator@GU?$char_traits@G@std@@@2@V32@AAVios_base@2@GPBDII@Z 0043f340 f i libcpmtd:wlocale.obj
 0001:0003e700       ?_Ifmt@?$num_put@GV?$ostreambuf_iterator@GU?$char_traits@G@std@@@std@@@std@@KAPADPADDH@Z 0043f700 f i libcpmtd:wlocale.obj
 0001:0003e7c0       ?_Iput@?$num_put@GV?$ostreambuf_iterator@GU?$char_traits@G@std@@@std@@@std@@KA?AV?$ostreambuf_iterator@GU?$char_traits@G@std@@@2@V32@AAVios_base@2@GPADI@Z 0043f7c0 f i libcpmtd:wlocale.obj
 0001:0003eba0       ?_Put@?$num_put@GV?$ostreambuf_iterator@GU?$char_traits@G@std@@@std@@@std@@KA?AV?$ostreambuf_iterator@GU?$char_traits@G@std@@@2@V32@PBGI@Z 0043fba0 f i libcpmtd:wlocale.obj
 0001:0003ebf0       ?_Putc@?$num_put@GV?$ostreambuf_iterator@GU?$char_traits@G@std@@@std@@@std@@KA?AV?$ostreambuf_iterator@GU?$char_traits@G@std@@@2@V32@PBDI@Z 0043fbf0 f i libcpmtd:wlocale.obj
 0001:0003ec50       ?_Rep@?$num_put@GV?$ostreambuf_iterator@GU?$char_traits@G@std@@@std@@@std@@KA?AV?$ostreambuf_iterator@GU?$char_traits@G@std@@@2@V32@GI@Z 0043fc50 f i libcpmtd:wlocale.obj
 0001:0003eca0       ?falsename@?$numpunct@G@std@@QBE?AV?$basic_string@GU?$char_traits@G@std@@V?$allocator@G@2@@2@XZ 0043fca0 f i libcpmtd:wlocale.obj
 0001:0003ecd0       ?truename@?$numpunct@G@std@@QBE?AV?$basic_string@GU?$char_traits@G@std@@V?$allocator@G@2@@2@XZ 0043fcd0 f i libcpmtd:wlocale.obj
 0001:0003ed00       ?_Init@?$numpunct@G@std@@IAEXABV_Locinfo@2@@Z 0043fd00 f i libcpmtd:wlocale.obj
 0001:0003eda0       ?_Init@?$collate@G@std@@IAEXABV_Locinfo@2@@Z 0043fda0 f i libcpmtd:wlocale.obj
 0001:0003edd0       ?_Getcoll@_Locinfo@std@@QBE?AU_Collvec@@XZ 0043fdd0 f i libcpmtd:wlocale.obj
 0001:0003ee00       ?_Init@?$messages@G@std@@IAEXABV_Locinfo@2@@Z 0043fe00 f i libcpmtd:wlocale.obj
 0001:0003ee40       ?_Getno@_Locinfo@std@@QBEPBDXZ 0043fe40 f i libcpmtd:wlocale.obj
 0001:0003ee50       ?_Getyes@_Locinfo@std@@QBEPBDXZ 0043fe50 f i libcpmtd:wlocale.obj
 0001:0003ee60       ?_Init@?$money_get@GV?$istreambuf_iterator@GU?$char_traits@G@std@@@std@@@std@@IAEXABV_Locinfo@2@@Z 0043fe60 f i libcpmtd:wlocale.obj
 0001:0003ee70       ?_Getmfld@?$money_get@GV?$istreambuf_iterator@GU?$char_traits@G@std@@@std@@@std@@ABE?AV?$basic_string@GU?$char_traits@G@std@@V?$allocator@G@2@@2@AAV?$istreambuf_iterator@GU?$char_traits@G@std@@@2@0_NAAVios_base@2@@Z 0043fe70 f i libcpmtd:wlocale.obj
 0001:0003f940       ?_Init@?$money_put@GV?$ostreambuf_iterator@GU?$char_traits@G@std@@@std@@@std@@IAEXABV_Locinfo@2@@Z 00440940 f i libcpmtd:wlocale.obj
 0001:0003f950       ?_Putmfld@?$money_put@GV?$ostreambuf_iterator@GU?$char_traits@G@std@@@std@@@std@@ABE?AV?$ostreambuf_iterator@GU?$char_traits@G@std@@@2@V32@_NAAVios_base@2@G1V?$basic_string@GU?$char_traits@G@std@@V?$allocator@G@2@@2@@Z 00440950 f i libcpmtd:wlocale.obj
 0001:000401d0       ??0?$basic_string@GU?$char_traits@G@std@@V?$allocator@G@2@@std@@QAE@ABV?$allocator@G@1@@Z 004411d0 f i libcpmtd:wlocale.obj
 0001:00040200       ??0?$basic_string@GU?$char_traits@G@std@@V?$allocator@G@2@@std@@QAE@ABV01@@Z 00441200 f i libcpmtd:wlocale.obj
 0001:00040240       ??0?$basic_string@GU?$char_traits@G@std@@V?$allocator@G@2@@std@@QAE@PBGIABV?$allocator@G@1@@Z 00441240 f i libcpmtd:wlocale.obj
 0001:00040280       ??0?$basic_string@GU?$char_traits@G@std@@V?$allocator@G@2@@std@@QAE@PBGABV?$allocator@G@1@@Z 00441280 f i libcpmtd:wlocale.obj
 0001:000402b0       ??0?$basic_string@GU?$char_traits@G@std@@V?$allocator@G@2@@std@@QAE@IGABV?$allocator@G@1@@Z 004412b0 f i libcpmtd:wlocale.obj
 0001:000402f0       ??1?$basic_string@GU?$char_traits@G@std@@V?$allocator@G@2@@std@@QAE@XZ 004412f0 f i libcpmtd:wlocale.obj
 0001:00040310       ??4?$basic_string@GU?$char_traits@G@std@@V?$allocator@G@2@@std@@QAEAAV01@ABV01@@Z 00441310 f i libcpmtd:wlocale.obj
 0001:00040330       ??Y?$basic_string@GU?$char_traits@G@std@@V?$allocator@G@2@@std@@QAEAAV01@ABV01@@Z 00441330 f i libcpmtd:wlocale.obj
 0001:00040350       ??Y?$basic_string@GU?$char_traits@G@std@@V?$allocator@G@2@@std@@QAEAAV01@G@Z 00441350 f i libcpmtd:wlocale.obj
 0001:00040370       ?append@?$basic_string@GU?$char_traits@G@std@@V?$allocator@G@2@@std@@QAEAAV12@IG@Z 00441370 f i libcpmtd:wlocale.obj
 0001:000403f0       ?assign@?$char_traits@G@std@@SAPAGPAGIABG@Z 004413f0 f i libcpmtd:wlocale.obj
 0001:00040410       _wmemset                   00441410 f i libcpmtd:wlocale.obj
 0001:00040450       ?begin@?$basic_string@GU?$char_traits@G@std@@V?$allocator@G@2@@std@@QAEPAGXZ 00441450 f i libcpmtd:wlocale.obj
 0001:00040470       ?end@?$basic_string@GU?$char_traits@G@std@@V?$allocator@G@2@@std@@QAEPAGXZ 00441470 f i libcpmtd:wlocale.obj
 0001:000404a0       ??A?$basic_string@GU?$char_traits@G@std@@V?$allocator@G@2@@std@@QAEAAGI@Z 004414a0 f i libcpmtd:wlocale.obj
 0001:000404e0       ?c_str@?$basic_string@GU?$char_traits@G@std@@V?$allocator@G@2@@std@@QBEPBGXZ 004414e0 f i libcpmtd:wlocale.obj
 0001:00040510       ?size@?$basic_string@GU?$char_traits@G@std@@V?$allocator@G@2@@std@@QBEIXZ 00441510 f i libcpmtd:wlocale.obj
 0001:00040530       ?resize@?$basic_string@GU?$char_traits@G@std@@V?$allocator@G@2@@std@@QAEXI@Z 00441530 f i libcpmtd:wlocale.obj
 0001:00040580       ??0?$_Mpunct@G@std@@QAE@ABV_Locinfo@1@I_N@Z 00441580 f i libcpmtd:wlocale.obj
 0001:000405f0       ??0money_base@std@@QAE@I@Z 004415f0 f i libcpmtd:wlocale.obj
 0001:00040620       ??_Gmoney_base@std@@UAEPAXI@Z 00441620 f i libcpmtd:wlocale.obj
 0001:00040620       ??_Emoney_base@std@@UAEPAXI@Z 00441620 f i libcpmtd:wlocale.obj
 0001:00040650       ?get_monthname@?$time_get@GV?$istreambuf_iterator@GU?$char_traits@G@std@@@std@@@std@@QBE?AV?$istreambuf_iterator@GU?$char_traits@G@std@@@2@V32@0AAVios_base@2@AAHPAUtm@@@Z 00441650 f i libcpmtd:wlocale.obj
 0001:000406a0       ?get_year@?$time_get@GV?$istreambuf_iterator@GU?$char_traits@G@std@@@std@@@std@@QBE?AV?$istreambuf_iterator@GU?$char_traits@G@std@@@2@V32@0AAVios_base@2@AAHPAUtm@@@Z 004416a0 f i libcpmtd:wlocale.obj
 0001:000406f0       ?_Init@?$time_get@GV?$istreambuf_iterator@GU?$char_traits@G@std@@@std@@@std@@IAEXABV_Locinfo@2@@Z 004416f0 f i libcpmtd:wlocale.obj
 0001:00040730       ?_Getdays@_Locinfo@std@@QBEPBDXZ 00441730 f i libcpmtd:wlocale.obj
 0001:00040790       ?_Getmonths@_Locinfo@std@@QBEPBDXZ 00441790 f i libcpmtd:wlocale.obj
 0001:000407f0       ?_Getint@?$time_get@GV?$istreambuf_iterator@GU?$char_traits@G@std@@@std@@@std@@CAHAAV?$istreambuf_iterator@GU?$char_traits@G@std@@@2@0HHAAH@Z 004417f0 f i libcpmtd:wlocale.obj
 0001:00040a10       ??E?$ostreambuf_iterator@GU?$char_traits@G@std@@@std@@QAEAAV01@H@Z 00441a10 f i libcpmtd:wlocale.obj
 0001:00040a20       ??E?$istreambuf_iterator@GU?$char_traits@G@std@@@std@@QAE?AV01@H@Z 00441a20 f i libcpmtd:wlocale.obj
 0001:00040a70       ?_Inc@?$istreambuf_iterator@GU?$char_traits@G@std@@@std@@AAEXXZ 00441a70 f i libcpmtd:wlocale.obj
 0001:00040ad0       ?sbumpc@?$basic_streambuf@GU?$char_traits@G@std@@@std@@QAEGXZ 00441ad0 f i libcpmtd:wlocale.obj
 0001:00040b30       ?_Peek@?$istreambuf_iterator@GU?$char_traits@G@std@@@std@@AAEGXZ 00441b30 f i libcpmtd:wlocale.obj
 0001:00040bb0       ?sgetc@?$basic_streambuf@GU?$char_traits@G@std@@@std@@QAEGXZ 00441bb0 f i libcpmtd:wlocale.obj
 0001:00040c10       ?decimal_point@?$numpunct@G@std@@QBEGXZ 00441c10 f i libcpmtd:wlocale.obj
 0001:00040c30       ?thousands_sep@?$numpunct@G@std@@QBEGXZ 00441c30 f i libcpmtd:wlocale.obj
 0001:00040c50       ?grouping@?$numpunct@G@std@@QBE?AV?$basic_string@DU?$char_traits@D@std@@V?$allocator@D@2@@2@XZ 00441c50 f i libcpmtd:wlocale.obj
 0001:00040c80       ?_Put@?$money_put@GV?$ostreambuf_iterator@GU?$char_traits@G@std@@@std@@@std@@CA?AV?$ostreambuf_iterator@GU?$char_traits@G@std@@@2@V32@PBGI@Z 00441c80 f i libcpmtd:wlocale.obj
 0001:00040cd0       ?_Rep@?$money_put@GV?$ostreambuf_iterator@GU?$char_traits@G@std@@@std@@@std@@CA?AV?$ostreambuf_iterator@GU?$char_traits@G@std@@@2@V32@GI@Z 00441cd0 f i libcpmtd:wlocale.obj
 0001:00040d20       ?append@?$basic_string@GU?$char_traits@G@std@@V?$allocator@G@2@@std@@QAEAAV12@ABV12@@Z 00441d20 f i libcpmtd:wlocale.obj
 0001:00040d50       ?assign@?$basic_string@GU?$char_traits@G@std@@V?$allocator@G@2@@std@@QAEAAV12@ABV12@@Z 00441d50 f i libcpmtd:wlocale.obj
 0001:00040d80       ?assign@?$basic_string@GU?$char_traits@G@std@@V?$allocator@G@2@@std@@QAEAAV12@ABV12@II@Z 00441d80 f i libcpmtd:wlocale.obj
 0001:00040ee0       ?assign@?$basic_string@GU?$char_traits@G@std@@V?$allocator@G@2@@std@@QAEAAV12@PBGI@Z 00441ee0 f i libcpmtd:wlocale.obj
 0001:00040f30       ?assign@?$basic_string@GU?$char_traits@G@std@@V?$allocator@G@2@@std@@QAEAAV12@PBG@Z 00441f30 f i libcpmtd:wlocale.obj
 0001:00040f60       ?length@?$char_traits@G@std@@SAIPBG@Z 00441f60 f i libcpmtd:wlocale.obj
 0001:00040f80       ?assign@?$basic_string@GU?$char_traits@G@std@@V?$allocator@G@2@@std@@QAEAAV12@IG@Z 00441f80 f i libcpmtd:wlocale.obj
 0001:00040fe0       ?insert@?$basic_string@GU?$char_traits@G@std@@V?$allocator@G@2@@std@@QAEAAV12@IIG@Z 00441fe0 f i libcpmtd:wlocale.obj
 0001:000410a0       ?move@?$char_traits@G@std@@SAPAGPAGPBGI@Z 004420a0 f i libcpmtd:wlocale.obj
 0001:000410c0       _wmemmove                  004420c0 f i libcpmtd:wlocale.obj
 0001:00041170       ?erase@?$basic_string@GU?$char_traits@G@std@@V?$allocator@G@2@@std@@QAEAAV12@II@Z 00442170 f i libcpmtd:wlocale.obj
 0001:00041220       ?_Eos@?$basic_string@GU?$char_traits@G@std@@V?$allocator@G@2@@std@@AAEXI@Z 00442220 f i libcpmtd:wlocale.obj
 0001:00041260       ?assign@?$char_traits@G@std@@SAXAAGABG@Z 00442260 f i libcpmtd:wlocale.obj
 0001:00041280       ?_Freeze@?$basic_string@GU?$char_traits@G@std@@V?$allocator@G@2@@std@@AAEXXZ 00442280 f i libcpmtd:wlocale.obj
 0001:00041300       ?_Grow@?$basic_string@GU?$char_traits@G@std@@V?$allocator@G@2@@std@@AAE_NI_N@Z 00442300 f i libcpmtd:wlocale.obj
 0001:00041440       ?_Nullstr@?$basic_string@GU?$char_traits@G@std@@V?$allocator@G@2@@std@@CAPBGXZ 00442440 f i libcpmtd:wlocale.obj
 0001:00041450       ?_Psum@?$basic_string@GU?$char_traits@G@std@@V?$allocator@G@2@@std@@CAPAGPAGI@Z 00442450 f i libcpmtd:wlocale.obj
 0001:00041480       ?_Tidy@?$basic_string@GU?$char_traits@G@std@@V?$allocator@G@2@@std@@AAEX_N@Z 00442480 f i libcpmtd:wlocale.obj
 0001:00041540       ?decimal_point@?$_Mpunct@G@std@@QBEGXZ 00442540 f i libcpmtd:wlocale.obj
 0001:00041560       ?thousands_sep@?$_Mpunct@G@std@@QBEGXZ 00442560 f i libcpmtd:wlocale.obj
 0001:00041580       ?grouping@?$_Mpunct@G@std@@QBE?AV?$basic_string@DU?$char_traits@D@std@@V?$allocator@D@2@@2@XZ 00442580 f i libcpmtd:wlocale.obj
 0001:000415b0       ?curr_symbol@?$_Mpunct@G@std@@QBE?AV?$basic_string@GU?$char_traits@G@std@@V?$allocator@G@2@@2@XZ 004425b0 f i libcpmtd:wlocale.obj
 0001:000415e0       ?positive_sign@?$_Mpunct@G@std@@QBE?AV?$basic_string@GU?$char_traits@G@std@@V?$allocator@G@2@@2@XZ 004425e0 f i libcpmtd:wlocale.obj
 0001:00041610       ?negative_sign@?$_Mpunct@G@std@@QBE?AV?$basic_string@GU?$char_traits@G@std@@V?$allocator@G@2@@2@XZ 00442610 f i libcpmtd:wlocale.obj
 0001:00041640       ?frac_digits@?$_Mpunct@G@std@@QBEHXZ 00442640 f i libcpmtd:wlocale.obj
 0001:00041660       ?pos_format@?$_Mpunct@G@std@@QBE?AUpattern@money_base@2@XZ 00442660 f i libcpmtd:wlocale.obj
 0001:00041690       ?neg_format@?$_Mpunct@G@std@@QBE?AUpattern@money_base@2@XZ 00442690 f i libcpmtd:wlocale.obj
 0001:000416c0       ?_Init@?$_Mpunct@G@std@@IAEXABV_Locinfo@2@@Z 004426c0 f i libcpmtd:wlocale.obj
 0001:00041870       ?append@?$basic_string@GU?$char_traits@G@std@@V?$allocator@G@2@@std@@QAEAAV12@ABV12@II@Z 00442870 f i libcpmtd:wlocale.obj
 0001:00041930       ?max_size@?$basic_string@GU?$char_traits@G@std@@V?$allocator@G@2@@std@@QBEIXZ 00442930 f i libcpmtd:wlocale.obj
 0001:00041970       ?capacity@?$basic_string@GU?$char_traits@G@std@@V?$allocator@G@2@@std@@QBEIXZ 00442970 f i libcpmtd:wlocale.obj
 0001:00041990       ?_Copy@?$basic_string@GU?$char_traits@G@std@@V?$allocator@G@2@@std@@AAEXI@Z 00442990 f i libcpmtd:wlocale.obj
 0001:00041ad0       ?_Refcnt@?$basic_string@GU?$char_traits@G@std@@V?$allocator@G@2@@std@@AAEAAEPBG@Z 00442ad0 f i libcpmtd:wlocale.obj
 0001:00041af0       ?_Split@?$basic_string@GU?$char_traits@G@std@@V?$allocator@G@2@@std@@AAEXXZ 00442af0 f i libcpmtd:wlocale.obj
 0001:00041b60       ?deallocate@?$allocator@G@std@@QAEXPAXI@Z 00442b60 f i libcpmtd:wlocale.obj
 0001:00041b80       ?_Makpat@?$_Mpunct@G@std@@AAEXAAUpattern@money_base@2@DDD@Z 00442b80 f i libcpmtd:wlocale.obj
 0001:00041c20       ?allocate@?$allocator@G@std@@QAEPAGIPBX@Z 00442c20 f i libcpmtd:wlocale.obj
 0001:00041c40       ?max_size@?$allocator@G@std@@QBEIXZ 00442c40 f i libcpmtd:wlocale.obj
 0001:00041c70       ?use_facet@std@@YAABV?$ctype@G@1@ABVlocale@1@PBV21@_N@Z 00442c70 f i libcpmtd:wlocale.obj
 0001:00041d90       ?use_facet@std@@YAABV?$num_get@GV?$istreambuf_iterator@GU?$char_traits@G@std@@@std@@@1@ABVlocale@1@PBV21@_N@Z 00442d90 f i libcpmtd:wlocale.obj
 0001:00041eb0       ?use_facet@std@@YAABV?$num_put@GV?$ostreambuf_iterator@GU?$char_traits@G@std@@@std@@@1@ABVlocale@1@PBV21@_N@Z 00442eb0 f i libcpmtd:wlocale.obj
 0001:00041fd0       ?use_facet@std@@YAABV?$numpunct@G@1@ABVlocale@1@PBV21@_N@Z 00442fd0 f i libcpmtd:wlocale.obj
 0001:000420f0       ?use_facet@std@@YAABV?$collate@G@1@ABVlocale@1@PBV21@_N@Z 004430f0 f i libcpmtd:wlocale.obj
 0001:00042210       ?use_facet@std@@YAABV?$messages@G@1@ABVlocale@1@PBV21@_N@Z 00443210 f i libcpmtd:wlocale.obj
 0001:00042330       ?use_facet@std@@YAABV?$money_get@GV?$istreambuf_iterator@GU?$char_traits@G@std@@@std@@@1@ABVlocale@1@PBV21@_N@Z 00443330 f i libcpmtd:wlocale.obj
 0001:00042450       ?use_facet@std@@YAABV?$money_put@GV?$ostreambuf_iterator@GU?$char_traits@G@std@@@std@@@1@ABVlocale@1@PBV21@_N@Z 00443450 f i libcpmtd:wlocale.obj
 0001:00042570       ?use_facet@std@@YAABV?$moneypunct@G$0A@@1@ABVlocale@1@PBV21@_N@Z 00443570 f i libcpmtd:wlocale.obj
 0001:00042690       ?use_facet@std@@YAABV?$moneypunct@G$00@1@ABVlocale@1@PBV21@_N@Z 00443690 f i libcpmtd:wlocale.obj
 0001:000427b0       ?use_facet@std@@YAABV?$time_get@GV?$istreambuf_iterator@GU?$char_traits@G@std@@@std@@@1@ABVlocale@1@PBV21@_N@Z 004437b0 f i libcpmtd:wlocale.obj
 0001:000428d0       ?use_facet@std@@YAABV?$time_put@GV?$ostreambuf_iterator@GU?$char_traits@G@std@@@std@@@1@ABVlocale@1@PBV21@_N@Z 004438d0 f i libcpmtd:wlocale.obj
 0001:000429f0       ?use_facet@std@@YAABV?$codecvt@GDH@1@ABVlocale@1@PBV21@_N@Z 004439f0 f i libcpmtd:wlocale.obj
 0001:00042b10       ??0?$codecvt@GDH@std@@QAE@I@Z 00443b10 f i libcpmtd:wlocale.obj
 0001:00042ba0       ?_Getloctxt@std@@YAHAAV?$istreambuf_iterator@GU?$char_traits@G@std@@@1@0IPBG@Z 00443ba0 f i libcpmtd:wlocale.obj
 0001:00042df0       ??8std@@YA_NABV?$istreambuf_iterator@GU?$char_traits@G@std@@@0@0@Z 00443df0 f i libcpmtd:wlocale.obj
 0001:00042e10       ?_Strcoll@std@@YAHPBG000PBU_Collvec@@@Z 00443e10 f i libcpmtd:wlocale.obj
 0001:00042ea0       ?_Strxfrm@std@@YAIPAG0PBG1PBU_Collvec@@@Z 00443ea0 f i libcpmtd:wlocale.obj
 0001:00042ee0       ??9std@@YA_NABV?$istreambuf_iterator@GU?$char_traits@G@std@@@0@0@Z 00443ee0 f i libcpmtd:wlocale.obj
 0001:00042f00       ?_Maklocstr@std@@YAPAGPBDPAG@Z 00443f00 f i libcpmtd:wlocale.obj
 0001:00042f80       ??8std@@YA_NABV?$allocator@G@0@0@Z 00443f80 f i libcpmtd:wlocale.obj
 0001:00042f90       ?_Allocate@std@@YAPAGHPAG@Z 00443f90 f i libcpmtd:wlocale.obj
 0001:00042fb0       ??0?$ctype@G@std@@QAE@I@Z  00443fb0 f i libcpmtd:wlocale.obj
 0001:00043040       ??0?$time_put@GV?$ostreambuf_iterator@GU?$char_traits@G@std@@@std@@@std@@QAE@I@Z 00444040 f i libcpmtd:wlocale.obj
 0001:000430e0       ??0?$num_get@GV?$istreambuf_iterator@GU?$char_traits@G@std@@@std@@@std@@QAE@I@Z 004440e0 f i libcpmtd:wlocale.obj
 0001:00043170       ?equal@?$istreambuf_iterator@GU?$char_traits@G@std@@@std@@QBE_NABV12@@Z 00444170 f i libcpmtd:wlocale.obj
 0001:000431e0       ??0?$num_put@GV?$ostreambuf_iterator@GU?$char_traits@G@std@@@std@@@std@@QAE@I@Z 004441e0 f i libcpmtd:wlocale.obj
 0001:00043270       ??0?$numpunct@G@std@@QAE@I@Z 00444270 f i libcpmtd:wlocale.obj
 0001:00043300       ??0?$collate@G@std@@QAE@I@Z 00444300 f i libcpmtd:wlocale.obj
 0001:00043390       ??0?$messages@G@std@@QAE@I@Z 00444390 f i libcpmtd:wlocale.obj
 0001:00043420       ??0?$money_get@GV?$istreambuf_iterator@GU?$char_traits@G@std@@@std@@@std@@QAE@I@Z 00444420 f i libcpmtd:wlocale.obj
 0001:000434b0       ??0?$money_put@GV?$ostreambuf_iterator@GU?$char_traits@G@std@@@std@@@std@@QAE@I@Z 004444b0 f i libcpmtd:wlocale.obj
 0001:00043540       ??0?$moneypunct@G$0A@@std@@QAE@I@Z 00444540 f i libcpmtd:wlocale.obj
 0001:00043570       ??0?$moneypunct@G$00@std@@QAE@I@Z 00444570 f i libcpmtd:wlocale.obj
 0001:000435a0       ??0?$time_get@GV?$istreambuf_iterator@GU?$char_traits@G@std@@@std@@@std@@QAE@I@Z 004445a0 f i libcpmtd:wlocale.obj
 0001:00043630       ?_Save@?$_Tidyfac@V?$ctype@G@std@@@std@@SAPAV?$ctype@G@2@PAV32@@Z 00444630 f i libcpmtd:wlocale.obj
 0001:000436a0       ?_Save@?$_Tidyfac@V?$num_get@GV?$istreambuf_iterator@GU?$char_traits@G@std@@@std@@@std@@@std@@SAPAV?$num_get@GV?$istreambuf_iterator@GU?$char_traits@G@std@@@std@@@2@PAV32@@Z 004446a0 f i libcpmtd:wlocale.obj
 0001:00043710       ?_Save@?$_Tidyfac@V?$num_put@GV?$ostreambuf_iterator@GU?$char_traits@G@std@@@std@@@std@@@std@@SAPAV?$num_put@GV?$ostreambuf_iterator@GU?$char_traits@G@std@@@std@@@2@PAV32@@Z 00444710 f i libcpmtd:wlocale.obj
 0001:00043780       ?_Save@?$_Tidyfac@V?$numpunct@G@std@@@std@@SAPAV?$numpunct@G@2@PAV32@@Z 00444780 f i libcpmtd:wlocale.obj
 0001:000437f0       ?_Save@?$_Tidyfac@V?$collate@G@std@@@std@@SAPAV?$collate@G@2@PAV32@@Z 004447f0 f i libcpmtd:wlocale.obj
 0001:00043860       ?_Save@?$_Tidyfac@V?$messages@G@std@@@std@@SAPAV?$messages@G@2@PAV32@@Z 00444860 f i libcpmtd:wlocale.obj
 0001:000438d0       ?_Save@?$_Tidyfac@V?$money_get@GV?$istreambuf_iterator@GU?$char_traits@G@std@@@std@@@std@@@std@@SAPAV?$money_get@GV?$istreambuf_iterator@GU?$char_traits@G@std@@@std@@@2@PAV32@@Z 004448d0 f i libcpmtd:wlocale.obj
 0001:00043940       ?_Save@?$_Tidyfac@V?$money_put@GV?$ostreambuf_iterator@GU?$char_traits@G@std@@@std@@@std@@@std@@SAPAV?$money_put@GV?$ostreambuf_iterator@GU?$char_traits@G@std@@@std@@@2@PAV32@@Z 00444940 f i libcpmtd:wlocale.obj
 0001:000439b0       ?_Save@?$_Tidyfac@V?$moneypunct@G$0A@@std@@@std@@SAPAV?$moneypunct@G$0A@@2@PAV32@@Z 004449b0 f i libcpmtd:wlocale.obj
 0001:00043a20       ?_Save@?$_Tidyfac@V?$moneypunct@G$00@std@@@std@@SAPAV?$moneypunct@G$00@2@PAV32@@Z 00444a20 f i libcpmtd:wlocale.obj
 0001:00043a90       ?_Save@?$_Tidyfac@V?$time_get@GV?$istreambuf_iterator@GU?$char_traits@G@std@@@std@@@std@@@std@@SAPAV?$time_get@GV?$istreambuf_iterator@GU?$char_traits@G@std@@@std@@@2@PAV32@@Z 00444a90 f i libcpmtd:wlocale.obj
 0001:00043b00       ?_Save@?$_Tidyfac@V?$time_put@GV?$ostreambuf_iterator@GU?$char_traits@G@std@@@std@@@std@@@std@@SAPAV?$time_put@GV?$ostreambuf_iterator@GU?$char_traits@G@std@@@std@@@2@PAV32@@Z 00444b00 f i libcpmtd:wlocale.obj
 0001:00043b70       ?_Save@?$_Tidyfac@V?$codecvt@GDH@std@@@std@@SAPAV?$codecvt@GDH@2@PAV32@@Z 00444b70 f i libcpmtd:wlocale.obj
 0001:00043be0       ??0?$_Mpunct@G@std@@QAE@I_N@Z 00444be0 f i libcpmtd:wlocale.obj
 0001:00043c70       ?_Tidy@?$_Tidyfac@V?$ctype@G@std@@@std@@SAXXZ 00444c70 f i libcpmtd:wlocale.obj
 0001:00043d00       ?_Tidy@?$_Tidyfac@V?$num_get@GV?$istreambuf_iterator@GU?$char_traits@G@std@@@std@@@std@@@std@@SAXXZ 00444d00 f i libcpmtd:wlocale.obj
 0001:00043d90       ?_Tidy@?$_Tidyfac@V?$num_put@GV?$ostreambuf_iterator@GU?$char_traits@G@std@@@std@@@std@@@std@@SAXXZ 00444d90 f i libcpmtd:wlocale.obj
 0001:00043e20       ?_Tidy@?$_Tidyfac@V?$numpunct@G@std@@@std@@SAXXZ 00444e20 f i libcpmtd:wlocale.obj
 0001:00043eb0       ?_Tidy@?$_Tidyfac@V?$collate@G@std@@@std@@SAXXZ 00444eb0 f i libcpmtd:wlocale.obj
 0001:00043f40       ?_Tidy@?$_Tidyfac@V?$messages@G@std@@@std@@SAXXZ 00444f40 f i libcpmtd:wlocale.obj
 0001:00043fd0       ?_Tidy@?$_Tidyfac@V?$money_get@GV?$istreambuf_iterator@GU?$char_traits@G@std@@@std@@@std@@@std@@SAXXZ 00444fd0 f i libcpmtd:wlocale.obj
 0001:00044060       ?_Tidy@?$_Tidyfac@V?$money_put@GV?$ostreambuf_iterator@GU?$char_traits@G@std@@@std@@@std@@@std@@SAXXZ 00445060 f i libcpmtd:wlocale.obj
 0001:000440f0       ?_Tidy@?$_Tidyfac@V?$moneypunct@G$0A@@std@@@std@@SAXXZ 004450f0 f i libcpmtd:wlocale.obj
 0001:00044180       ?_Tidy@?$_Tidyfac@V?$moneypunct@G$00@std@@@std@@SAXXZ 00445180 f i libcpmtd:wlocale.obj
 0001:00044210       ?_Tidy@?$_Tidyfac@V?$time_get@GV?$istreambuf_iterator@GU?$char_traits@G@std@@@std@@@std@@@std@@SAXXZ 00445210 f i libcpmtd:wlocale.obj
 0001:000442a0       ?_Tidy@?$_Tidyfac@V?$time_put@GV?$ostreambuf_iterator@GU?$char_traits@G@std@@@std@@@std@@@std@@SAXXZ 004452a0 f i libcpmtd:wlocale.obj
 0001:00044330       ?_Tidy@?$_Tidyfac@V?$codecvt@GDH@std@@@std@@SAXXZ 00445330 f i libcpmtd:wlocale.obj
 0001:000443f0       ?_Makexloc@_Locimp@locale@std@@CAXABV_Locinfo@3@HPAV123@PBV23@@Z 004453f0 f   libcpmtd:xlocale.obj
 0001:000448f0       ??0?$collate@D@std@@QAE@ABV_Locinfo@1@I@Z 004458f0 f i libcpmtd:xlocale.obj
 0001:00044950       ?_Getcat@?$collate@D@std@@SAIXZ 00445950 f i libcpmtd:xlocale.obj
 0001:00044960       ?do_compare@?$collate@D@std@@MBEHPBD000@Z 00445960 f i libcpmtd:xlocale.obj
 0001:00044990       ?do_transform@?$collate@D@std@@MBE?AV?$basic_string@DU?$char_traits@D@std@@V?$allocator@D@2@@2@PBD0@Z 00445990 f i libcpmtd:xlocale.obj
 0001:00044a90       ?do_hash@?$collate@D@std@@MBEJPBD0@Z 00445a90 f i libcpmtd:xlocale.obj
 0001:00044ae0       ??0?$messages@D@std@@QAE@ABV_Locinfo@1@I@Z 00445ae0 f i libcpmtd:xlocale.obj
 0001:00044b40       ?_Getcat@?$messages@D@std@@SAIXZ 00445b40 f i libcpmtd:xlocale.obj
 0001:00044b50       ?do_open@?$messages@D@std@@MBEHABV?$basic_string@DU?$char_traits@D@std@@V?$allocator@D@2@@2@ABVlocale@2@@Z 00445b50 f i libcpmtd:xlocale.obj
 0001:00044b60       ?do_get@?$messages@D@std@@MBE?AV?$basic_string@DU?$char_traits@D@std@@V?$allocator@D@2@@2@HHHABV32@@Z 00445b60 f i libcpmtd:xlocale.obj
 0001:00044be0       ?do_close@?$messages@D@std@@MBEXH@Z 00445be0 f i libcpmtd:xlocale.obj
 0001:00044bf0       ??0?$money_get@DV?$istreambuf_iterator@DU?$char_traits@D@std@@@std@@@std@@QAE@ABV_Locinfo@1@I@Z 00445bf0 f i libcpmtd:xlocale.obj
 0001:00044c50       ?_Getcat@?$money_get@DV?$istreambuf_iterator@DU?$char_traits@D@std@@@std@@@std@@SAIXZ 00445c50 f i libcpmtd:xlocale.obj
 0001:00044c60       ?do_get@?$money_get@DV?$istreambuf_iterator@DU?$char_traits@D@std@@@std@@@std@@MBE?AV?$istreambuf_iterator@DU?$char_traits@D@std@@@2@V32@0_NAAVios_base@2@AAHAAO@Z 00445c60 f i libcpmtd:xlocale.obj
 0001:00044de0       ?do_get@?$money_get@DV?$istreambuf_iterator@DU?$char_traits@D@std@@@std@@@std@@MBE?AV?$istreambuf_iterator@DU?$char_traits@D@std@@@2@V32@0_NAAVios_base@2@AAHAAV?$basic_string@DU?$char_traits@D@std@@V?$allocator@D@2@@2@@Z 00445de0 f i libcpmtd:xlocale.obj
 0001:00044ea0       ??0?$money_put@DV?$ostreambuf_iterator@DU?$char_traits@D@std@@@std@@@std@@QAE@ABV_Locinfo@1@I@Z 00445ea0 f i libcpmtd:xlocale.obj
 0001:00044f00       ?_Getcat@?$money_put@DV?$ostreambuf_iterator@DU?$char_traits@D@std@@@std@@@std@@SAIXZ 00445f00 f i libcpmtd:xlocale.obj
 0001:00044f10       ?do_put@?$money_put@DV?$ostreambuf_iterator@DU?$char_traits@D@std@@@std@@@std@@MBE?AV?$ostreambuf_iterator@DU?$char_traits@D@std@@@2@V32@_NAAVios_base@2@DO@Z 00445f10 f i libcpmtd:xlocale.obj
 0001:00045080       ?do_put@?$money_put@DV?$ostreambuf_iterator@DU?$char_traits@D@std@@@std@@@std@@MBE?AV?$ostreambuf_iterator@DU?$char_traits@D@std@@@2@V32@_NAAVios_base@2@DABV?$basic_string@DU?$char_traits@D@std@@V?$allocator@D@2@@2@@Z 00446080 f i libcpmtd:xlocale.obj
 0001:000451f0       ??0?$moneypunct@D$0A@@std@@QAE@ABV_Locinfo@1@I@Z 004461f0 f i libcpmtd:xlocale.obj
 0001:00045220       ?_Getcat@?$moneypunct@D$0A@@std@@SAIXZ 00446220 f i libcpmtd:xlocale.obj
 0001:00045230       ?do_decimal_point@?$_Mpunct@D@std@@MBEDXZ 00446230 f i libcpmtd:xlocale.obj
 0001:00045250       ?do_thousands_sep@?$_Mpunct@D@std@@MBEDXZ 00446250 f i libcpmtd:xlocale.obj
 0001:00045270       ?do_grouping@?$_Mpunct@D@std@@MBE?AV?$basic_string@DU?$char_traits@D@std@@V?$allocator@D@2@@2@XZ 00446270 f i libcpmtd:xlocale.obj
 0001:000452b0       ?do_curr_symbol@?$_Mpunct@D@std@@MBE?AV?$basic_string@DU?$char_traits@D@std@@V?$allocator@D@2@@2@XZ 004462b0 f i libcpmtd:xlocale.obj
 0001:000452f0       ?do_positive_sign@?$_Mpunct@D@std@@MBE?AV?$basic_string@DU?$char_traits@D@std@@V?$allocator@D@2@@2@XZ 004462f0 f i libcpmtd:xlocale.obj
 0001:00045330       ?do_negative_sign@?$_Mpunct@D@std@@MBE?AV?$basic_string@DU?$char_traits@D@std@@V?$allocator@D@2@@2@XZ 00446330 f i libcpmtd:xlocale.obj
 0001:00045370       ?do_frac_digits@?$_Mpunct@D@std@@MBEHXZ 00446370 f i libcpmtd:xlocale.obj
 0001:00045390       ?do_pos_format@?$_Mpunct@D@std@@MBE?AUpattern@money_base@2@XZ 00446390 f i libcpmtd:xlocale.obj
 0001:000453b0       ?do_neg_format@?$_Mpunct@D@std@@MBE?AUpattern@money_base@2@XZ 004463b0 f i libcpmtd:xlocale.obj
 0001:000453d0       ??0?$moneypunct@D$00@std@@QAE@ABV_Locinfo@1@I@Z 004463d0 f i libcpmtd:xlocale.obj
 0001:00045400       ?_Getcat@?$moneypunct@D$00@std@@SAIXZ 00446400 f i libcpmtd:xlocale.obj
 0001:00045410       ??0?$time_get@DV?$istreambuf_iterator@DU?$char_traits@D@std@@@std@@@std@@QAE@ABV_Locinfo@1@I@Z 00446410 f i libcpmtd:xlocale.obj
 0001:00045470       ?_Getcat@?$time_get@DV?$istreambuf_iterator@DU?$char_traits@D@std@@@std@@@std@@SAIXZ 00446470 f i libcpmtd:xlocale.obj
 0001:00045480       ?do_date_order@?$time_get@DV?$istreambuf_iterator@DU?$char_traits@D@std@@@std@@@std@@MBEHXZ 00446480 f i libcpmtd:xlocale.obj
 0001:00045490       ?do_get_time@?$time_get@DV?$istreambuf_iterator@DU?$char_traits@D@std@@@std@@@std@@MBE?AV?$istreambuf_iterator@DU?$char_traits@D@std@@@2@V32@0AAVios_base@2@AAHPAUtm@@@Z 00446490 f i libcpmtd:xlocale.obj
 0001:00045590       ?do_get_date@?$time_get@DV?$istreambuf_iterator@DU?$char_traits@D@std@@@std@@@std@@MBE?AV?$istreambuf_iterator@DU?$char_traits@D@std@@@2@V32@0AAVios_base@2@AAHPAUtm@@@Z 00446590 f i libcpmtd:xlocale.obj
 0001:00045730       ?do_get_weekday@?$time_get@DV?$istreambuf_iterator@DU?$char_traits@D@std@@@std@@@std@@MBE?AV?$istreambuf_iterator@DU?$char_traits@D@std@@@2@V32@0AAVios_base@2@AAHPAUtm@@@Z 00446730 f i libcpmtd:xlocale.obj
 0001:00045790       ?do_get_monthname@?$time_get@DV?$istreambuf_iterator@DU?$char_traits@D@std@@@std@@@std@@MBE?AV?$istreambuf_iterator@DU?$char_traits@D@std@@@2@V32@0AAVios_base@2@AAHPAUtm@@@Z 00446790 f i libcpmtd:xlocale.obj
 0001:000457f0       ?do_get_year@?$time_get@DV?$istreambuf_iterator@DU?$char_traits@D@std@@@std@@@std@@MBE?AV?$istreambuf_iterator@DU?$char_traits@D@std@@@2@V32@0AAVios_base@2@AAHPAUtm@@@Z 004467f0 f i libcpmtd:xlocale.obj
 0001:00045890       ??0?$time_put@DV?$ostreambuf_iterator@DU?$char_traits@D@std@@@std@@@std@@QAE@ABV_Locinfo@1@I@Z 00446890 f i libcpmtd:xlocale.obj
 0001:00045900       ?_Getcat@?$time_put@DV?$ostreambuf_iterator@DU?$char_traits@D@std@@@std@@@std@@SAIXZ 00446900 f i libcpmtd:xlocale.obj
 0001:00045910       ?do_put@?$time_put@DV?$ostreambuf_iterator@DU?$char_traits@D@std@@@std@@@std@@MBE?AV?$ostreambuf_iterator@DU?$char_traits@D@std@@@2@V32@AAVios_base@2@PBUtm@@DD@Z 00446910 f i libcpmtd:xlocale.obj
 0001:00045a50       ??_E?$collate@D@std@@UAEPAXI@Z 00446a50 f i libcpmtd:xlocale.obj
 0001:00045a50       ??_G?$collate@D@std@@UAEPAXI@Z 00446a50 f i libcpmtd:xlocale.obj
 0001:00045a80       ??1?$collate@D@std@@UAE@XZ 00446a80 f i libcpmtd:xlocale.obj
 0001:00045aa0       ??_E?$messages@D@std@@UAEPAXI@Z 00446aa0 f i libcpmtd:xlocale.obj
 0001:00045aa0       ??_G?$messages@D@std@@UAEPAXI@Z 00446aa0 f i libcpmtd:xlocale.obj
 0001:00045ad0       ??1?$messages@D@std@@UAE@XZ 00446ad0 f i libcpmtd:xlocale.obj
 0001:00045b20       ??_G?$money_get@DV?$istreambuf_iterator@DU?$char_traits@D@std@@@std@@@std@@UAEPAXI@Z 00446b20 f i libcpmtd:xlocale.obj
 0001:00045b20       ??_E?$money_get@DV?$istreambuf_iterator@DU?$char_traits@D@std@@@std@@@std@@UAEPAXI@Z 00446b20 f i libcpmtd:xlocale.obj
 0001:00045b50       ??1?$money_get@DV?$istreambuf_iterator@DU?$char_traits@D@std@@@std@@@std@@UAE@XZ 00446b50 f i libcpmtd:xlocale.obj
 0001:00045b70       ??_E?$money_put@DV?$ostreambuf_iterator@DU?$char_traits@D@std@@@std@@@std@@UAEPAXI@Z 00446b70 f i libcpmtd:xlocale.obj
 0001:00045b70       ??_G?$money_put@DV?$ostreambuf_iterator@DU?$char_traits@D@std@@@std@@@std@@UAEPAXI@Z 00446b70 f i libcpmtd:xlocale.obj
 0001:00045ba0       ??1?$money_put@DV?$ostreambuf_iterator@DU?$char_traits@D@std@@@std@@@std@@UAE@XZ 00446ba0 f i libcpmtd:xlocale.obj
 0001:00045bc0       ??_E?$moneypunct@D$0A@@std@@UAEPAXI@Z 00446bc0 f i libcpmtd:xlocale.obj
 0001:00045bc0       ??_G?$moneypunct@D$0A@@std@@UAEPAXI@Z 00446bc0 f i libcpmtd:xlocale.obj
 0001:00045bf0       ??_G?$moneypunct@D$00@std@@UAEPAXI@Z 00446bf0 f i libcpmtd:xlocale.obj
 0001:00045bf0       ??_E?$moneypunct@D$00@std@@UAEPAXI@Z 00446bf0 f i libcpmtd:xlocale.obj
 0001:00045c20       ??_G?$time_get@DV?$istreambuf_iterator@DU?$char_traits@D@std@@@std@@@std@@UAEPAXI@Z 00446c20 f i libcpmtd:xlocale.obj
 0001:00045c20       ??_E?$time_get@DV?$istreambuf_iterator@DU?$char_traits@D@std@@@std@@@std@@UAEPAXI@Z 00446c20 f i libcpmtd:xlocale.obj
 0001:00045c50       ??1?$time_get@DV?$istreambuf_iterator@DU?$char_traits@D@std@@@std@@@std@@UAE@XZ 00446c50 f i libcpmtd:xlocale.obj
 0001:00045ca0       ??_G?$time_put@DV?$ostreambuf_iterator@DU?$char_traits@D@std@@@std@@@std@@UAEPAXI@Z 00446ca0 f i libcpmtd:xlocale.obj
 0001:00045ca0       ??_E?$time_put@DV?$ostreambuf_iterator@DU?$char_traits@D@std@@@std@@@std@@UAEPAXI@Z 00446ca0 f i libcpmtd:xlocale.obj
 0001:00045cd0       ??1?$time_put@DV?$ostreambuf_iterator@DU?$char_traits@D@std@@@std@@@std@@UAE@XZ 00446cd0 f i libcpmtd:xlocale.obj
 0001:00045d30       ??1?$moneypunct@D$0A@@std@@UAE@XZ 00446d30 f i libcpmtd:xlocale.obj
 0001:00045d50       ??1?$_Mpunct@D@std@@UAE@XZ 00446d50 f i libcpmtd:xlocale.obj
 0001:00045dd0       ??_G?$_Mpunct@D@std@@UAEPAXI@Z 00446dd0 f i libcpmtd:xlocale.obj
 0001:00045dd0       ??_E?$_Mpunct@D@std@@UAEPAXI@Z 00446dd0 f i libcpmtd:xlocale.obj
 0001:00045e00       ??1?$moneypunct@D$00@std@@UAE@XZ 00446e00 f i libcpmtd:xlocale.obj
 0001:00045e20       ??0?$basic_string@DU?$char_traits@D@std@@V?$allocator@D@2@@std@@QAE@PBDIABV?$allocator@D@1@@Z 00446e20 f i libcpmtd:xlocale.obj
 0001:00045e60       ?resize@?$basic_string@DU?$char_traits@D@std@@V?$allocator@D@2@@std@@QAEXI@Z 00446e60 f i libcpmtd:xlocale.obj
 0001:00045eb0       ?_Init@?$collate@D@std@@IAEXABV_Locinfo@2@@Z 00446eb0 f i libcpmtd:xlocale.obj
 0001:00045ee0       ?_Init@?$messages@D@std@@IAEXABV_Locinfo@2@@Z 00446ee0 f i libcpmtd:xlocale.obj
 0001:00045f20       ?_Init@?$money_get@DV?$istreambuf_iterator@DU?$char_traits@D@std@@@std@@@std@@IAEXABV_Locinfo@2@@Z 00446f20 f i libcpmtd:xlocale.obj
 0001:00045f30       ?_Getmfld@?$money_get@DV?$istreambuf_iterator@DU?$char_traits@D@std@@@std@@@std@@ABE?AV?$basic_string@DU?$char_traits@D@std@@V?$allocator@D@2@@2@AAV?$istreambuf_iterator@DU?$char_traits@D@std@@@2@0_NAAVios_base@2@@Z 00446f30 f i libcpmtd:xlocale.obj
 0001:000469d0       ?_Init@?$money_put@DV?$ostreambuf_iterator@DU?$char_traits@D@std@@@std@@@std@@IAEXABV_Locinfo@2@@Z 004479d0 f i libcpmtd:xlocale.obj
 0001:000469e0       ?_Putmfld@?$money_put@DV?$ostreambuf_iterator@DU?$char_traits@D@std@@@std@@@std@@ABE?AV?$ostreambuf_iterator@DU?$char_traits@D@std@@@2@V32@_NAAVios_base@2@D1V?$basic_string@DU?$char_traits@D@std@@V?$allocator@D@2@@2@@Z 004479e0 f i libcpmtd:xlocale.obj
 0001:00047250       ??0?$_Mpunct@D@std@@QAE@ABV_Locinfo@1@I_N@Z 00448250 f i libcpmtd:xlocale.obj
 0001:000472c0       ?get_monthname@?$time_get@DV?$istreambuf_iterator@DU?$char_traits@D@std@@@std@@@std@@QBE?AV?$istreambuf_iterator@DU?$char_traits@D@std@@@2@V32@0AAVios_base@2@AAHPAUtm@@@Z 004482c0 f i libcpmtd:xlocale.obj
 0001:00047310       ?get_year@?$time_get@DV?$istreambuf_iterator@DU?$char_traits@D@std@@@std@@@std@@QBE?AV?$istreambuf_iterator@DU?$char_traits@D@std@@@2@V32@0AAVios_base@2@AAHPAUtm@@@Z 00448310 f i libcpmtd:xlocale.obj
 0001:00047360       ?_Init@?$time_get@DV?$istreambuf_iterator@DU?$char_traits@D@std@@@std@@@std@@IAEXABV_Locinfo@2@@Z 00448360 f i libcpmtd:xlocale.obj
 0001:000473a0       ?_Getint@?$time_get@DV?$istreambuf_iterator@DU?$char_traits@D@std@@@std@@@std@@CAHAAV?$istreambuf_iterator@DU?$char_traits@D@std@@@2@0HHAAH@Z 004483a0 f i libcpmtd:xlocale.obj
 0001:000475b0       ?_Init@?$time_put@DV?$ostreambuf_iterator@DU?$char_traits@D@std@@@std@@@std@@IAEXABV_Locinfo@2@@Z 004485b0 f i libcpmtd:xlocale.obj
 0001:00047620       ?insert@?$basic_string@DU?$char_traits@D@std@@V?$allocator@D@2@@std@@QAEAAV12@IID@Z 00448620 f i libcpmtd:xlocale.obj
 0001:000476d0       ??E?$istreambuf_iterator@DU?$char_traits@D@std@@@std@@QAE?AV01@H@Z 004486d0 f i libcpmtd:xlocale.obj
 0001:00047720       ?_Put@?$money_put@DV?$ostreambuf_iterator@DU?$char_traits@D@std@@@std@@@std@@CA?AV?$ostreambuf_iterator@DU?$char_traits@D@std@@@2@V32@PBDI@Z 00448720 f i libcpmtd:xlocale.obj
 0001:00047770       ?_Rep@?$money_put@DV?$ostreambuf_iterator@DU?$char_traits@D@std@@@std@@@std@@CA?AV?$ostreambuf_iterator@DU?$char_traits@D@std@@@2@V32@DI@Z 00448770 f i libcpmtd:xlocale.obj
 0001:000477c0       ??E?$ostreambuf_iterator@DU?$char_traits@D@std@@@std@@QAEAAV01@H@Z 004487c0 f i libcpmtd:xlocale.obj
 0001:000477d0       ?decimal_point@?$_Mpunct@D@std@@QBEDXZ 004487d0 f i libcpmtd:xlocale.obj
 0001:000477f0       ?thousands_sep@?$_Mpunct@D@std@@QBEDXZ 004487f0 f i libcpmtd:xlocale.obj
 0001:00047810       ?grouping@?$_Mpunct@D@std@@QBE?AV?$basic_string@DU?$char_traits@D@std@@V?$allocator@D@2@@2@XZ 00448810 f i libcpmtd:xlocale.obj
 0001:00047840       ?curr_symbol@?$_Mpunct@D@std@@QBE?AV?$basic_string@DU?$char_traits@D@std@@V?$allocator@D@2@@2@XZ 00448840 f i libcpmtd:xlocale.obj
 0001:00047870       ?positive_sign@?$_Mpunct@D@std@@QBE?AV?$basic_string@DU?$char_traits@D@std@@V?$allocator@D@2@@2@XZ 00448870 f i libcpmtd:xlocale.obj
 0001:000478a0       ?negative_sign@?$_Mpunct@D@std@@QBE?AV?$basic_string@DU?$char_traits@D@std@@V?$allocator@D@2@@2@XZ 004488a0 f i libcpmtd:xlocale.obj
 0001:000478d0       ?frac_digits@?$_Mpunct@D@std@@QBEHXZ 004488d0 f i libcpmtd:xlocale.obj
 0001:000478f0       ?pos_format@?$_Mpunct@D@std@@QBE?AUpattern@money_base@2@XZ 004488f0 f i libcpmtd:xlocale.obj
 0001:00047920       ?neg_format@?$_Mpunct@D@std@@QBE?AUpattern@money_base@2@XZ 00448920 f i libcpmtd:xlocale.obj
 0001:00047950       ?_Init@?$_Mpunct@D@std@@IAEXABV_Locinfo@2@@Z 00448950 f i libcpmtd:xlocale.obj
 0001:00047af0       ?_Makpat@?$_Mpunct@D@std@@AAEXAAUpattern@money_base@2@DDD@Z 00448af0 f i libcpmtd:xlocale.obj
 0001:00047b90       ?use_facet@std@@YAABV?$collate@D@1@ABVlocale@1@PBV21@_N@Z 00448b90 f i libcpmtd:xlocale.obj
 0001:00047cb0       ?use_facet@std@@YAABV?$messages@D@1@ABVlocale@1@PBV21@_N@Z 00448cb0 f i libcpmtd:xlocale.obj
 0001:00047dd0       ?use_facet@std@@YAABV?$money_get@DV?$istreambuf_iterator@DU?$char_traits@D@std@@@std@@@1@ABVlocale@1@PBV21@_N@Z 00448dd0 f i libcpmtd:xlocale.obj
 0001:00047ef0       ?use_facet@std@@YAABV?$money_put@DV?$ostreambuf_iterator@DU?$char_traits@D@std@@@std@@@1@ABVlocale@1@PBV21@_N@Z 00448ef0 f i libcpmtd:xlocale.obj
 0001:00048010       ?use_facet@std@@YAABV?$moneypunct@D$0A@@1@ABVlocale@1@PBV21@_N@Z 00449010 f i libcpmtd:xlocale.obj
 0001:00048130       ?use_facet@std@@YAABV?$moneypunct@D$00@1@ABVlocale@1@PBV21@_N@Z 00449130 f i libcpmtd:xlocale.obj
 0001:00048250       ?use_facet@std@@YAABV?$time_get@DV?$istreambuf_iterator@DU?$char_traits@D@std@@@std@@@1@ABVlocale@1@PBV21@_N@Z 00449250 f i libcpmtd:xlocale.obj
 0001:00048370       ?use_facet@std@@YAABV?$time_put@DV?$ostreambuf_iterator@DU?$char_traits@D@std@@@std@@@1@ABVlocale@1@PBV21@_N@Z 00449370 f i libcpmtd:xlocale.obj
 0001:00048490       ?_Strcoll@std@@YAHPBD000PBU_Collvec@@@Z 00449490 f i libcpmtd:xlocale.obj
 0001:00048510       ?_Strxfrm@std@@YAIPAD0PBD1PBU_Collvec@@@Z 00449510 f i libcpmtd:xlocale.obj
 0001:00048550       ??0?$collate@D@std@@QAE@I@Z 00449550 f i libcpmtd:xlocale.obj
 0001:000485e0       ??0?$messages@D@std@@QAE@I@Z 004495e0 f i libcpmtd:xlocale.obj
 0001:00048670       ??0?$money_get@DV?$istreambuf_iterator@DU?$char_traits@D@std@@@std@@@std@@QAE@I@Z 00449670 f i libcpmtd:xlocale.obj
 0001:00048700       ??0?$money_put@DV?$ostreambuf_iterator@DU?$char_traits@D@std@@@std@@@std@@QAE@I@Z 00449700 f i libcpmtd:xlocale.obj
 0001:00048790       ??0?$moneypunct@D$0A@@std@@QAE@I@Z 00449790 f i libcpmtd:xlocale.obj
 0001:000487c0       ??0?$moneypunct@D$00@std@@QAE@I@Z 004497c0 f i libcpmtd:xlocale.obj
 0001:000487f0       ??0?$time_get@DV?$istreambuf_iterator@DU?$char_traits@D@std@@@std@@@std@@QAE@I@Z 004497f0 f i libcpmtd:xlocale.obj
 0001:00048880       ??0?$time_put@DV?$ostreambuf_iterator@DU?$char_traits@D@std@@@std@@@std@@QAE@I@Z 00449880 f i libcpmtd:xlocale.obj
 0001:00048920       ?_Save@?$_Tidyfac@V?$collate@D@std@@@std@@SAPAV?$collate@D@2@PAV32@@Z 00449920 f i libcpmtd:xlocale.obj
 0001:00048990       ?_Save@?$_Tidyfac@V?$messages@D@std@@@std@@SAPAV?$messages@D@2@PAV32@@Z 00449990 f i libcpmtd:xlocale.obj
 0001:00048a00       ?_Save@?$_Tidyfac@V?$money_get@DV?$istreambuf_iterator@DU?$char_traits@D@std@@@std@@@std@@@std@@SAPAV?$money_get@DV?$istreambuf_iterator@DU?$char_traits@D@std@@@std@@@2@PAV32@@Z 00449a00 f i libcpmtd:xlocale.obj
 0001:00048a70       ?_Save@?$_Tidyfac@V?$money_put@DV?$ostreambuf_iterator@DU?$char_traits@D@std@@@std@@@std@@@std@@SAPAV?$money_put@DV?$ostreambuf_iterator@DU?$char_traits@D@std@@@std@@@2@PAV32@@Z 00449a70 f i libcpmtd:xlocale.obj
 0001:00048ae0       ?_Save@?$_Tidyfac@V?$moneypunct@D$0A@@std@@@std@@SAPAV?$moneypunct@D$0A@@2@PAV32@@Z 00449ae0 f i libcpmtd:xlocale.obj
 0001:00048b50       ?_Save@?$_Tidyfac@V?$moneypunct@D$00@std@@@std@@SAPAV?$moneypunct@D$00@2@PAV32@@Z 00449b50 f i libcpmtd:xlocale.obj
 0001:00048bc0       ?_Save@?$_Tidyfac@V?$time_get@DV?$istreambuf_iterator@DU?$char_traits@D@std@@@std@@@std@@@std@@SAPAV?$time_get@DV?$istreambuf_iterator@DU?$char_traits@D@std@@@std@@@2@PAV32@@Z 00449bc0 f i libcpmtd:xlocale.obj
 0001:00048c30       ?_Save@?$_Tidyfac@V?$time_put@DV?$ostreambuf_iterator@DU?$char_traits@D@std@@@std@@@std@@@std@@SAPAV?$time_put@DV?$ostreambuf_iterator@DU?$char_traits@D@std@@@std@@@2@PAV32@@Z 00449c30 f i libcpmtd:xlocale.obj
 0001:00048ca0       ??0?$_Mpunct@D@std@@QAE@I_N@Z 00449ca0 f i libcpmtd:xlocale.obj
 0001:00048d30       ?_Tidy@?$_Tidyfac@V?$collate@D@std@@@std@@SAXXZ 00449d30 f i libcpmtd:xlocale.obj
 0001:00048dc0       ?_Tidy@?$_Tidyfac@V?$messages@D@std@@@std@@SAXXZ 00449dc0 f i libcpmtd:xlocale.obj
 0001:00048e50       ?_Tidy@?$_Tidyfac@V?$money_get@DV?$istreambuf_iterator@DU?$char_traits@D@std@@@std@@@std@@@std@@SAXXZ 00449e50 f i libcpmtd:xlocale.obj
 0001:00048ee0       ?_Tidy@?$_Tidyfac@V?$money_put@DV?$ostreambuf_iterator@DU?$char_traits@D@std@@@std@@@std@@@std@@SAXXZ 00449ee0 f i libcpmtd:xlocale.obj
 0001:00048f70       ?_Tidy@?$_Tidyfac@V?$moneypunct@D$0A@@std@@@std@@SAXXZ 00449f70 f i libcpmtd:xlocale.obj
 0001:00049000       ?_Tidy@?$_Tidyfac@V?$moneypunct@D$00@std@@@std@@SAXXZ 0044a000 f i libcpmtd:xlocale.obj
 0001:00049090       ?_Tidy@?$_Tidyfac@V?$time_get@DV?$istreambuf_iterator@DU?$char_traits@D@std@@@std@@@std@@@std@@SAXXZ 0044a090 f i libcpmtd:xlocale.obj
 0001:00049120       ?_Tidy@?$_Tidyfac@V?$time_put@DV?$ostreambuf_iterator@DU?$char_traits@D@std@@@std@@@std@@@std@@SAXXZ 0044a120 f i libcpmtd:xlocale.obj
 0001:000491e0       __Stod                     0044a1e0 f   libcpmtd:xstod.obj
 0001:00049240       __Stof                     0044a240 f   libcpmtd:xstod.obj
 0001:00049260       __Stold                    0044a260 f   libcpmtd:xstod.obj
 0001:00049280       __Wcrtomb                  0044a280 f   libcpmtd:xwctomb.obj
 0001:00049300       ___Wcrtomb_lk              0044a300 f   libcpmtd:xwctomb.obj
 0001:000493c0       __Getcvt                   0044a3c0 f   libcpmtd:xwctomb.obj
 0001:00049440       _wcrtomb                   0044a440 f   libcpmtd:xwctomb.obj
 0001:00049480       _wcsrtombs                 0044a480 f   libcpmtd:xwctomb.obj
 0001:00049680       _wctob                     0044a680 f   libcpmtd:xwctomb.obj
 0001:000496d0       __Strcoll                  0044a6d0 f   libcpmtd:xstrcoll.obj
 0001:00049840       __Getcoll                  0044a840 f   libcpmtd:xstrcoll.obj
 0001:000498b8       _RtlUnwind@16              0044a8b8 f   kernel32:KERNEL32.dll
 0001:000498be       _InterlockedDecrement@4    0044a8be f   kernel32:KERNEL32.dll
 0001:000498c4       _InterlockedIncrement@4    0044a8c4 f   kernel32:KERNEL32.dll
 0001:000498ca       _GetSystemTimeAsFileTime@4 0044a8ca f   kernel32:KERNEL32.dll
 0001:000498d0       _RaiseException@16         0044a8d0 f   kernel32:KERNEL32.dll
 0001:000498d6       _IsBadWritePtr@8           0044a8d6 f   kernel32:KERNEL32.dll
 0001:000498dc       _IsBadReadPtr@8            0044a8dc f   kernel32:KERNEL32.dll
 0001:000498e2       _HeapValidate@12           0044a8e2 f   kernel32:KERNEL32.dll
 0001:000498e8       _GetLastError@0            0044a8e8 f   kernel32:KERNEL32.dll
 0001:000498ee       _CreateThread@24           0044a8ee f   kernel32:KERNEL32.dll
 0001:000498f4       _GetCurrentThreadId@0      0044a8f4 f   kernel32:KERNEL32.dll
 0001:000498fa       _TlsSetValue@8             0044a8fa f   kernel32:KERNEL32.dll
 0001:00049900       _ExitThread@4              0044a900 f   kernel32:KERNEL32.dll
 0001:00049906       _GetCommandLineA@0         0044a906 f   kernel32:KERNEL32.dll
 0001:0004990c       _GetVersion@0              0044a90c f   kernel32:KERNEL32.dll
 0001:00049912       _ExitProcess@4             0044a912 f   kernel32:KERNEL32.dll
 0001:00049918       _DebugBreak@0              0044a918 f   kernel32:KERNEL32.dll
 0001:0004991e       _GetStdHandle@4            0044a91e f   kernel32:KERNEL32.dll
 0001:00049924       _WriteFile@20              0044a924 f   kernel32:KERNEL32.dll
 0001:0004992a       _OutputDebugStringA@4      0044a92a f   kernel32:KERNEL32.dll
 0001:00049930       _GetProcAddress@8          0044a930 f   kernel32:KERNEL32.dll
 0001:00049936       _LoadLibraryA@4            0044a936 f   kernel32:KERNEL32.dll
 0001:0004993c       _GetModuleFileNameA@12     0044a93c f   kernel32:KERNEL32.dll
 0001:00049942       _TerminateProcess@8        0044a942 f   kernel32:KERNEL32.dll
 0001:00049948       _GetCurrentProcess@0       0044a948 f   kernel32:KERNEL32.dll
 0001:0004994e       _TlsAlloc@0                0044a94e f   kernel32:KERNEL32.dll
 0001:00049954       _TlsFree@4                 0044a954 f   kernel32:KERNEL32.dll
 0001:0004995a       _SetLastError@4            0044a95a f   kernel32:KERNEL32.dll
 0001:00049960       _TlsGetValue@4             0044a960 f   kernel32:KERNEL32.dll
 0001:00049966       _GetCurrentThread@0        0044a966 f   kernel32:KERNEL32.dll
 0001:0004996c       _FatalAppExitA@8           0044a96c f   kernel32:KERNEL32.dll
 0001:00049972       _WideCharToMultiByte@32    0044a972 f   kernel32:KERNEL32.dll
 0001:00049978       _MultiByteToWideChar@24    0044a978 f   kernel32:KERNEL32.dll
 0001:0004997e       _LCMapStringA@24           0044a97e f   kernel32:KERNEL32.dll
 0001:00049984       _LCMapStringW@24           0044a984 f   kernel32:KERNEL32.dll
 0001:0004998a       _GetModuleHandleA@4        0044a98a f   kernel32:KERNEL32.dll
 0001:00049990       _HeapFree@12               0044a990 f   kernel32:KERNEL32.dll
 0001:00049996       _SetUnhandledExceptionFilter@4 0044a996 f   kernel32:KERNEL32.dll
 0001:0004999c       _HeapAlloc@12              0044a99c f   kernel32:KERNEL32.dll
 0001:000499a2       _HeapReAlloc@16            0044a9a2 f   kernel32:KERNEL32.dll
 0001:000499a8       _HeapDestroy@4             0044a9a8 f   kernel32:KERNEL32.dll
 0001:000499ae       _HeapCreate@12             0044a9ae f   kernel32:KERNEL32.dll
 0001:000499b4       _VirtualFree@12            0044a9b4 f   kernel32:KERNEL32.dll
 0001:000499ba       _VirtualAlloc@16           0044a9ba f   kernel32:KERNEL32.dll
 0001:000499c0       _UnhandledExceptionFilter@4 0044a9c0 f   kernel32:KERNEL32.dll
 0001:000499c6       _FreeEnvironmentStringsA@4 0044a9c6 f   kernel32:KERNEL32.dll
 0001:000499cc       _FreeEnvironmentStringsW@4 0044a9cc f   kernel32:KERNEL32.dll
 0001:000499d2       _GetEnvironmentStrings@0   0044a9d2 f   kernel32:KERNEL32.dll
 0001:000499d8       _GetEnvironmentStringsW@0  0044a9d8 f   kernel32:KERNEL32.dll
 0001:000499de       _SetHandleCount@4          0044a9de f   kernel32:KERNEL32.dll
 0001:000499e4       _GetFileType@4             0044a9e4 f   kernel32:KERNEL32.dll
 0001:000499ea       _GetStartupInfoA@4         0044a9ea f   kernel32:KERNEL32.dll
 0001:000499f0       _SetConsoleCtrlHandler@8   0044a9f0 f   kernel32:KERNEL32.dll
 0001:000499f6       _IsBadCodePtr@4            0044a9f6 f   kernel32:KERNEL32.dll
 0001:000499fc       _GetCPInfo@8               0044a9fc f   kernel32:KERNEL32.dll
 0001:00049a02       _IsValidLocale@8           0044aa02 f   kernel32:KERNEL32.dll
 0001:00049a08       _IsValidCodePage@4         0044aa08 f   kernel32:KERNEL32.dll
 0001:00049a0e       _GetLocaleInfoA@16         0044aa0e f   kernel32:KERNEL32.dll
 0001:00049a14       _EnumSystemLocalesA@8      0044aa14 f   kernel32:KERNEL32.dll
 0001:00049a1a       _GetUserDefaultLCID@0      0044aa1a f   kernel32:KERNEL32.dll
 0001:00049a20       _GetVersionExA@4           0044aa20 f   kernel32:KERNEL32.dll
 0001:00049a26       _GetStringTypeA@20         0044aa26 f   kernel32:KERNEL32.dll
 0001:00049a2c       _GetStringTypeW@16         0044aa2c f   kernel32:KERNEL32.dll
 0001:00049a32       _SetFilePointer@16         0044aa32 f   kernel32:KERNEL32.dll
 0001:00049a38       _GetACP@0                  0044aa38 f   kernel32:KERNEL32.dll
 0001:00049a3e       _GetOEMCP@0                0044aa3e f   kernel32:KERNEL32.dll
 0001:00049a44       _SetStdHandle@8            0044aa44 f   kernel32:KERNEL32.dll
 0001:00049a4a       _GetTimeZoneInformation@4  0044aa4a f   kernel32:KERNEL32.dll
 0001:00049a50       _GetLocaleInfoW@16         0044aa50 f   kernel32:KERNEL32.dll
 0001:00049a56       _FlushFileBuffers@4        0044aa56 f   kernel32:KERNEL32.dll
 0001:00049a5c       _CompareStringA@24         0044aa5c f   kernel32:KERNEL32.dll
 0001:00049a62       _CompareStringW@24         0044aa62 f   kernel32:KERNEL32.dll
 0001:00049a68       _SetEnvironmentVariableA@8 0044aa68 f   kernel32:KERNEL32.dll
 0001:00049a6e       _InterlockedExchange@8     0044aa6e f   kernel32:KERNEL32.dll
 0001:00049a80       _strupr                    0044aa80 f   LIBCMTD:strupr.obj
 0001:00049a80       __strupr                   0044aa80 f   LIBCMTD:strupr.obj
 0001:00049c40       __strlwr                   0044ac40 f   LIBCMTD:strlwr.obj
 0001:00049c40       _strlwr                    0044ac40 f   LIBCMTD:strlwr.obj
 0001:00049e00       _fwrite                    0044ae00 f   LIBCMTD:fwrite.obj
 0001:00049e40       __fwrite_lk                0044ae40 f   LIBCMTD:fwrite.obj
 0001:0004a060       _fputc                     0044b060 f   LIBCMTD:fputc.obj
 0001:0004a120       _putc                      0044b120 f   LIBCMTD:fputc.obj
 0001:0004a140       _ungetc                    0044b140 f   LIBCMTD:ungetc.obj
 0001:0004a1b0       __ungetc_lk                0044b1b0 f   LIBCMTD:ungetc.obj
 0001:0004a2f0       _fgetc                     0044b2f0 f   LIBCMTD:fgetc.obj
 0001:0004a3a0       _getc                      0044b3a0 f   LIBCMTD:fgetc.obj
 0001:0004a3c0       _fgetpos                   0044b3c0 f   LIBCMTD:fgetpos.obj
 0001:0004a400       _fseek                     0044b400 f   LIBCMTD:fseek.obj
 0001:0004a470       __fseek_lk                 0044b470 f   LIBCMTD:fseek.obj
 0001:0004a5a0       _fsetpos                   0044b5a0 f   LIBCMTD:fsetpos.obj
 0001:0004a5c0       _setvbuf                   0044b5c0 f   LIBCMTD:setvbuf.obj
 0001:0004a730       _fputwc                    0044b730 f   LIBCMTD:fputwc.obj
 0001:0004a7b0       __putwc_lk                 0044b7b0 f   LIBCMTD:fputwc.obj
 0001:0004a9e0       _putwc                     0044b9e0 f   LIBCMTD:fputwc.obj
 0001:0004aa00       _ungetwc                   0044ba00 f   LIBCMTD:ungetwc.obj
 0001:0004aa70       __ungetwc_lk               0044ba70 f   LIBCMTD:ungetwc.obj
 0001:0004acd0       _fgetwc                    0044bcd0 f   LIBCMTD:fgetwc.obj
 0001:0004ad40       __getwc_lk                 0044bd40 f   LIBCMTD:fgetwc.obj
 0001:0004af10       _getwc                     0044bf10 f   LIBCMTD:fgetwc.obj
 0001:0004af30       _strtol                    0044bf30 f   LIBCMTD:strtol.obj
 0001:0004b290       _strtoul                   0044c290 f   LIBCMTD:strtol.obj
 0001:0004b2b0       _wcslen                    0044c2b0 f   LIBCMTD:wcslen.obj
 0001:0004b2e0       _strtod                    0044c2e0 f   LIBCMTD:strtod.obj
 0001:0004b430       __filbuf                   0044c430 f   LIBCMTD:_filbuf.obj
 0001:0004b620       __ftelli64                 0044c620 f   LIBCMTD:ftelli64.obj
 0001:0004b690       __ftelli64_lk              0044c690 f   LIBCMTD:ftelli64.obj
 0001:0004b980       _ftell                     0044c980 f   LIBCMTD:ftell.obj
 0001:0004b9f0       __ftell_lk                 0044c9f0 f   LIBCMTD:ftell.obj
 0001:0004bc90       __fseeki64                 0044cc90 f   LIBCMTD:fseeki64.obj
 0001:0004bd00       __fseeki64_lk              0044cd00 f   LIBCMTD:fseeki64.obj
 0001:0004be50       __flswbuf                  0044ce50 f   LIBCMTD:_flswbuf.obj
 0001:0004c0e0       __filwbuf                  0044d0e0 f   LIBCMTD:_filwbuf.obj
 0001:0004c2e0       _mbtowc                    0044d2e0 f   LIBCMTD:mbtowc.obj
 0001:0004c360       __mbtowc_lk                0044d360 f   LIBCMTD:mbtowc.obj
 0001:0004c4c0       __fltin2                   0044d4c0 f   LIBCMTD:cfin.obj
 0001:0004c580       __read                     0044d580 f   LIBCMTD:read.obj
 0001:0004c610       __read_lk                  0044d610 f   LIBCMTD:read.obj
 0001:0004ca60       __lseeki64                 0044da60 f   LIBCMTD:lseeki64.obj
 0001:0004cb00       __lseeki64_lk              0044db00 f   LIBCMTD:lseeki64.obj
 0001:0004cbbe       _ReadFile@20               0044dbbe f   kernel32:KERNEL32.dll
 0002:0000001c       ??_C@_0BE@ICLL@BRK?5CHESS?5ENGINE?5V1?$AA@ 0045101c     cAPP.obj
 0002:00000030       ??_C@_00A@?$AA@            00451030     cAPP.obj
 0002:00000034       ?cols@@3QBEB               00451034     cBoard.obj
 0002:00000040       ??_7cENGINE@@6B@           00451040     cEngine.obj
 0002:0000004c       ??_C@_0P@MIHM@BLACK?5IS?5MATED?$AA@ 0045104c     cEngine.obj
 0002:0000005c       ??_C@_0P@KFFB@WHITE?5IS?5MATED?$AA@ 0045105c     cEngine.obj
 0002:0000006c       ??_C@_0M@GNNB@ILEGAL?5MOVE?$AA@ 0045106c     cEngine.obj
 0002:00000078       ?npos@?$basic_string@DU?$char_traits@D@std@@V?$allocator@D@2@@std@@2IB 00451078     cEngine.obj
 0002:0000007c       ?_C@?1??_Nullstr@?$basic_string@DU?$char_traits@D@std@@V?$allocator@D@2@@std@@CAPBDXZ@4DB 0045107c     cEngine.obj
 0002:00000080       ??_C@_0BB@ODEK@NO?5MOVES?5IN?5LIST?$AA@ 00451080     cGAME.obj
 0002:00000094       ??_C@_03NAME@?4?4?4?$AA@   00451094     cGAME.obj
 0002:00000098       ??_C@_03MFGH@?5?5?5?$AA@   00451098     cGAME.obj
 0002:0000009c       ??_C@_05GJPI@move?5?$AA@   0045109c     cGAME.obj
 0002:000000a4       ??_C@_01FCOA@?5?$AA@       004510a4     cInterface.obj
 0002:000000a8       ??_C@_0BE@PBAF@?5?5a?5b?5c?5d?5e?5f?5g?5h?5?5?$AA@ 004510a8     cInterface.obj
 0002:000000bc       ??_C@_07GJCP@BRK_V1?$DO?$AA@ 004510bc     cInterface.obj
 0002:000000c4       ??_7criticalSection@@6B@   004510c4     cInterface.obj
 0002:000000d0       ??_7lockableObject@@6B@    004510d0     cInterface.obj
 0002:000000dc       ??_C@_0BK@EMFP@Error?5?$CIunknown?5command?$CJ?3?5?$AA@ 004510dc     cInterface.obj
 0002:000000f8       ??_C@_0BF@MMAA@missing?5locale?5facet?$AA@ 004510f8     cInterface.obj
 0002:00000110       ??_C@_01FKHJ@C?$AA@        00451110     cInterface.obj
 0002:00000114       ??_C@_02MHAC@?$CFp?$AA@    00451114     cInterface.obj
 0002:00000118       ??_C@_01PHOL@e?$AA@        00451118     cInterface.obj
 0002:0000011c       ??_C@_01KFAL@E?$AA@        0045111c     cInterface.obj
 0002:00000120       ??_C@_01KMAE@?0?$AA@       00451120     cInterface.obj
 0002:00000124       ??_C@_05NAGO@false?$AA@    00451124     cInterface.obj
 0002:0000012c       ??_C@_04NCCD@true?$AA@     0045112c     cInterface.obj
 0002:00000134       ??_C@_07OHED@analyze?$AA@  00451134     cPARSE.obj
 0002:0000013c       ??_C@_06CEHP@rating?$AA@   0045113c     cPARSE.obj
 0002:00000144       ??_C@_04LBKD@ping?$AA@     00451144     cPARSE.obj
 0002:0000014c       ??_C@_08EBFC@usermove?$AA@ 0045114c     cPARSE.obj
 0002:00000158       ??_C@_09EKBB@playother?$AA@ 00451158     cPARSE.obj
 0002:00000164       ??_C@_08EFGD@protover?$AA@ 00451164     cPARSE.obj
 0002:00000170       ??_C@_06PIAC@nopost?$AA@   00451170     cPARSE.obj
 0002:00000178       ??_C@_04JIOA@post?$AA@     00451178     cPARSE.obj
 0002:00000180       ??_C@_06JIKN@remove?$AA@   00451180     cPARSE.obj
 0002:00000188       ??_C@_04HDGB@undo?$AA@     00451188     cPARSE.obj
 0002:00000190       ??_C@_04JINL@hint?$AA@     00451190     cPARSE.obj
 0002:00000198       ??_C@_02OINP@go?$AA@       00451198     cPARSE.obj
 0002:0000019c       ??_C@_04PPPM@otim?$AA@     0045119c     cPARSE.obj
 0002:000001a4       ??_C@_04EKDK@time?$AA@     004511a4     cPARSE.obj
 0002:000001ac       ??_C@_02HDNN@sd?$AA@       004511ac     cPARSE.obj
 0002:000001b0       ??_C@_02CHGF@sl?$AA@       004511b0     cPARSE.obj
 0002:000001b4       ??_C@_05IBOL@black?$AA@    004511b4     cPARSE.obj
 0002:000001bc       ??_C@_05GMF@white?$AA@     004511bc     cPARSE.obj
 0002:000001c4       ??_C@_05BCBD@force?$AA@    004511c4     cPARSE.obj
 0002:000001cc       ??_C@_06LIEN@xboard?$AA@   004511cc     cPARSE.obj
 0002:000001d4       ??_C@_04JOGO@list?$AA@     004511d4     cPARSE.obj
 0002:000001dc       ??_C@_07BPOH@version?$AA@  004511dc     cPARSE.obj
 0002:000001e4       ??_C@_04FFGK@easy?$AA@     004511e4     cPARSE.obj
 0002:000001ec       ??_C@_04CEEJ@hard?$AA@     004511ec     cPARSE.obj
 0002:000001f4       ??_C@_03OJPB@off?$AA@      004511f4     cPARSE.obj
 0002:000001f8       ??_C@_02PHBM@on?$AA@       004511f8     cPARSE.obj
 0002:000001fc       ??_C@_01FNHM@d?$AA@        004511fc     cPARSE.obj
 0002:00000200       ??_C@_07LLLG@display?$AA@  00451200     cPARSE.obj
 0002:00000208       ??_C@_06NMEN@result?$AA@   00451208     cPARSE.obj
 0002:00000210       ??_C@_04ELFP@draw?$AA@     00451210     cPARSE.obj
 0002:00000218       ??_C@_03IDPP@new?$AA@      00451218     cPARSE.obj
 0002:0000021c       ??_C@_04MHDN@help?$AA@     0045121c     cPARSE.obj
 0002:00000224       ??_C@_04BAHI@exit?$AA@     00451224     cPARSE.obj
 0002:0000022c       ??_C@_03DNBD@end?$AA@      0045122c     cPARSE.obj
 0002:00000230       ??_C@_04FKOI@quit?$AA@     00451230     cPARSE.obj
 0002:00000238       ??_C@_03CCBJ@bye?$AA@      00451238     cPARSE.obj
 0002:0000023c       ??_C@_02EOPG@H1?$AA@       0045123c     cSquares.obj
 0002:00000240       ??_C@_02JKPH@G1?$AA@       00451240     cSquares.obj
 0002:00000244       ??_C@_02IMFN@F1?$AA@       00451244     cSquares.obj
 0002:00000248       ??_C@_02LHKC@E1?$AA@       00451248     cSquares.obj
 0002:0000024c       ??_C@_02KBAI@D1?$AA@       0045124c     cSquares.obj
 0002:00000250       ??_C@_02MAFN@C1?$AA@       00451250     cSquares.obj
 0002:00000254       ??_C@_02NGPH@B1?$AA@       00451254     cSquares.obj
 0002:00000258       ??_C@_02ONAI@A1?$AA@       00451258     cSquares.obj
 0002:0000025c       ??_C@_02LBEP@H2?$AA@       0045125c     cSquares.obj
 0002:00000260       ??_C@_02GFEO@G2?$AA@       00451260     cSquares.obj
 0002:00000264       ??_C@_02HDOE@F2?$AA@       00451264     cSquares.obj
 0002:00000268       ??_C@_02EIBL@E2?$AA@       00451268     cSquares.obj
 0002:0000026c       ??_C@_02FOLB@D2?$AA@       0045126c     cSquares.obj
 0002:00000270       ??_C@_02DPOE@C2?$AA@       00451270     cSquares.obj
 0002:00000274       ??_C@_02CJEO@B2?$AA@       00451274     cSquares.obj
 0002:00000278       ??_C@_02BCLB@A2?$AA@       00451278     cSquares.obj
 0002:0000027c       ??_C@_02BLNI@H3?$AA@       0045127c     cSquares.obj
 0002:00000280       ??_C@_02MPNJ@G3?$AA@       00451280     cSquares.obj
 0002:00000284       ??_C@_02NJHD@F3?$AA@       00451284     cSquares.obj
 0002:00000288       ??_C@_02OCIM@E3?$AA@       00451288     cSquares.obj
 0002:0000028c       ??_C@_02PECG@D3?$AA@       0045128c     cSquares.obj
 0002:00000290       ??_C@_02JFHD@C3?$AA@       00451290     cSquares.obj
 0002:00000294       ??_C@_02IDNJ@B3?$AA@       00451294     cSquares.obj
 0002:00000298       ??_C@_02LICG@A3?$AA@       00451298     cSquares.obj
 0002:0000029c       ??_C@_02EODN@H4?$AA@       0045129c     cSquares.obj
 0002:000002a0       ??_C@_02JKDM@G4?$AA@       004512a0     cSquares.obj
 0002:000002a4       ??_C@_02IMJG@F4?$AA@       004512a4     cSquares.obj
 0002:000002a8       ??_C@_02LHGJ@E4?$AA@       004512a8     cSquares.obj
 0002:000002ac       ??_C@_02KBMD@D4?$AA@       004512ac     cSquares.obj
 0002:000002b0       ??_C@_02MAJG@C4?$AA@       004512b0     cSquares.obj
 0002:000002b4       ??_C@_02NGDM@B4?$AA@       004512b4     cSquares.obj
 0002:000002b8       ??_C@_02ONMD@A4?$AA@       004512b8     cSquares.obj
 0002:000002bc       ??_C@_02OEKK@H5?$AA@       004512bc     cSquares.obj
 0002:000002c0       ??_C@_02DAKL@G5?$AA@       004512c0     cSquares.obj
 0002:000002c4       ??_C@_02CGAB@F5?$AA@       004512c4     cSquares.obj
 0002:000002c8       ??_C@_02BNPO@E5?$AA@       004512c8     cSquares.obj
 0002:000002cc       ??_C@_02LFE@D5?$AA@        004512cc     cSquares.obj
 0002:000002d0       ??_C@_02GKAB@C5?$AA@       004512d0     cSquares.obj
 0002:000002d4       ??_C@_02HMKL@B5?$AA@       004512d4     cSquares.obj
 0002:000002d8       ??_C@_02EHFE@A5?$AA@       004512d8     cSquares.obj
 0002:000002dc       ??_C@_02BLBD@H6?$AA@       004512dc     cSquares.obj
 0002:000002e0       ??_C@_02MPBC@G6?$AA@       004512e0     cSquares.obj
 0002:000002e4       ??_C@_02NJLI@F6?$AA@       004512e4     cSquares.obj
 0002:000002e8       ??_C@_02OCEH@E6?$AA@       004512e8     cSquares.obj
 0002:000002ec       ??_C@_02PEON@D6?$AA@       004512ec     cSquares.obj
 0002:000002f0       ??_C@_02JFLI@C6?$AA@       004512f0     cSquares.obj
 0002:000002f4       ??_C@_02IDBC@B6?$AA@       004512f4     cSquares.obj
 0002:000002f8       ??_C@_02LION@A6?$AA@       004512f8     cSquares.obj
 0002:000002fc       ??_C@_02LBIE@H7?$AA@       004512fc     cSquares.obj
 0002:00000300       ??_C@_02GFIF@G7?$AA@       00451300     cSquares.obj
 0002:00000304       ??_C@_02HDCP@F7?$AA@       00451304     cSquares.obj
 0002:00000308       ??_C@_02EINA@E7?$AA@       00451308     cSquares.obj
 0002:0000030c       ??_C@_02FOHK@D7?$AA@       0045130c     cSquares.obj
 0002:00000310       ??_C@_02DPCP@C7?$AA@       00451310     cSquares.obj
 0002:00000314       ??_C@_02CJIF@B7?$AA@       00451314     cSquares.obj
 0002:00000318       ??_C@_02BCHK@A7?$AA@       00451318     cSquares.obj
 0002:0000031c       ??_C@_02LANJ@H8?$AA@       0045131c     cSquares.obj
 0002:00000320       ??_C@_02GENI@G8?$AA@       00451320     cSquares.obj
 0002:00000324       ??_C@_02HCHC@F8?$AA@       00451324     cSquares.obj
 0002:00000328       ??_C@_02EJIN@E8?$AA@       00451328     cSquares.obj
 0002:0000032c       ??_C@_02FPCH@D8?$AA@       0045132c     cSquares.obj
 0002:00000330       ??_C@_02DOHC@C8?$AA@       00451330     cSquares.obj
 0002:00000334       ??_C@_02CINI@B8?$AA@       00451334     cSquares.obj
 0002:00000338       ??_C@_02BDCH@A8?$AA@       00451338     cSquares.obj
 0002:0000033c       ??_7cThread@@6B@           0045133c     cThread.obj
 0002:00000348       ??_C@_04FADG@ply?5?$AA@    00451348     cTree.obj
 0002:00000350       ??_C@_0L@LFJN@?5ply?5size?5?$AA@ 00451350     cTree.obj
 0002:0000035c       ??_8strstream@std@@7B?$basic_ostream@DU?$char_traits@D@std@@@1@@ 0045135c     cTree.obj
 0002:00000364       ??_8strstream@std@@7B?$basic_istream@DU?$char_traits@D@std@@@1@@ 00451364     cTree.obj
 0002:0000036c       ??_8?$basic_iostream@DU?$char_traits@D@std@@@std@@7B?$basic_ostream@DU?$char_traits@D@std@@@1@@ 0045136c     cTree.obj
 0002:00000374       ??_8?$basic_iostream@DU?$char_traits@D@std@@@std@@7B?$basic_istream@DU?$char_traits@D@std@@@1@@ 00451374     cTree.obj
 0002:0000037c       ??_8?$basic_ostream@DU?$char_traits@D@std@@@std@@7B@ 0045137c     cTree.obj
 0002:00000384       ??_8?$basic_istream@DU?$char_traits@D@std@@@std@@7B@ 00451384     cTree.obj
 0002:0000038c       ??_C@_0BI@HKOB@?5unhandled?5exception?5?6?5?$AA@ 0045138c     main.obj
 0002:000003a4       ??_7tEVENT@@6B@            004513a4     TEVENT.OBJ
 0002:000003a8       ??_7threadObject@@6B@      004513a8     threadObject.obj
 0002:000003ac       ??_7cEVENT@@6B@            004513ac     threadObject.obj
 0002:000003b0       ??_C@_0O@FHMD@i386?2chkesp?4c?$AA@ 004513b0     LIBCMTD:chkesp.obj
 0002:000003c0       ??_C@_0NM@ELEE@The?5value?5of?5ESP?5was?5not?5properl@ 004513c0     LIBCMTD:chkesp.obj
 0002:0000049c       ??_C@_08CEA@onexit?4c?$AA@ 0045149c     LIBCMTD:onexit.obj
 0002:000004a8       ??_C@_0L@OFGA@dbgdel?4cpp?$AA@ 004514a8     LIBCMTD:dbgdel.obj
 0002:000004b4       ??_C@_0CH@PHOC@_BLOCK_TYPE_IS_VALID?$CIpHead?9?$DOnBlo@ 004514b4     LIBCMTD:dbgdel.obj
 0002:000004e0       ??_7exception@@6B@         004514e0     LIBCMTD:stdexcpt.obj
 0002:000004e8       ??_C@_0BC@OIDF@Unknown?5exception?$AA@ 004514e8     LIBCMTD:stdexcpt.obj
 0002:00000500       ??_7type_info@@6B@         00451500     LIBCMTD:typinfo.obj
 0002:00000528       ??_C@_06DPMO@Client?$AA@   00451528     LIBCMTD:dbgheap.obj
 0002:00000530       ??_C@_06BAFM@Ignore?$AA@   00451530     LIBCMTD:dbgheap.obj
 0002:00000538       ??_C@_03DICE@CRT?$AA@      00451538     LIBCMTD:dbgheap.obj
 0002:0000053c       ??_C@_06BILL@Normal?$AA@   0045153c     LIBCMTD:dbgheap.obj
 0002:00000544       ??_C@_04NEN@Free?$AA@      00451544     LIBCMTD:dbgheap.obj
 0002:0000054c       ??_C@_0DC@CGID@Error?3?5memory?5allocation?3?5bad?5me@ 0045154c     LIBCMTD:dbgheap.obj
 0002:00000580       ??_C@_0CE@FMIA@Invalid?5allocation?5size?3?5?$CFu?5byte@ 00451580     LIBCMTD:dbgheap.obj
 0002:000005a4       ??_C@_02DILL@?$CFs?$AA@    004515a4     LIBCMTD:dbgheap.obj
 0002:000005a8       ??_C@_0CB@CPBI@Client?5hook?5allocation?5failure?4?6@ 004515a8     LIBCMTD:dbgheap.obj
 0002:000005cc       ??_C@_0DF@DKHF@Client?5hook?5allocation?5failure?5a@ 004515cc     LIBCMTD:dbgheap.obj
 0002:00000604       ??_C@_09IMJC@dbgheap?4c?$AA@ 00451604     LIBCMTD:dbgheap.obj
 0002:00000610       ??_C@_0BC@EPKL@_CrtCheckMemory?$CI?$CJ?$AA@ 00451610     LIBCMTD:dbgheap.obj
 0002:00000624       ??_C@_0BK@JDHA@_pFirstBlock?5?$DN?$DN?5pOldBlock?$AA@ 00451624     LIBCMTD:dbgheap.obj
 0002:00000640       ??_C@_0BJ@NMEF@_pLastBlock?5?$DN?$DN?5pOldBlock?$AA@ 00451640     LIBCMTD:dbgheap.obj
 0002:0000065c       ??_C@_0DC@BOCN@fRealloc?5?$HM?$HM?5?$CI?$CBfRealloc?5?$CG?$CG?5pNewBl@ 0045165c     LIBCMTD:dbgheap.obj
 0002:00000690       ??_C@_0DK@DKOM@_BLOCK_TYPE?$CIpOldBlock?9?$DOnBlockUse@ 00451690     LIBCMTD:dbgheap.obj
 0002:000006cc       ??_C@_0EF@EDKM@pOldBlock?9?$DOnLine?5?$DN?$DN?5IGNORE_LINE?5@ 004516cc     LIBCMTD:dbgheap.obj
 0002:00000714       ??_C@_0CC@GPMO@_CrtIsValidHeapPointer?$CIpUserData@ 00451714     LIBCMTD:dbgheap.obj
 0002:00000738       ??_C@_0CN@FHGE@Allocation?5too?5large?5or?5negative@ 00451738     LIBCMTD:dbgheap.obj
 0002:00000768       ??_C@_0CE@EAMN@Client?5hook?5re?9allocation?5failur@ 00451768     LIBCMTD:dbgheap.obj
 0002:0000078c       ??_C@_0DI@KKMM@Client?5hook?5re?9allocation?5failur@ 0045178c     LIBCMTD:dbgheap.obj
 0002:000007c4       ??_C@_0BG@JCEC@_pFirstBlock?5?$DN?$DN?5pHead?$AA@ 004517c4     LIBCMTD:dbgheap.obj
 0002:000007dc       ??_C@_0BF@NLNN@_pLastBlock?5?$DN?$DN?5pHead?$AA@ 004517dc     LIBCMTD:dbgheap.obj
 0002:000007f4       ??_C@_0BO@PLHH@pHead?9?$DOnBlockUse?5?$DN?$DN?5nBlockUse?$AA@ 004517f4     LIBCMTD:dbgheap.obj
 0002:00000814       ??_C@_0DN@KKIO@pHead?9?$DOnLine?5?$DN?$DN?5IGNORE_LINE?5?$CG?$CG?5p@ 00451814     LIBCMTD:dbgheap.obj
 0002:00000854       ??_C@_0CK@OJNB@DAMAGE?3?5after?5?$CFhs?5block?5?$CI?$CD?$CFd?$CJ?5at@ 00451854     LIBCMTD:dbgheap.obj
 0002:00000880       ??_C@_0CL@IJIL@DAMAGE?3?5before?5?$CFhs?5block?5?$CI?$CD?$CFd?$CJ?5a@ 00451880     LIBCMTD:dbgheap.obj
 0002:000008ac       ??_C@_0BL@MBNA@Client?5hook?5free?5failure?4?6?$AA@ 004518ac     LIBCMTD:dbgheap.obj
 0002:000008c8       ??_C@_0DK@EKKL@memory?5check?5error?5at?50x?$CF08X?5?$DN?50@ 004518c8     LIBCMTD:dbgheap.obj
 0002:00000904       ??_C@_0CJ@GCII@?$CFhs?5located?5at?50x?$CF08X?5is?5?$CFu?5byte@ 00451904     LIBCMTD:dbgheap.obj
 0002:00000930       ??_C@_0CA@EJPI@?$CFhs?5allocated?5at?5file?5?$CFhs?$CI?$CFd?$CJ?4?6?$AA@ 00451930     LIBCMTD:dbgheap.obj
 0002:00000950       ??_C@_0CJ@LHHG@DAMAGE?3?5on?5top?5of?5Free?5block?5at?5@ 00451950     LIBCMTD:dbgheap.obj
 0002:0000097c       ??_C@_07GJHM@DAMAGED?$AA@  0045197c     LIBCMTD:dbgheap.obj
 0002:00000984       ??_C@_0CL@ODIE@_heapchk?5fails?5with?5unknown?5retu@ 00451984     LIBCMTD:dbgheap.obj
 0002:000009b0       ??_C@_0CC@EHNC@_heapchk?5fails?5with?5_HEAPBADPTR?4@ 004519b0     LIBCMTD:dbgheap.obj
 0002:000009d4       ??_C@_0CC@JNDP@_heapchk?5fails?5with?5_HEAPBADEND?4@ 004519d4     LIBCMTD:dbgheap.obj
 0002:000009f8       ??_C@_0CD@DNMG@_heapchk?5fails?5with?5_HEAPBADNODE@ 004519f8     LIBCMTD:dbgheap.obj
 0002:00000a1c       ??_C@_0CE@JMCB@_heapchk?5fails?5with?5_HEAPBADBEGI@ 00451a1c     LIBCMTD:dbgheap.obj
 0002:00000a40       ??_C@_0CD@MEMI@Bad?5memory?5block?5found?5at?50x?$CF08X@ 00451a40     LIBCMTD:dbgheap.obj
 0002:00000a64       ??_C@_0CI@GMAO@_CrtMemCheckPoint?3?5NULL?5state?5po@ 00451a64     LIBCMTD:dbgheap.obj
 0002:00000a8c       ??_C@_0CI@MNAE@_CrtMemDifference?3?5NULL?5state?5po@ 00451a8c     LIBCMTD:dbgheap.obj
 0002:00000ab4       ??_C@_0BH@PKIJ@Object?5dump?5complete?4?6?$AA@ 00451ab4     LIBCMTD:dbgheap.obj
 0002:00000acc       ??_C@_0DB@DBPF@crt?5block?5at?50x?$CF08X?0?5subtype?5?$CFx?0@ 00451acc     LIBCMTD:dbgheap.obj
 0002:00000b00       ??_C@_0CI@JLM@normal?5block?5at?50x?$CF08X?0?5?$CFu?5bytes@ 00451b00     LIBCMTD:dbgheap.obj
 0002:00000b28       ??_C@_0DE@PFEA@client?5block?5at?50x?$CF08X?0?5subtype?5@ 00451b28     LIBCMTD:dbgheap.obj
 0002:00000b5c       ??_C@_06MBCE@?$HL?$CFld?$HN?5?$AA@ 00451b5c     LIBCMTD:dbgheap.obj
 0002:00000b64       ??_C@_0L@BLDJ@?$CFhs?$CI?$CFd?$CJ?5?3?5?$AA@ 00451b64     LIBCMTD:dbgheap.obj
 0002:00000b70       ??_C@_0BE@FEMA@?$CDFile?5Error?$CD?$CI?$CFd?$CJ?5?3?5?$AA@ 00451b70     LIBCMTD:dbgheap.obj
 0002:00000b84       ??_C@_0BE@FPPM@Dumping?5objects?5?9?$DO?6?$AA@ 00451b84     LIBCMTD:dbgheap.obj
 0002:00000b98       ??_C@_0BA@POLM@?5Data?3?5?$DM?$CFs?$DO?5?$CFs?6?$AA@ 00451b98     LIBCMTD:dbgheap.obj
 0002:00000ba8       ??_C@_05JLAO@?$CF?42X?5?$AA@ 00451ba8     LIBCMTD:dbgheap.obj
 0002:00000bb0       ??_C@_0BI@KONA@Detected?5memory?5leaks?$CB?6?$AA@ 00451bb0     LIBCMTD:dbgheap.obj
 0002:00000bc8       ??_C@_0BP@LCCN@Total?5allocations?3?5?$CFld?5bytes?4?6?$AA@ 00451bc8     LIBCMTD:dbgheap.obj
 0002:00000be8       ??_C@_0CB@COID@Largest?5number?5used?3?5?$CFld?5bytes?4?6@ 00451be8     LIBCMTD:dbgheap.obj
 0002:00000c0c       ??_C@_0BO@MEJD@?$CFld?5bytes?5in?5?$CFld?5?$CFhs?5Blocks?4?6?$AA@ 00451c0c     LIBCMTD:dbgheap.obj
 0002:00000c2c       ??_C@_0P@LNLA@format?5?$CB?$DN?5NULL?$AA@ 00451c2c     LIBCMTD:sprintf.obj
 0002:00000c3c       ??_C@_09NEAG@sprintf?4c?$AA@ 00451c3c     LIBCMTD:sprintf.obj
 0002:00000c48       ??_C@_0P@OOIN@string?5?$CB?$DN?5NULL?$AA@ 00451c48     LIBCMTD:sprintf.obj
 0002:00000c84       ??_C@_0L@BOLO@threadex?4c?$AA@ 00451c84     LIBCMTD:threadex.obj
 0002:00000cac       ??_C@_0BB@BLL@Assertion?5Failed?$AA@ 00451cac     LIBCMTD:dbgrpt.obj
 0002:00000cc0       ??_C@_05CKBG@Error?$AA@    00451cc0     LIBCMTD:dbgrpt.obj
 0002:00000cc8       ??_C@_07JCGI@Warning?$AA@  00451cc8     LIBCMTD:dbgrpt.obj
 0002:00000cd0       ??_C@_0M@ODEP@?$CFs?$CI?$CFd?$CJ?5?3?5?$CFs?$AA@ 00451cd0     LIBCMTD:dbgrpt.obj
 0002:00000cdc       ??_C@_01BJG@?6?$AA@        00451cdc     LIBCMTD:dbgrpt.obj
 0002:00000ce0       ??_C@_01FEHD@?$AN?$AA@     00451ce0     LIBCMTD:dbgrpt.obj
 0002:00000ce4       ??_C@_0BC@OIMC@Assertion?5failed?$CB?$AA@ 00451ce4     LIBCMTD:dbgrpt.obj
 0002:00000cf8       ??_C@_0BD@BEAK@Assertion?5failed?3?5?$AA@ 00451cf8     LIBCMTD:dbgrpt.obj
 0002:00000d0c       ??_C@_0CL@LCCP@_CrtDbgReport?3?5String?5too?5long?5o@ 00451d0c     LIBCMTD:dbgrpt.obj
 0002:00000d38       ??_C@_0DC@EMDK@Second?5Chance?5Assertion?5Failed?3?5@ 00451d38     LIBCMTD:dbgrpt.obj
 0002:00000d6c       ??_C@_09NJAK@wsprintfA?$AA@ 00451d6c     LIBCMTD:dbgrpt.obj
 0002:00000d78       ??_C@_0L@HKL@user32?4dll?$AA@ 00451d78     LIBCMTD:dbgrpt.obj
 0002:00000d84       ??_C@_0CD@GCMD@Microsoft?5Visual?5C?$CL?$CL?5Debug?5Libra@ 00451d84     LIBCMTD:dbgrpt.obj
 0002:00000da8       ??_C@_0FD@EBDD@Debug?5?$CFs?$CB?6?6Program?3?5?$CFs?$CFs?$CFs?$CFs?$CFs?$CFs@ 00451da8     LIBCMTD:dbgrpt.obj
 0002:00000dfc       ??_C@_09DCKN@?6Module?3?5?$AA@ 00451dfc     LIBCMTD:dbgrpt.obj
 0002:00000e08       ??_C@_07HJII@?6File?3?5?$AA@ 00451e08     LIBCMTD:dbgrpt.obj
 0002:00000e10       ??_C@_07LFGN@?6Line?3?5?$AA@ 00451e10     LIBCMTD:dbgrpt.obj
 0002:00000e18       ??_C@_02JJJH@?6?6?$AA@     00451e18     LIBCMTD:dbgrpt.obj
 0002:00000e1c       ??_C@_0N@NOAB@Expression?3?5?$AA@ 00451e1c     LIBCMTD:dbgrpt.obj
 0002:00000e2c       ??_C@_0HD@BHFH@?6?6For?5information?5on?5how?5your?5pr@ 00451e2c     LIBCMTD:dbgrpt.obj
 0002:00000ea0       ??_C@_0BH@NNCD@?$DMprogram?5name?5unknown?$DO?$AA@ 00451ea0     LIBCMTD:dbgrpt.obj
 0002:00000eb8       ??_C@_08GFHP@dbgrpt?4c?$AA@ 00451eb8     LIBCMTD:dbgrpt.obj
 0002:00000ec4       ??_C@_0BG@FBEA@szUserMessage?5?$CB?$DN?5NULL?$AA@ 00451ec4     LIBCMTD:dbgrpt.obj
 0002:00000f24       ??_C@_0L@ENLJ@tidtable?4c?$AA@ 00451f24     LIBCMTD:tidtable.obj
 0002:00000f60       ??_C@_07PDLA@mlock?4c?$AA@ 00451f60     LIBCMTD:mlock.obj
 0002:00000f68       ??_C@_07PCLE@LC_TIME?$AA@  00451f68     LIBCMTD:setlocal.obj
 0002:00000f70       ??_C@_0L@NKG@LC_NUMERIC?$AA@ 00451f70     LIBCMTD:setlocal.obj
 0002:00000f7c       ??_C@_0M@CBIH@LC_MONETARY?$AA@ 00451f7c     LIBCMTD:setlocal.obj
 0002:00000f88       ??_C@_08LFGE@LC_CTYPE?$AA@ 00451f88     LIBCMTD:setlocal.obj
 0002:00000f94       ??_C@_0L@CFLC@LC_COLLATE?$AA@ 00451f94     LIBCMTD:setlocal.obj
 0002:00000fa0       ??_C@_06GCPK@LC_ALL?$AA@   00451fa0     LIBCMTD:setlocal.obj
 0002:00000fa8       ??_C@_01FAJB@?$DL?$AA@     00451fa8     LIBCMTD:setlocal.obj
 0002:00000fac       ??_C@_02BGDO@?$DN?$DL?$AA@ 00451fac     LIBCMTD:setlocal.obj
 0002:00000fb0       ??_C@_0L@MOEE@setlocal?4c?$AA@ 00451fb0     LIBCMTD:setlocal.obj
 0002:00000fbc       ??_C@_01KPOD@?$DN?$AA@     00451fbc     LIBCMTD:setlocal.obj
 0002:00000fc0       ??_C@_03DBOJ@_?4?0?$AA@    00451fc0     LIBCMTD:setlocal.obj
 0002:00000fc4       ??_C@_01PJCK@?4?$AA@       00451fc4     LIBCMTD:setlocal.obj
 0002:00000fc8       ??_C@_01NON@_?$AA@         00451fc8     LIBCMTD:setlocal.obj
 0002:00000fcc       ??_C@_01A@?$AA?$AA@        00451fcc     LIBCMTD:a_map.obj
 0002:00000fd0       ??_C@_13A@?$AA?$AA?$AA?$AA@ 00451fd0     LIBCMTD:a_map.obj
 0002:00000ff0       __real@8@3fff8000000000000000 00451ff0     LIBCMTD:testfdiv.obj
 0002:00000ff8       ??_C@_0BK@JEGK@IsProcessorFeaturePresent?$AA@ 00451ff8     LIBCMTD:testfdiv.obj
 0002:00001014       ??_C@_08OBID@KERNEL32?$AA@ 00452014     LIBCMTD:testfdiv.obj
 0002:00001020       __real@8@00000000000000000000 00452020     LIBCMTD:cvt.obj
 0002:00001028       ??_C@_05OFLO@e?$CL000?$AA@ 00452028     LIBCMTD:cvt.obj
 0002:00001030       ??_C@_0DP@IHIN@?$CI?$CCinconsistent?5IOB?5fields?$CC?0?5stre@ 00452030     LIBCMTD:_flsbuf.obj
 0002:00001070       ??_C@_09LGEI@_flsbuf?4c?$AA@ 00452070     LIBCMTD:_flsbuf.obj
 0002:0000107c       ??_C@_0M@KJPK@str?5?$CB?$DN?5NULL?$AA@ 0045207c     LIBCMTD:_flsbuf.obj
 0002:00001088       ___lookuptable             00452088     LIBCMTD:output.obj
 0002:000010e4       ??_C@_1O@POHA@?$AA?$CI?$AAn?$AAu?$AAl?$AAl?$AA?$CJ?$AA?$AA@ 004520e4     LIBCMTD:output.obj
 0002:000010f4       ??_C@_06ONKE@?$CInull?$CJ?$AA@ 004520f4     LIBCMTD:output.obj
 0002:000010fc       ??_C@_08MIHI@output?4c?$AA@ 004520fc     LIBCMTD:output.obj
 0002:00001108       ??_C@_0P@PIHB@ch?5?$CB?$DN?5_T?$CI?8?20?8?$CJ?$AA@ 00452108     LIBCMTD:output.obj
 0002:00001118       ??_C@_09IGKD@stdenvp?4c?$AA@ 00452118     LIBCMTD:stdenvp.obj
 0002:00001124       ??_C@_09MPMN@stdargv?4c?$AA@ 00452124     LIBCMTD:stdargv.obj
 0002:00001130       ??_C@_07BNNE@a_env?4c?$AA@ 00452130     LIBCMTD:a_env.obj
 0002:00001138       ??_C@_08KFDJ@ioinit?4c?$AA@ 00452138     LIBCMTD:ioinit.obj
 0002:00001144       ??_C@_0P@GGKG@runtime?5error?5?$AA@ 00452144     LIBCMTD:crt0msg.obj
 0002:00001154       ??_C@_02PIMC@?$AN?6?$AA@   00452154     LIBCMTD:crt0msg.obj
 0002:00001158       ??_C@_0O@DELO@TLOSS?5error?$AN?6?$AA@ 00452158     LIBCMTD:crt0msg.obj
 0002:00001168       ??_C@_0N@OMLL@SING?5error?$AN?6?$AA@ 00452168     LIBCMTD:crt0msg.obj
 0002:00001178       ??_C@_0P@OJAK@DOMAIN?5error?$AN?6?$AA@ 00452178     LIBCMTD:crt0msg.obj
 0002:00001188       ??_C@_0CF@EANP@R6028?$AN?6?9?5unable?5to?5initialize?5he@ 00452188     LIBCMTD:crt0msg.obj
 0002:000011b0       ??_C@_0DF@ECGN@R6027?$AN?6?9?5not?5enough?5space?5for?5lo@ 004521b0     LIBCMTD:crt0msg.obj
 0002:000011e8       ??_C@_0DF@FKAC@R6026?$AN?6?9?5not?5enough?5space?5for?5st@ 004521e8     LIBCMTD:crt0msg.obj
 0002:00001220       ??_C@_0CG@DPMN@R6025?$AN?6?9?5pure?5virtual?5function?5c@ 00452220     LIBCMTD:crt0msg.obj
 0002:00001248       ??_C@_0DF@CKIP@R6024?$AN?6?9?5not?5enough?5space?5for?5_o@ 00452248     LIBCMTD:crt0msg.obj
 0002:00001280       ??_C@_0CJ@GGOE@R6019?$AN?6?9?5unable?5to?5open?5console?5@ 00452280     LIBCMTD:crt0msg.obj
 0002:000012ac       ??_C@_0CB@LBOB@R6018?$AN?6?9?5unexpected?5heap?5error?$AN?6@ 004522ac     LIBCMTD:crt0msg.obj
 0002:000012d0       ??_C@_0CN@FPEG@R6017?$AN?6?9?5unexpected?5multithread?5@ 004522d0     LIBCMTD:crt0msg.obj
 0002:00001300       ??_C@_0CM@OBIC@R6016?$AN?6?9?5not?5enough?5space?5for?5th@ 00452300     LIBCMTD:crt0msg.obj
 0002:0000132c       ??_C@_0CB@HPAL@?$AN?6abnormal?5program?5termination?$AN?6@ 0045232c     LIBCMTD:crt0msg.obj
 0002:00001350       ??_C@_0CM@JOOB@R6009?$AN?6?9?5not?5enough?5space?5for?5en@ 00452350     LIBCMTD:crt0msg.obj
 0002:0000137c       ??_C@_0CK@OIBL@R6008?$AN?6?9?5not?5enough?5space?5for?5ar@ 0045237c     LIBCMTD:crt0msg.obj
 0002:000013a8       ??_C@_0CF@LKPB@R6002?$AN?6?9?5floating?5point?5not?5load@ 004523a8     LIBCMTD:crt0msg.obj
 0002:000013d0       ??_C@_0CF@JPDF@Microsoft?5Visual?5C?$CL?$CL?5Runtime?5Lib@ 004523d0     LIBCMTD:crt0msg.obj
 0002:000013f8       ??_C@_0BK@DEOK@Runtime?5Error?$CB?6?6Program?3?5?$AA@ 004523f8     LIBCMTD:crt0msg.obj
 0002:00001414       ??_C@_0L@HE@vsprintf?4c?$AA@ 00452414     LIBCMTD:vsnprint.obj
 0002:00001420       ??_C@_08CNMA@winsig?4c?$AA@ 00452420     LIBCMTD:winsig.obj
 0002:0000142c       ??_C@_0BD@NJFP@GetLastActivePopup?$AA@ 0045242c     LIBCMTD:crtmbox.obj
 0002:00001440       ??_C@_0BA@GILI@GetActiveWindow?$AA@ 00452440     LIBCMTD:crtmbox.obj
 0002:00001450       ??_C@_0M@PKCK@MessageBoxA?$AA@ 00452450     LIBCMTD:crtmbox.obj
 0002:0000145c       ??_C@_0L@EEGJ@inittime?4c?$AA@ 0045245c     LIBCMTD:inittime.obj
 0002:00001468       ??_C@_09IMJJ@initnum?4c?$AA@ 00452468     LIBCMTD:initnum.obj
 0002:00001474       ??_C@_09KPNI@initmon?4c?$AA@ 00452474     LIBCMTD:initmon.obj
 0002:00001480       ??_C@_0L@COIL@initctyp?4c?$AA@ 00452480     LIBCMTD:initctyp.obj
 0002:0000148c       ??_C@_08OBJD@Paraguay?$AA@ 0045248c     LIBCMTD:getqloc.obj
 0002:00001498       ??_C@_07GLKH@Uruguay?$AA@  00452498     LIBCMTD:getqloc.obj
 0002:000014a0       ??_C@_05FPFC@Chile?$AA@    004524a0     LIBCMTD:getqloc.obj
 0002:000014a8       ??_C@_07IIGF@Ecuador?$AA@  004524a8     LIBCMTD:getqloc.obj
 0002:000014b0       ??_C@_09PKAL@Argentina?$AA@ 004524b0     LIBCMTD:getqloc.obj
 0002:000014bc       ??_C@_04LKAH@Peru?$AA@     004524bc     LIBCMTD:getqloc.obj
 0002:000014c4       ??_C@_08NEEM@Colombia?$AA@ 004524c4     LIBCMTD:getqloc.obj
 0002:000014d0       ??_C@_09ODEB@Venezuela?$AA@ 004524d0     LIBCMTD:getqloc.obj
 0002:000014dc       ??_C@_0BD@CLEL@Dominican?5Republic?$AA@ 004524dc     LIBCMTD:getqloc.obj
 0002:000014f0       ??_C@_0N@MDGL@South?5Africa?$AA@ 004524f0     LIBCMTD:getqloc.obj
 0002:00001500       ??_C@_06NKBG@Panama?$AA@   00452500     LIBCMTD:getqloc.obj
 0002:00001508       ??_C@_0L@BMHO@Luxembourg?$AA@ 00452508     LIBCMTD:getqloc.obj
 0002:00001514       ??_C@_0L@IMDK@Costa?5Rica?$AA@ 00452514     LIBCMTD:getqloc.obj
 0002:00001520       ??_C@_0M@BLJF@Switzerland?$AA@ 00452520     LIBCMTD:getqloc.obj
 0002:0000152c       ??_C@_09KBOL@Guatemala?$AA@ 0045252c     LIBCMTD:getqloc.obj
 0002:00001538       ??_C@_06JNAK@Canada?$AA@   00452538     LIBCMTD:getqloc.obj
 0002:00001540       ??_C@_0BG@OLLP@Spanish?5?9?5Modern?5Sort?$AA@ 00452540     LIBCMTD:getqloc.obj
 0002:00001558       ??_C@_09IDKE@Australia?$AA@ 00452558     LIBCMTD:getqloc.obj
 0002:00001564       ??_C@_07JJJJ@English?$AA@  00452564     LIBCMTD:getqloc.obj
 0002:0000156c       ??_C@_07NMDO@Austria?$AA@  0045256c     LIBCMTD:getqloc.obj
 0002:00001574       ??_C@_06DEFE@German?$AA@   00452574     LIBCMTD:getqloc.obj
 0002:0000157c       ??_C@_07JAIH@Belgium?$AA@  0045257c     LIBCMTD:getqloc.obj
 0002:00001584       ??_C@_06BNLJ@Mexico?$AA@   00452584     LIBCMTD:getqloc.obj
 0002:0000158c       ??_C@_07JHAG@Spanish?$AA@  0045258c     LIBCMTD:getqloc.obj
 0002:00001594       ??_C@_06DADE@Basque?$AA@   00452594     LIBCMTD:getqloc.obj
 0002:0000159c       ??_C@_06ENFP@Sweden?$AA@   0045259c     LIBCMTD:getqloc.obj
 0002:000015a4       ??_C@_07JPMH@Swedish?$AA@  004525a4     LIBCMTD:getqloc.obj
 0002:000015ac       ??_C@_07IEKF@Iceland?$AA@  004525ac     LIBCMTD:getqloc.obj
 0002:000015b4       ??_C@_09KNEA@Icelandic?$AA@ 004525b4     LIBCMTD:getqloc.obj
 0002:000015c0       ??_C@_06IJOD@France?$AA@   004525c0     LIBCMTD:getqloc.obj
 0002:000015c8       ??_C@_06EINI@French?$AA@   004525c8     LIBCMTD:getqloc.obj
 0002:000015d0       ??_C@_07FOOE@Finland?$AA@  004525d0     LIBCMTD:getqloc.obj
 0002:000015d8       ??_C@_07OJOM@Finnish?$AA@  004525d8     LIBCMTD:getqloc.obj
 0002:000015e0       ??_C@_05FFAC@Spain?$AA@    004525e0     LIBCMTD:getqloc.obj
 0002:000015e8       ??_C@_0BL@BIHM@Spanish?5?9?5Traditional?5Sort?$AA@ 004525e8     LIBCMTD:getqloc.obj
 0002:00001604       ??_C@_0O@GLHB@united?9states?$AA@ 00452604     LIBCMTD:getqloc.obj
 0002:00001614       ??_C@_0P@IIKK@united?9kingdom?$AA@ 00452614     LIBCMTD:getqloc.obj
 0002:00001624       ??_C@_0BC@FHBO@trinidad?5?$CG?5tobago?$AA@ 00452624     LIBCMTD:getqloc.obj
 0002:00001638       ??_C@_0M@BDFM@south?9korea?$AA@ 00452638     LIBCMTD:getqloc.obj
 0002:00001644       ??_C@_0N@CKFA@south?9africa?$AA@ 00452644     LIBCMTD:getqloc.obj
 0002:00001654       ??_C@_0M@HNHN@south?5korea?$AA@ 00452654     LIBCMTD:getqloc.obj
 0002:00001660       ??_C@_0N@MKDO@south?5africa?$AA@ 00452660     LIBCMTD:getqloc.obj
 0002:00001670       ??_C@_06KFFJ@slovak?$AA@   00452670     LIBCMTD:getqloc.obj
 0002:00001678       ??_C@_0M@NMAC@puerto?9rico?$AA@ 00452678     LIBCMTD:getqloc.obj
 0002:00001684       ??_C@_08EJOH@pr?9china?$AA@ 00452684     LIBCMTD:getqloc.obj
 0002:00001690       ??_C@_08CHMG@pr?5china?$AA@ 00452690     LIBCMTD:getqloc.obj
 0002:0000169c       ??_C@_02OCJK@nz?$AA@       0045269c     LIBCMTD:getqloc.obj
 0002:000016a0       ??_C@_0M@MMKA@new?9zealand?$AA@ 004526a0     LIBCMTD:getqloc.obj
 0002:000016ac       ??_C@_09MGEH@hong?9kong?$AA@ 004526ac     LIBCMTD:getqloc.obj
 0002:000016b8       ??_C@_07CCAK@holland?$AA@  004526b8     LIBCMTD:getqloc.obj
 0002:000016c0       ??_C@_0O@MEPL@great?5britain?$AA@ 004526c0     LIBCMTD:getqloc.obj
 0002:000016d0       ??_C@_07LGIB@england?$AA@  004526d0     LIBCMTD:getqloc.obj
 0002:000016d8       ??_C@_05BMOA@czech?$AA@    004526d8     LIBCMTD:getqloc.obj
 0002:000016e0       ??_C@_05NMPB@china?$AA@    004526e0     LIBCMTD:getqloc.obj
 0002:000016e8       ??_C@_07GN@britain?$AA@    004526e8     LIBCMTD:getqloc.obj
 0002:000016f0       ??_C@_07DLAK@america?$AA@  004526f0     LIBCMTD:getqloc.obj
 0002:000016f8       ??_C@_03IPEP@usa?$AA@      004526f8     LIBCMTD:getqloc.obj
 0002:000016fc       ??_C@_02PILH@us?$AA@       004526fc     LIBCMTD:getqloc.obj
 0002:00001700       ??_C@_02FHP@uk?$AA@        00452700     LIBCMTD:getqloc.obj
 0002:00001704       ??_C@_05DEAI@swiss?$AA@    00452704     LIBCMTD:getqloc.obj
 0002:0000170c       ??_C@_0BA@LIAF@swedish?9finland?$AA@ 0045270c     LIBCMTD:getqloc.obj
 0002:0000171c       ??_C@_0BC@FMEG@spanish?9venezuela?$AA@ 0045271c     LIBCMTD:getqloc.obj
 0002:00001730       ??_C@_0BA@BNMG@spanish?9uruguay?$AA@ 00452730     LIBCMTD:getqloc.obj
 0002:00001740       ??_C@_0BE@BKDJ@spanish?9puerto?5rico?$AA@ 00452740     LIBCMTD:getqloc.obj
 0002:00001754       ??_C@_0N@JIBL@spanish?9peru?$AA@ 00452754     LIBCMTD:getqloc.obj
 0002:00001764       ??_C@_0BB@OGOF@spanish?9paraguay?$AA@ 00452764     LIBCMTD:getqloc.obj
 0002:00001778       ??_C@_0P@LLFA@spanish?9panama?$AA@ 00452778     LIBCMTD:getqloc.obj
 0002:00001788       ??_C@_0BC@BBJM@spanish?9nicaragua?$AA@ 00452788     LIBCMTD:getqloc.obj
 0002:0000179c       ??_C@_0P@NJBN@spanish?9modern?$AA@ 0045279c     LIBCMTD:getqloc.obj
 0002:000017ac       ??_C@_0BA@NHDN@spanish?9mexican?$AA@ 004527ac     LIBCMTD:getqloc.obj
 0002:000017bc       ??_C@_0BB@JHOJ@spanish?9honduras?$AA@ 004527bc     LIBCMTD:getqloc.obj
 0002:000017d0       ??_C@_0BC@BOOM@spanish?9guatemala?$AA@ 004527d0     LIBCMTD:getqloc.obj
 0002:000017e4       ??_C@_0BE@EELI@spanish?9el?5salvador?$AA@ 004527e4     LIBCMTD:getqloc.obj
 0002:000017f8       ??_C@_0BA@POAE@spanish?9ecuador?$AA@ 004527f8     LIBCMTD:getqloc.obj
 0002:00001808       ??_C@_0BL@LDKN@spanish?9dominican?5republic?$AA@ 00452808     LIBCMTD:getqloc.obj
 0002:00001824       ??_C@_0BD@HPMH@spanish?9costa?5rica?$AA@ 00452824     LIBCMTD:getqloc.obj
 0002:00001838       ??_C@_0BB@NDDK@spanish?9colombia?$AA@ 00452838     LIBCMTD:getqloc.obj
 0002:0000184c       ??_C@_0O@BJHA@spanish?9chile?$AA@ 0045284c     LIBCMTD:getqloc.obj
 0002:0000185c       ??_C@_0BA@OBNG@spanish?9bolivia?$AA@ 0045285c     LIBCMTD:getqloc.obj
 0002:0000186c       ??_C@_0BC@EFAM@spanish?9argentina?$AA@ 0045286c     LIBCMTD:getqloc.obj
 0002:00001880       ??_C@_0BF@KMMM@portuguese?9brazilian?$AA@ 00452880     LIBCMTD:getqloc.obj
 0002:00001898       ??_C@_0BC@BAAE@norwegian?9nynorsk?$AA@ 00452898     LIBCMTD:getqloc.obj
 0002:000018ac       ??_C@_0BB@PBHK@norwegian?9bokmal?$AA@ 004528ac     LIBCMTD:getqloc.obj
 0002:000018c0       ??_C@_09EHKL@norwegian?$AA@ 004528c0     LIBCMTD:getqloc.obj
 0002:000018cc       ??_C@_0O@BEAN@italian?9swiss?$AA@ 004528cc     LIBCMTD:getqloc.obj
 0002:000018dc       ??_C@_0O@OIFK@irish?9english?$AA@ 004528dc     LIBCMTD:getqloc.obj
 0002:000018ec       ??_C@_0N@NBPL@german?9swiss?$AA@ 004528ec     LIBCMTD:getqloc.obj
 0002:000018fc       ??_C@_0BC@ICFJ@german?9luxembourg?$AA@ 004528fc     LIBCMTD:getqloc.obj
 0002:00001910       ??_C@_0BE@GGPC@german?9lichtenstein?$AA@ 00452910     LIBCMTD:getqloc.obj
 0002:00001924       ??_C@_0BA@MKDC@german?9austrian?$AA@ 00452924     LIBCMTD:getqloc.obj
 0002:00001934       ??_C@_0N@ODNB@french?9swiss?$AA@ 00452934     LIBCMTD:getqloc.obj
 0002:00001944       ??_C@_0BC@MGCM@french?9luxembourg?$AA@ 00452944     LIBCMTD:getqloc.obj
 0002:00001958       ??_C@_0BA@NABK@french?9canadian?$AA@ 00452958     LIBCMTD:getqloc.obj
 0002:00001968       ??_C@_0P@CJNO@french?9belgian?$AA@ 00452968     LIBCMTD:getqloc.obj
 0002:00001978       ??_C@_0M@LJOL@english?9usa?$AA@ 00452978     LIBCMTD:getqloc.obj
 0002:00001984       ??_C@_0L@FMNC@english?9us?$AA@ 00452984     LIBCMTD:getqloc.obj
 0002:00001990       ??_C@_0L@KBBK@english?9uk?$AA@ 00452990     LIBCMTD:getqloc.obj
 0002:0000199c       ??_C@_0BK@NDDE@english?9trinidad?5y?5tobago?$AA@ 0045299c     LIBCMTD:getqloc.obj
 0002:000019b8       ??_C@_0BF@LKML@english?9south?5africa?$AA@ 004529b8     LIBCMTD:getqloc.obj
 0002:000019d0       ??_C@_0L@EGPP@english?9nz?$AA@ 004529d0     LIBCMTD:getqloc.obj
 0002:000019dc       ??_C@_0BA@HLH@english?9jamaica?$AA@ 004529dc     LIBCMTD:getqloc.obj
 0002:000019ec       ??_C@_0M@PMJI@english?9ire?$AA@ 004529ec     LIBCMTD:getqloc.obj
 0002:000019f8       ??_C@_0BC@HINE@english?9caribbean?$AA@ 004529f8     LIBCMTD:getqloc.obj
 0002:00001a0c       ??_C@_0M@DCFH@english?9can?$AA@ 00452a0c     LIBCMTD:getqloc.obj
 0002:00001a18       ??_C@_0P@DGHK@english?9belize?$AA@ 00452a18     LIBCMTD:getqloc.obj
 0002:00001a28       ??_C@_0M@FLHK@english?9aus?$AA@ 00452a28     LIBCMTD:getqloc.obj
 0002:00001a34       ??_C@_0BB@HNCK@english?9american?$AA@ 00452a34     LIBCMTD:getqloc.obj
 0002:00001a48       ??_C@_0O@PAMI@dutch?9belgian?$AA@ 00452a48     LIBCMTD:getqloc.obj
 0002:00001a58       ??_C@_0BE@FPEJ@chinese?9traditional?$AA@ 00452a58     LIBCMTD:getqloc.obj
 0002:00001a6c       ??_C@_0BC@CHFL@chinese?9singapore?$AA@ 00452a6c     LIBCMTD:getqloc.obj
 0002:00001a80       ??_C@_0BD@DCMH@chinese?9simplified?$AA@ 00452a80     LIBCMTD:getqloc.obj
 0002:00001a94       ??_C@_0BB@JMOE@chinese?9hongkong?$AA@ 00452a94     LIBCMTD:getqloc.obj
 0002:00001aa8       ??_C@_07NGFN@chinese?$AA@  00452aa8     LIBCMTD:getqloc.obj
 0002:00001ab0       ??_C@_03PCOI@chi?$AA@      00452ab0     LIBCMTD:getqloc.obj
 0002:00001ab4       ??_C@_03FIHP@chh?$AA@      00452ab4     LIBCMTD:getqloc.obj
 0002:00001ab8       ??_C@_08HFLO@canadian?$AA@ 00452ab8     LIBCMTD:getqloc.obj
 0002:00001ac4       ??_C@_07INIJ@belgian?$AA@  00452ac4     LIBCMTD:getqloc.obj
 0002:00001acc       ??_C@_0L@LCCA@australian?$AA@ 00452acc     LIBCMTD:getqloc.obj
 0002:00001ad8       ??_C@_0BB@BJIO@american?9english?$AA@ 00452ad8     LIBCMTD:getqloc.obj
 0002:00001aec       ??_C@_0BB@DAGO@american?5english?$AA@ 00452aec     LIBCMTD:getqloc.obj
 0002:00001b00       ??_C@_08HENB@american?$AA@ 00452b00     LIBCMTD:getqloc.obj
 0002:00001b0c       ??_C@_03DGJE@OCP?$AA@      00452b0c     LIBCMTD:getqloc.obj
 0002:00001b10       ??_C@_03EKFG@ACP?$AA@      00452b10     LIBCMTD:getqloc.obj
 0002:00001b24       ??_C@_09EMDO@_getbuf?4c?$AA@ 00452b24     LIBCMTD:_getbuf.obj
 0002:00001b30       ??_C@_07HPAH@_file?4c?$AA@ 00452b30     LIBCMTD:_file.obj
 0002:00001b38       ??_C@_07CJME@H?3mm?3ss?$AA@ 00452b38     LIBCMTD:strftime.obj
 0002:00001b40       ??_C@_0BE@MHI@dddd?0?5MMMM?5dd?0?5yyyy?$AA@ 00452b40     LIBCMTD:strftime.obj
 0002:00001b54       ??_C@_06HCAD@M?1d?1yy?$AA@ 00452b54     LIBCMTD:strftime.obj
 0002:00001b5c       ??_C@_02DBLP@PM?$AA@       00452b5c     LIBCMTD:strftime.obj
 0002:00001b60       ??_C@_02ENLM@AM?$AA@       00452b60     LIBCMTD:strftime.obj
 0002:00001b64       ??_C@_08LIDF@December?$AA@ 00452b64     LIBCMTD:strftime.obj
 0002:00001b70       ??_C@_08NJLI@November?$AA@ 00452b70     LIBCMTD:strftime.obj
 0002:00001b7c       ??_C@_07IAMM@October?$AA@  00452b7c     LIBCMTD:strftime.obj
 0002:00001b84       ??_C@_09MKGD@September?$AA@ 00452b84     LIBCMTD:strftime.obj
 0002:00001b90       ??_C@_06PADP@August?$AA@   00452b90     LIBCMTD:strftime.obj
 0002:00001b98       ??_C@_04PIJO@July?$AA@     00452b98     LIBCMTD:strftime.obj
 0002:00001ba0       ??_C@_04ICFP@June?$AA@     00452ba0     LIBCMTD:strftime.obj
 0002:00001ba8       ??_C@_05JFGC@April?$AA@    00452ba8     LIBCMTD:strftime.obj
 0002:00001bb0       ??_C@_05FGPD@March?$AA@    00452bb0     LIBCMTD:strftime.obj
 0002:00001bb8       ??_C@_08PGBA@February?$AA@ 00452bb8     LIBCMTD:strftime.obj
 0002:00001bc4       ??_C@_07BPKJ@January?$AA@  00452bc4     LIBCMTD:strftime.obj
 0002:00001bcc       ??_C@_03PGJO@Dec?$AA@      00452bcc     LIBCMTD:strftime.obj
 0002:00001bd0       ??_C@_03PDLM@Nov?$AA@      00452bd0     LIBCMTD:strftime.obj
 0002:00001bd4       ??_C@_03BLHK@Oct?$AA@      00452bd4     LIBCMTD:strftime.obj
 0002:00001bd8       ??_C@_03DPFM@Sep?$AA@      00452bd8     LIBCMTD:strftime.obj
 0002:00001bdc       ??_C@_03CMCH@Aug?$AA@      00452bdc     LIBCMTD:strftime.obj
 0002:00001be0       ??_C@_03OBKI@Jul?$AA@      00452be0     LIBCMTD:strftime.obj
 0002:00001be4       ??_C@_03LEIG@Jun?$AA@      00452be4     LIBCMTD:strftime.obj
 0002:00001be8       ??_C@_03MGHB@May?$AA@      00452be8     LIBCMTD:strftime.obj
 0002:00001bec       ??_C@_03MJJM@Apr?$AA@      00452bec     LIBCMTD:strftime.obj
 0002:00001bf0       ??_C@_03GNHA@Mar?$AA@      00452bf0     LIBCMTD:strftime.obj
 0002:00001bf4       ??_C@_03PICE@Feb?$AA@      00452bf4     LIBCMTD:strftime.obj
 0002:00001bf8       ??_C@_03IEIF@Jan?$AA@      00452bf8     LIBCMTD:strftime.obj
 0002:00001bfc       ??_C@_08FAKH@Saturday?$AA@ 00452bfc     LIBCMTD:strftime.obj
 0002:00001c08       ??_C@_06ONCK@Friday?$AA@   00452c08     LIBCMTD:strftime.obj
 0002:00001c10       ??_C@_08CCFO@Thursday?$AA@ 00452c10     LIBCMTD:strftime.obj
 0002:00001c1c       ??_C@_09PBIN@Wednesday?$AA@ 00452c1c     LIBCMTD:strftime.obj
 0002:00001c28       ??_C@_07BMBC@Tuesday?$AA@  00452c28     LIBCMTD:strftime.obj
 0002:00001c30       ??_C@_06CHLK@Monday?$AA@   00452c30     LIBCMTD:strftime.obj
 0002:00001c38       ??_C@_06OOEM@Sunday?$AA@   00452c38     LIBCMTD:strftime.obj
 0002:00001c40       ??_C@_03MPKK@Sat?$AA@      00452c40     LIBCMTD:strftime.obj
 0002:00001c44       ??_C@_03FINJ@Fri?$AA@      00452c44     LIBCMTD:strftime.obj
 0002:00001c48       ??_C@_03HIKC@Thu?$AA@      00452c48     LIBCMTD:strftime.obj
 0002:00001c4c       ??_C@_03HECK@Wed?$AA@      00452c4c     LIBCMTD:strftime.obj
 0002:00001c50       ??_C@_03ECCP@Tue?$AA@      00452c50     LIBCMTD:strftime.obj
 0002:00001c54       ??_C@_03PIEP@Mon?$AA@      00452c54     LIBCMTD:strftime.obj
 0002:00001c58       ??_C@_03FHEP@Sun?$AA@      00452c58     LIBCMTD:strftime.obj
 0002:00001c5c       ??_C@_03MKGK@a?1p?$AA@     00452c5c     LIBCMTD:strftime.obj
 0002:00001c60       ??_C@_05BDJK@am?1pm?$AA@   00452c60     LIBCMTD:strftime.obj
 0002:00001c68       ??_C@_0L@HKCB@inithelp?4c?$AA@ 00452c68     LIBCMTD:inithelp.obj
 0002:00001c90       ??_C@_06PAPI@1?$CDQNAN?$AA@ 00452c90     LIBCMTD:x10fout.obj
 0002:00001c98       ??_C@_05BGNL@1?$CDINF?$AA@ 00452c98     LIBCMTD:x10fout.obj
 0002:00001ca0       ??_C@_05EDPF@1?$CDIND?$AA@ 00452ca0     LIBCMTD:x10fout.obj
 0002:00001ca8       ??_C@_06LKFM@1?$CDSNAN?$AA@ 00452ca8     LIBCMTD:x10fout.obj
 0002:00001cb0       ??_C@_09LNLM@osfinfo?4c?$AA@ 00452cb0     LIBCMTD:osfinfo.obj
 0002:00001cbc       ___dnames                  00452cbc     LIBCMTD:timeset.obj
 0002:00001cd4       ___mnames                  00452cd4     LIBCMTD:timeset.obj
 0002:00001cfc       ??_C@_07DEKI@tzset?4c?$AA@ 00452cfc     LIBCMTD:tzset.obj
 0002:00001d04       ??_C@_02JHIA@TZ?$AA@       00452d04     LIBCMTD:tzset.obj
 0002:00001d24       ??_C@_08PHBD@fclose?4c?$AA@ 00452d24     LIBCMTD:fclose.obj
 0002:00001d30       ??_C@_0P@FHEA@stream?5?$CB?$DN?5NULL?$AA@ 00452d30     LIBCMTD:fclose.obj
 0002:00001d40       ??_C@_0L@JIE@_freebuf?4c?$AA@ 00452d40     LIBCMTD:_freebuf.obj
 0002:00001d4c       ??_C@_0L@EJNO@wtombenv?4c?$AA@ 00452d4c     LIBCMTD:wtombenv.obj
 0002:00001d58       ??_C@_07FOIK@a_cmp?4c?$AA@ 00452d58     LIBCMTD:a_cmp.obj
 0002:00001d60       ??_C@_0DN@PPKB@cchCount1?$DN?$DN0?5?$CG?$CG?5cchCount2?$DN?$DN1?5?$HM?$HM?5@ 00452d60     LIBCMTD:a_cmp.obj
 0002:00001db8       ??_C@_08FEIK@setenv?4c?$AA@ 00452db8     LIBCMTD:setenv.obj
 0002:00001dc8       ??_7?$basic_ostream@DU?$char_traits@D@std@@@std@@6B@ 00452dc8     libcpmtd:iostream.obj
 0002:00001dd0       ??_7?$basic_ios@DU?$char_traits@D@std@@@std@@6B@ 00452dd0     libcpmtd:iostream.obj
 0002:00001dd8       ??_7?$basic_istream@DU?$char_traits@D@std@@@std@@6B@ 00452dd8     libcpmtd:iostream.obj
 0002:00001de0       ??_7?$basic_filebuf@DU?$char_traits@D@std@@@std@@6B@ 00452de0     libcpmtd:iostream.obj
 0002:00001e18       ??_7?$basic_streambuf@DU?$char_traits@D@std@@@std@@6B@ 00452e18     libcpmtd:iostream.obj
 0002:00001e50       ??_7ios_base@std@@6B@      00452e50     libcpmtd:iostream.obj
 0002:00001e58       ??_7?$basic_ostream@GU?$char_traits@G@std@@@std@@6B@ 00452e58     libcpmtd:wiostrea.obj
 0002:00001e5c       ??_8?$basic_ostream@GU?$char_traits@G@std@@@std@@7B@ 00452e5c     libcpmtd:wiostrea.obj
 0002:00001e68       ??_7?$basic_ios@GU?$char_traits@G@std@@@std@@6B@ 00452e68     libcpmtd:wiostrea.obj
 0002:00001e70       ??_7?$basic_istream@GU?$char_traits@G@std@@@std@@6B@ 00452e70     libcpmtd:wiostrea.obj
 0002:00001e74       ??_8?$basic_istream@GU?$char_traits@G@std@@@std@@7B@ 00452e74     libcpmtd:wiostrea.obj
 0002:00001e80       ??_7?$basic_filebuf@GU?$char_traits@G@std@@@std@@6B@ 00452e80     libcpmtd:wiostrea.obj
 0002:00001eb8       ??_7?$basic_streambuf@GU?$char_traits@G@std@@@std@@6B@ 00452eb8     libcpmtd:wiostrea.obj
 0002:00001eec       ??_C@_0BA@HHMB@string?5too?5long?$AA@ 00452eec     libcpmtd:string.obj
 0002:00001f00       ??_7logic_error@std@@6B@   00452f00     libcpmtd:string.obj
 0002:00001f10       ??_7length_error@std@@6B@  00452f10     libcpmtd:string.obj
 0002:00001f1c       ??_C@_0BI@EEBE@invalid?5string?5position?$AA@ 00452f1c     libcpmtd:string.obj
 0002:00001f38       ??_7out_of_range@std@@6B@  00452f38     libcpmtd:string.obj
 0002:00001f48       ??_7istrstream@std@@6B@    00452f48     libcpmtd:strstrea.obj
 0002:00001f50       ??_7ostrstream@std@@6B@    00452f50     libcpmtd:strstrea.obj
 0002:00001f54       ??_8ostrstream@std@@7B@    00452f54     libcpmtd:strstrea.obj
 0002:00001f60       ??_7strstreambuf@std@@6B@  00452f60     libcpmtd:strstrea.obj
 0002:00001f98       ??_7strstream@std@@6B@     00452f98     libcpmtd:strstrea.obj
 0002:00001fa0       ??_7?$basic_iostream@DU?$char_traits@D@std@@@std@@6B@ 00452fa0     libcpmtd:strstrea.obj
 0002:00001fa8       ?_Fpz@std@@3_JB            00452fa8     libcpmtd:ios.obj
 0002:00001fb0       ??_C@_0BA@NGIA@ios?3?3eofbit?5set?$AA@ 00452fb0     libcpmtd:ios.obj
 0002:00001fc0       ??_C@_0BB@KPBH@ios?3?3failbit?5set?$AA@ 00452fc0     libcpmtd:ios.obj
 0002:00001fd4       ??_C@_0BA@HGGD@ios?3?3badbit?5set?$AA@ 00452fd4     libcpmtd:ios.obj
 0002:00001fe8       ??_7runtime_error@std@@6B@ 00452fe8     libcpmtd:ios.obj
 0002:00001ff8       ??_7failure@ios_base@std@@6B@ 00452ff8     libcpmtd:ios.obj
 0002:00002004       ??_C@_0BP@INPK@invalid?5ios?3?3iword?1pword?5index?$AA@ 00453004     libcpmtd:ios.obj
 0002:00002024       ?table_size@?$ctype@D@std@@2IB 00453024     libcpmtd:locale0.obj
 0002:00002028       ??_C@_01FDHG@?$CK?$AA@     00453028     libcpmtd:locale0.obj
 0002:00002030       ??_7_Locimp@locale@std@@6B@ 00453030     libcpmtd:locale0.obj
 0002:00002038       ??_7facet@locale@std@@6B@  00453038     libcpmtd:locale0.obj
 0002:0000203c       ??_C@_0BA@KCC@bad?5locale?5name?$AA@ 0045303c     libcpmtd:locale.obj
 0002:00002050       ??_7?$ctype@D@std@@6B@     00453050     libcpmtd:locale.obj
 0002:00002068       ??_7ctype_base@std@@6B@    00453068     libcpmtd:locale.obj
 0002:00002070       ??_7?$codecvt@DDH@std@@6B@ 00453070     libcpmtd:locale.obj
 0002:00002090       ??_7codecvt_base@std@@6B@  00453090     libcpmtd:locale.obj
 0002:000020a4       ??_7?$num_get@DV?$istreambuf_iterator@DU?$char_traits@D@std@@@std@@@std@@6B@ 004530a4     libcpmtd:locale.obj
 0002:000020d0       ??_7?$num_put@DV?$ostreambuf_iterator@DU?$char_traits@D@std@@@std@@@std@@6B@ 004530d0     libcpmtd:locale.obj
 0002:000020f0       ??_7?$numpunct@D@std@@6B@  004530f0     libcpmtd:locale.obj
 0002:00002108       ??_C@_0BH@CFAI@0123456789abcdefABCDEF?$AA@ 00453108     libcpmtd:locale.obj
 0002:00002124       ??_7bad_cast@std@@6B@      00453124     libcpmtd:locale.obj
 0002:00002130       ??_C@_09CDHA@xmbtowc?4c?$AA@ 00453130     libcpmtd:xmbtowc.obj
 0002:0000213c       ??_C@_0CD@NPPL@MB_CUR_MAX?5?$DN?$DN?51?5?$HM?$HM?5MB_CUR_MAX?5?$DN?$DN@ 0045313c     libcpmtd:xmbtowc.obj
 0002:00002160       ?nothrow@std@@3Unothrow_t@1@B 00453160     libcpmtd:nomemory.obj
 0002:00002164       ??_C@_0P@LJNA@bad?5allocation?$AA@ 00453164     libcpmtd:nomemory.obj
 0002:00002178       ??_7bad_alloc@std@@6B@     00453178     libcpmtd:nomemory.obj
 0002:00002188       ??_7?$codecvt@GDH@std@@6B@ 00453188     libcpmtd:wlocale.obj
 0002:000021a8       ??_7?$ctype@G@std@@6B@     004531a8     libcpmtd:wlocale.obj
 0002:000021e0       ??_7?$time_put@GV?$ostreambuf_iterator@GU?$char_traits@G@std@@@std@@@std@@6B@ 004531e0     libcpmtd:wlocale.obj
 0002:000021ec       ??_7time_base@std@@6B@     004531ec     libcpmtd:wlocale.obj
 0002:000021f0       ??_C@_04HHID@?$CB?$CFx?$AA?$AA@ 004531f0     libcpmtd:wlocale.obj
 0002:000021fc       ??_7?$num_get@GV?$istreambuf_iterator@GU?$char_traits@G@std@@@std@@@std@@6B@ 004531fc     libcpmtd:wlocale.obj
 0002:00002228       ??_7?$num_put@GV?$ostreambuf_iterator@GU?$char_traits@G@std@@@std@@@std@@6B@ 00453228     libcpmtd:wlocale.obj
 0002:00002248       ??_7?$numpunct@G@std@@6B@  00453248     libcpmtd:wlocale.obj
 0002:00002264       ??_7?$collate@G@std@@6B@   00453264     libcpmtd:wlocale.obj
 0002:00002278       ??_7?$messages@G@std@@6B@  00453278     libcpmtd:wlocale.obj
 0002:0000228c       ??_7messages_base@std@@6B@ 0045328c     libcpmtd:wlocale.obj
 0002:00002294       ??_7?$money_get@GV?$istreambuf_iterator@GU?$char_traits@G@std@@@std@@@std@@6B@ 00453294     libcpmtd:wlocale.obj
 0002:000022a4       ??_7?$money_put@GV?$ostreambuf_iterator@GU?$char_traits@G@std@@@std@@@std@@6B@ 004532a4     libcpmtd:wlocale.obj
 0002:000022b0       ??_C@_05FFJC@?$CF?40Lf?$AA@ 004532b0     libcpmtd:wlocale.obj
 0002:000022b8       __real@8@40209502f90000000000 004532b8     libcpmtd:wlocale.obj
 0002:000022c0       __real@8@40739a130b963a6c1000 004532c0     libcpmtd:wlocale.obj
 0002:000022cc       ??_7?$moneypunct@G$0A@@std@@6B@ 004532cc     libcpmtd:wlocale.obj
 0002:000022f8       ??_7?$moneypunct@G$00@std@@6B@ 004532f8     libcpmtd:wlocale.obj
 0002:00002324       ??_7?$time_get@GV?$istreambuf_iterator@GU?$char_traits@G@std@@@std@@@std@@6B@ 00453324     libcpmtd:wlocale.obj
 0002:00002344       ??_7?$_Mpunct@G@std@@6B@   00453344     libcpmtd:wlocale.obj
 0002:0000236c       ??_C@_02ELCB@no?$AA@       0045336c     libcpmtd:wlocale.obj
 0002:00002370       ??_C@_03LGKI@yes?$AA@      00453370     libcpmtd:wlocale.obj
 0002:00002374       ?npos@?$basic_string@GU?$char_traits@G@std@@V?$allocator@G@2@@std@@2IB 00453374     libcpmtd:wlocale.obj
 0002:0000237c       ??_7money_base@std@@6B@    0045337c     libcpmtd:wlocale.obj
 0002:00002380       ??_C@_0FG@ILEN@?3Sun?3Sunday?3Mon?3Monday?3Tue?3Tuesd@ 00453380     libcpmtd:wlocale.obj
 0002:000023d8       ??_C@_0IH@JLLA@?3Jan?3January?3Feb?3February?3Mar?3Ma@ 004533d8     libcpmtd:wlocale.obj
 0002:00002460       ?_C@?1??_Nullstr@?$basic_string@GU?$char_traits@G@std@@V?$allocator@G@2@@std@@CAPBGXZ@4GB 00453460     libcpmtd:wlocale.obj
 0002:00002464       ??_C@_01GJD@?9?$AA@        00453464     libcpmtd:wlocale.obj
 0002:00002468       ??_C@_04HDBI@$?$CLvx?$AA@  00453468     libcpmtd:wlocale.obj
 0002:00002470       ??_C@_0FB@PNAB@?$CLv$x?$CLv$xv$?$CLxv?$CL$xv$?$CLx?$CL$vx?$CL$vx$v?$CLx@ 00453470     libcpmtd:wlocale.obj
 0002:000024c8       ??_7?$collate@D@std@@6B@   004534c8     libcpmtd:xlocale.obj
 0002:000024dc       ??_7?$messages@D@std@@6B@  004534dc     libcpmtd:xlocale.obj
 0002:000024f0       ??_7?$money_get@DV?$istreambuf_iterator@DU?$char_traits@D@std@@@std@@@std@@6B@ 004534f0     libcpmtd:xlocale.obj
 0002:00002500       ??_7?$money_put@DV?$ostreambuf_iterator@DU?$char_traits@D@std@@@std@@@std@@6B@ 00453500     libcpmtd:xlocale.obj
 0002:00002510       ??_7?$moneypunct@D$0A@@std@@6B@ 00453510     libcpmtd:xlocale.obj
 0002:0000253c       ??_7?$moneypunct@D$00@std@@6B@ 0045353c     libcpmtd:xlocale.obj
 0002:00002568       ??_7?$time_get@DV?$istreambuf_iterator@DU?$char_traits@D@std@@@std@@@std@@6B@ 00453568     libcpmtd:xlocale.obj
 0002:00002588       ??_7?$time_put@DV?$ostreambuf_iterator@DU?$char_traits@D@std@@@std@@@std@@6B@ 00453588     libcpmtd:xlocale.obj
 0002:00002594       ??_7?$_Mpunct@D@std@@6B@   00453594     libcpmtd:xlocale.obj
 0002:000025c0       __real@8@4002a000000000000000 004535c0     libcpmtd:xstod.obj
 0002:000025c8       ??_C@_08ENH@strupr?4c?$AA@ 004535c8     LIBCMTD:strupr.obj
 0002:000025d4       ??_C@_08FNDD@strlwr?4c?$AA@ 004535d4     LIBCMTD:strlwr.obj
 0002:000025e0       ??_C@_07CJDP@fputc?4c?$AA@ 004535e0     LIBCMTD:fputc.obj
 0002:000025e8       ??_C@_08JKP@ungetc?4c?$AA@ 004535e8     LIBCMTD:ungetc.obj
 0002:000025f4       ??_C@_07JJAI@fgetc?4c?$AA@ 004535f4     LIBCMTD:fgetc.obj
 0002:000025fc       ??_C@_07HFEM@fseek?4c?$AA@ 004535fc     LIBCMTD:fseek.obj
 0002:00002604       ??_C@_09GCII@setvbuf?4c?$AA@ 00453604     LIBCMTD:setvbuf.obj
 0002:00002610       ??_C@_08JFHL@fputwc?4c?$AA@ 00453610     LIBCMTD:fputwc.obj
 0002:0000261c       ??_C@_09JKFL@ungetwc?4c?$AA@ 0045361c     LIBCMTD:ungetwc.obj
 0002:00002628       ??_C@_08OPML@fgetwc?4c?$AA@ 00453628     LIBCMTD:fgetwc.obj
 0002:00002634       ??_C@_09DNOI@_filbuf?4c?$AA@ 00453634     LIBCMTD:_filbuf.obj
 0002:00002640       ??_C@_0L@JOEJ@ftelli64?4c?$AA@ 00453640     LIBCMTD:ftelli64.obj
 0002:0000264c       ??_C@_07CMIP@ftell?4c?$AA@ 0045364c     LIBCMTD:ftell.obj
 0002:00002654       ??_C@_0L@GDOJ@fseeki64?4c?$AA@ 00453654     LIBCMTD:fseeki64.obj
 0002:00002660       ??_C@_08MOLN@mbtowc?4c?$AA@ 00453660     LIBCMTD:mbtowc.obj
 0002:00002670       ??_R1A@?0A@A@exception@@8  00453670     LIBCMTD:stdexcpt.obj
 0002:00002688       ??_R2exception@@8          00453688     LIBCMTD:stdexcpt.obj
 0002:00002690       ??_R3exception@@8          00453690     LIBCMTD:stdexcpt.obj
 0002:000026a0       ??_R4exception@@6B@        004536a0     LIBCMTD:stdexcpt.obj
 0002:000026b8       ??_R1A@?0A@A@type_info@@8  004536b8     LIBCMTD:typinfo.obj
 0002:000026d0       ??_R2type_info@@8          004536d0     LIBCMTD:typinfo.obj
 0002:000026d8       ??_R3type_info@@8          004536d8     LIBCMTD:typinfo.obj
 0002:000026e8       ??_R4type_info@@6B@        004536e8     LIBCMTD:typinfo.obj
 0002:00002700       ??_R1A@A@3A@ios_base@std@@8 00453700     libcpmtd:iostream.obj
 0002:00002718       ??_R1A@A@3BA@?$basic_ios@DU?$char_traits@D@std@@@std@@8 00453718     libcpmtd:iostream.obj
 0002:00002730       ??_R1A@?0A@A@?$basic_ostream@DU?$char_traits@D@std@@@std@@8 00453730     libcpmtd:iostream.obj
 0002:00002748       ??_R2?$basic_ostream@DU?$char_traits@D@std@@@std@@8 00453748     libcpmtd:iostream.obj
 0002:00002758       ??_R3?$basic_ostream@DU?$char_traits@D@std@@@std@@8 00453758     libcpmtd:iostream.obj
 0002:00002768       ??_R4?$basic_ostream@DU?$char_traits@D@std@@@std@@6B@ 00453768     libcpmtd:iostream.obj
 0002:00002780       ??_R1A@?0A@A@ios_base@std@@8 00453780     libcpmtd:iostream.obj
 0002:00002798       ??_R1A@?0A@A@?$basic_ios@DU?$char_traits@D@std@@@std@@8 00453798     libcpmtd:iostream.obj
 0002:000027b0       ??_R2?$basic_ios@DU?$char_traits@D@std@@@std@@8 004537b0     libcpmtd:iostream.obj
 0002:000027c0       ??_R3?$basic_ios@DU?$char_traits@D@std@@@std@@8 004537c0     libcpmtd:iostream.obj
 0002:000027d0       ??_R4?$basic_ios@DU?$char_traits@D@std@@@std@@6B@ 004537d0     libcpmtd:iostream.obj
 0002:000027e8       ??_R1A@?0A@A@?$basic_istream@DU?$char_traits@D@std@@@std@@8 004537e8     libcpmtd:iostream.obj
 0002:00002800       ??_R2?$basic_istream@DU?$char_traits@D@std@@@std@@8 00453800     libcpmtd:iostream.obj
 0002:00002810       ??_R3?$basic_istream@DU?$char_traits@D@std@@@std@@8 00453810     libcpmtd:iostream.obj
 0002:00002820       ??_R4?$basic_istream@DU?$char_traits@D@std@@@std@@6B@ 00453820     libcpmtd:iostream.obj
 0002:00002838       ??_R1A@?0A@A@?$basic_streambuf@DU?$char_traits@D@std@@@std@@8 00453838     libcpmtd:iostream.obj
 0002:00002850       ??_R1A@?0A@A@?$basic_filebuf@DU?$char_traits@D@std@@@std@@8 00453850     libcpmtd:iostream.obj
 0002:00002868       ??_R2?$basic_filebuf@DU?$char_traits@D@std@@@std@@8 00453868     libcpmtd:iostream.obj
 0002:00002878       ??_R3?$basic_filebuf@DU?$char_traits@D@std@@@std@@8 00453878     libcpmtd:iostream.obj
 0002:00002888       ??_R4?$basic_filebuf@DU?$char_traits@D@std@@@std@@6B@ 00453888     libcpmtd:iostream.obj
 0002:0000289c       ??_R2?$basic_streambuf@DU?$char_traits@D@std@@@std@@8 0045389c     libcpmtd:iostream.obj
 0002:000028a8       ??_R3?$basic_streambuf@DU?$char_traits@D@std@@@std@@8 004538a8     libcpmtd:iostream.obj
 0002:000028b8       ??_R4?$basic_streambuf@DU?$char_traits@D@std@@@std@@6B@ 004538b8     libcpmtd:iostream.obj
 0002:000028cc       ??_R2ios_base@std@@8       004538cc     libcpmtd:iostream.obj
 0002:000028d8       ??_R3ios_base@std@@8       004538d8     libcpmtd:iostream.obj
 0002:000028e8       ??_R4ios_base@std@@6B@     004538e8     libcpmtd:iostream.obj
 0002:00002900       ??_R1A@A@3BA@?$basic_ios@GU?$char_traits@G@std@@@std@@8 00453900     libcpmtd:wiostrea.obj
 0002:00002918       ??_R1A@?0A@A@?$basic_ostream@GU?$char_traits@G@std@@@std@@8 00453918     libcpmtd:wiostrea.obj
 0002:00002930       ??_R2?$basic_ostream@GU?$char_traits@G@std@@@std@@8 00453930     libcpmtd:wiostrea.obj
 0002:00002940       ??_R3?$basic_ostream@GU?$char_traits@G@std@@@std@@8 00453940     libcpmtd:wiostrea.obj
 0002:00002950       ??_R4?$basic_ostream@GU?$char_traits@G@std@@@std@@6B@ 00453950     libcpmtd:wiostrea.obj
 0002:00002968       ??_R1A@?0A@A@?$basic_ios@GU?$char_traits@G@std@@@std@@8 00453968     libcpmtd:wiostrea.obj
 0002:00002980       ??_R2?$basic_ios@GU?$char_traits@G@std@@@std@@8 00453980     libcpmtd:wiostrea.obj
 0002:00002990       ??_R3?$basic_ios@GU?$char_traits@G@std@@@std@@8 00453990     libcpmtd:wiostrea.obj
 0002:000029a0       ??_R4?$basic_ios@GU?$char_traits@G@std@@@std@@6B@ 004539a0     libcpmtd:wiostrea.obj
 0002:000029b8       ??_R1A@?0A@A@?$basic_istream@GU?$char_traits@G@std@@@std@@8 004539b8     libcpmtd:wiostrea.obj
 0002:000029d0       ??_R2?$basic_istream@GU?$char_traits@G@std@@@std@@8 004539d0     libcpmtd:wiostrea.obj
 0002:000029e0       ??_R3?$basic_istream@GU?$char_traits@G@std@@@std@@8 004539e0     libcpmtd:wiostrea.obj
 0002:000029f0       ??_R4?$basic_istream@GU?$char_traits@G@std@@@std@@6B@ 004539f0     libcpmtd:wiostrea.obj
 0002:00002a08       ??_R1A@?0A@A@?$basic_streambuf@GU?$char_traits@G@std@@@std@@8 00453a08     libcpmtd:wiostrea.obj
 0002:00002a20       ??_R1A@?0A@A@?$basic_filebuf@GU?$char_traits@G@std@@@std@@8 00453a20     libcpmtd:wiostrea.obj
 0002:00002a38       ??_R2?$basic_filebuf@GU?$char_traits@G@std@@@std@@8 00453a38     libcpmtd:wiostrea.obj
 0002:00002a48       ??_R3?$basic_filebuf@GU?$char_traits@G@std@@@std@@8 00453a48     libcpmtd:wiostrea.obj
 0002:00002a58       ??_R4?$basic_filebuf@GU?$char_traits@G@std@@@std@@6B@ 00453a58     libcpmtd:wiostrea.obj
 0002:00002a6c       ??_R2?$basic_streambuf@GU?$char_traits@G@std@@@std@@8 00453a6c     libcpmtd:wiostrea.obj
 0002:00002a78       ??_R3?$basic_streambuf@GU?$char_traits@G@std@@@std@@8 00453a78     libcpmtd:wiostrea.obj
 0002:00002a88       ??_R4?$basic_streambuf@GU?$char_traits@G@std@@@std@@6B@ 00453a88     libcpmtd:wiostrea.obj
 0002:00002aa0       ??_R1A@?0A@A@logic_error@std@@8 00453aa0     libcpmtd:string.obj
 0002:00002ab8       ??_R2logic_error@std@@8    00453ab8     libcpmtd:string.obj
 0002:00002ac8       ??_R3logic_error@std@@8    00453ac8     libcpmtd:string.obj
 0002:00002ad8       ??_R4logic_error@std@@6B@  00453ad8     libcpmtd:string.obj
 0002:00002af0       ??_R1A@?0A@A@length_error@std@@8 00453af0     libcpmtd:string.obj
 0002:00002b08       ??_R2length_error@std@@8   00453b08     libcpmtd:string.obj
 0002:00002b18       ??_R3length_error@std@@8   00453b18     libcpmtd:string.obj
 0002:00002b28       ??_R4length_error@std@@6B@ 00453b28     libcpmtd:string.obj
 0002:00002b40       ??_R1A@?0A@A@out_of_range@std@@8 00453b40     libcpmtd:string.obj
 0002:00002b58       ??_R2out_of_range@std@@8   00453b58     libcpmtd:string.obj
 0002:00002b68       ??_R3out_of_range@std@@8   00453b68     libcpmtd:string.obj
 0002:00002b78       ??_R4out_of_range@std@@6B@ 00453b78     libcpmtd:string.obj
 0002:00002b90       ??_R1A@?0A@A@istrstream@std@@8 00453b90     libcpmtd:strstrea.obj
 0002:00002ba8       ??_R2istrstream@std@@8     00453ba8     libcpmtd:strstrea.obj
 0002:00002bc0       ??_R3istrstream@std@@8     00453bc0     libcpmtd:strstrea.obj
 0002:00002bd0       ??_R4istrstream@std@@6B@   00453bd0     libcpmtd:strstrea.obj
 0002:00002be8       ??_R1A@?0A@A@ostrstream@std@@8 00453be8     libcpmtd:strstrea.obj
 0002:00002c00       ??_R2ostrstream@std@@8     00453c00     libcpmtd:strstrea.obj
 0002:00002c18       ??_R3ostrstream@std@@8     00453c18     libcpmtd:strstrea.obj
 0002:00002c28       ??_R4ostrstream@std@@6B@   00453c28     libcpmtd:strstrea.obj
 0002:00002c40       ??_R1A@?0A@A@strstreambuf@std@@8 00453c40     libcpmtd:strstrea.obj
 0002:00002c58       ??_R2strstreambuf@std@@8   00453c58     libcpmtd:strstrea.obj
 0002:00002c68       ??_R3strstreambuf@std@@8   00453c68     libcpmtd:strstrea.obj
 0002:00002c78       ??_R4strstreambuf@std@@6B@ 00453c78     libcpmtd:strstrea.obj
 0002:00002c90       ??_R17?0A@A@?$basic_ostream@DU?$char_traits@D@std@@@std@@8 00453c90     libcpmtd:strstrea.obj
 0002:00002ca8       ??_R1A@?0A@A@?$basic_iostream@DU?$char_traits@D@std@@@std@@8 00453ca8     libcpmtd:strstrea.obj
 0002:00002cc0       ??_R1A@?0A@A@strstream@std@@8 00453cc0     libcpmtd:strstrea.obj
 0002:00002cd8       ??_R2strstream@std@@8      00453cd8     libcpmtd:strstrea.obj
 0002:00002d00       ??_R3strstream@std@@8      00453d00     libcpmtd:strstrea.obj
 0002:00002d10       ??_R4strstream@std@@6B@    00453d10     libcpmtd:strstrea.obj
 0002:00002d28       ??_R2?$basic_iostream@DU?$char_traits@D@std@@@std@@8 00453d28     libcpmtd:strstrea.obj
 0002:00002d48       ??_R3?$basic_iostream@DU?$char_traits@D@std@@@std@@8 00453d48     libcpmtd:strstrea.obj
 0002:00002d58       ??_R4?$basic_iostream@DU?$char_traits@D@std@@@std@@6B@ 00453d58     libcpmtd:strstrea.obj
 0002:00002d70       ??_R1A@?0A@A@runtime_error@std@@8 00453d70     libcpmtd:ios.obj
 0002:00002d88       ??_R2runtime_error@std@@8  00453d88     libcpmtd:ios.obj
 0002:00002d98       ??_R3runtime_error@std@@8  00453d98     libcpmtd:ios.obj
 0002:00002da8       ??_R4runtime_error@std@@6B@ 00453da8     libcpmtd:ios.obj
 0002:00002dc0       ??_R1A@?0A@A@failure@ios_base@std@@8 00453dc0     libcpmtd:ios.obj
 0002:00002dd8       ??_R2failure@ios_base@std@@8 00453dd8     libcpmtd:ios.obj
 0002:00002de8       ??_R3failure@ios_base@std@@8 00453de8     libcpmtd:ios.obj
 0002:00002df8       ??_R4failure@ios_base@std@@6B@ 00453df8     libcpmtd:ios.obj
 0002:00002e10       ??_R1A@?0A@A@facet@locale@std@@8 00453e10     libcpmtd:locale0.obj
 0002:00002e28       ??_R1A@?0A@A@_Locimp@locale@std@@8 00453e28     libcpmtd:locale0.obj
 0002:00002e40       ??_R2_Locimp@locale@std@@8 00453e40     libcpmtd:locale0.obj
 0002:00002e50       ??_R3_Locimp@locale@std@@8 00453e50     libcpmtd:locale0.obj
 0002:00002e60       ??_R4_Locimp@locale@std@@6B@ 00453e60     libcpmtd:locale0.obj
 0002:00002e74       ??_R2facet@locale@std@@8   00453e74     libcpmtd:locale0.obj
 0002:00002e80       ??_R3facet@locale@std@@8   00453e80     libcpmtd:locale0.obj
 0002:00002e90       ??_R4facet@locale@std@@6B@ 00453e90     libcpmtd:locale0.obj
 0002:00002ea8       ??_R1A@?0A@A@ctype_base@std@@8 00453ea8     libcpmtd:locale.obj
 0002:00002ec0       ??_R1A@?0A@A@?$ctype@D@std@@8 00453ec0     libcpmtd:locale.obj
 0002:00002ed8       ??_R2?$ctype@D@std@@8      00453ed8     libcpmtd:locale.obj
 0002:00002ee8       ??_R3?$ctype@D@std@@8      00453ee8     libcpmtd:locale.obj
 0002:00002ef8       ??_R4?$ctype@D@std@@6B@    00453ef8     libcpmtd:locale.obj
 0002:00002f10       ??_R2ctype_base@std@@8     00453f10     libcpmtd:locale.obj
 0002:00002f20       ??_R3ctype_base@std@@8     00453f20     libcpmtd:locale.obj
 0002:00002f30       ??_R4ctype_base@std@@6B@   00453f30     libcpmtd:locale.obj
 0002:00002f48       ??_R1A@?0A@A@codecvt_base@std@@8 00453f48     libcpmtd:locale.obj
 0002:00002f60       ??_R1A@?0A@A@?$codecvt@DDH@std@@8 00453f60     libcpmtd:locale.obj
 0002:00002f78       ??_R2?$codecvt@DDH@std@@8  00453f78     libcpmtd:locale.obj
 0002:00002f88       ??_R3?$codecvt@DDH@std@@8  00453f88     libcpmtd:locale.obj
 0002:00002f98       ??_R4?$codecvt@DDH@std@@6B@ 00453f98     libcpmtd:locale.obj
 0002:00002fb0       ??_R2codecvt_base@std@@8   00453fb0     libcpmtd:locale.obj
 0002:00002fc0       ??_R3codecvt_base@std@@8   00453fc0     libcpmtd:locale.obj
 0002:00002fd0       ??_R4codecvt_base@std@@6B@ 00453fd0     libcpmtd:locale.obj
 0002:00002fe8       ??_R1A@?0A@A@?$num_get@DV?$istreambuf_iterator@DU?$char_traits@D@std@@@std@@@std@@8 00453fe8     libcpmtd:locale.obj
 0002:00003000       ??_R2?$num_get@DV?$istreambuf_iterator@DU?$char_traits@D@std@@@std@@@std@@8 00454000     libcpmtd:locale.obj
 0002:00003010       ??_R3?$num_get@DV?$istreambuf_iterator@DU?$char_traits@D@std@@@std@@@std@@8 00454010     libcpmtd:locale.obj
 0002:00003020       ??_R4?$num_get@DV?$istreambuf_iterator@DU?$char_traits@D@std@@@std@@@std@@6B@ 00454020     libcpmtd:locale.obj
 0002:00003038       ??_R1A@?0A@A@?$num_put@DV?$ostreambuf_iterator@DU?$char_traits@D@std@@@std@@@std@@8 00454038     libcpmtd:locale.obj
 0002:00003050       ??_R2?$num_put@DV?$ostreambuf_iterator@DU?$char_traits@D@std@@@std@@@std@@8 00454050     libcpmtd:locale.obj
 0002:00003060       ??_R3?$num_put@DV?$ostreambuf_iterator@DU?$char_traits@D@std@@@std@@@std@@8 00454060     libcpmtd:locale.obj
 0002:00003070       ??_R4?$num_put@DV?$ostreambuf_iterator@DU?$char_traits@D@std@@@std@@@std@@6B@ 00454070     libcpmtd:locale.obj
 0002:00003088       ??_R1A@?0A@A@?$numpunct@D@std@@8 00454088     libcpmtd:locale.obj
 0002:000030a0       ??_R2?$numpunct@D@std@@8   004540a0     libcpmtd:locale.obj
 0002:000030b0       ??_R3?$numpunct@D@std@@8   004540b0     libcpmtd:locale.obj
 0002:000030c0       ??_R4?$numpunct@D@std@@6B@ 004540c0     libcpmtd:locale.obj
 0002:000030d8       ??_R1A@?0A@A@bad_cast@std@@8 004540d8     libcpmtd:locale.obj
 0002:000030f0       ??_R2bad_cast@std@@8       004540f0     libcpmtd:locale.obj
 0002:00003100       ??_R3bad_cast@std@@8       00454100     libcpmtd:locale.obj
 0002:00003110       ??_R4bad_cast@std@@6B@     00454110     libcpmtd:locale.obj
 0002:00003128       ??_R1A@?0A@A@bad_alloc@std@@8 00454128     libcpmtd:nomemory.obj
 0002:00003140       ??_R2bad_alloc@std@@8      00454140     libcpmtd:nomemory.obj
 0002:00003150       ??_R3bad_alloc@std@@8      00454150     libcpmtd:nomemory.obj
 0002:00003160       ??_R4bad_alloc@std@@6B@    00454160     libcpmtd:nomemory.obj
 0002:00003178       ??_R1A@?0A@A@?$codecvt@GDH@std@@8 00454178     libcpmtd:wlocale.obj
 0002:00003190       ??_R2?$codecvt@GDH@std@@8  00454190     libcpmtd:wlocale.obj
 0002:000031a0       ??_R3?$codecvt@GDH@std@@8  004541a0     libcpmtd:wlocale.obj
 0002:000031b0       ??_R4?$codecvt@GDH@std@@6B@ 004541b0     libcpmtd:wlocale.obj
 0002:000031c8       ??_R1A@?0A@A@?$ctype@G@std@@8 004541c8     libcpmtd:wlocale.obj
 0002:000031e0       ??_R2?$ctype@G@std@@8      004541e0     libcpmtd:wlocale.obj
 0002:000031f0       ??_R3?$ctype@G@std@@8      004541f0     libcpmtd:wlocale.obj
 0002:00003200       ??_R4?$ctype@G@std@@6B@    00454200     libcpmtd:wlocale.obj
 0002:00003218       ??_R1A@?0A@A@time_base@std@@8 00454218     libcpmtd:wlocale.obj
 0002:00003230       ??_R1A@?0A@A@?$time_put@GV?$ostreambuf_iterator@GU?$char_traits@G@std@@@std@@@std@@8 00454230     libcpmtd:wlocale.obj
 0002:00003248       ??_R2?$time_put@GV?$ostreambuf_iterator@GU?$char_traits@G@std@@@std@@@std@@8 00454248     libcpmtd:wlocale.obj
 0002:00003258       ??_R3?$time_put@GV?$ostreambuf_iterator@GU?$char_traits@G@std@@@std@@@std@@8 00454258     libcpmtd:wlocale.obj
 0002:00003268       ??_R4?$time_put@GV?$ostreambuf_iterator@GU?$char_traits@G@std@@@std@@@std@@6B@ 00454268     libcpmtd:wlocale.obj
 0002:00003280       ??_R2time_base@std@@8      00454280     libcpmtd:wlocale.obj
 0002:00003290       ??_R3time_base@std@@8      00454290     libcpmtd:wlocale.obj
 0002:000032a0       ??_R4time_base@std@@6B@    004542a0     libcpmtd:wlocale.obj
 0002:000032b8       ??_R1A@?0A@A@?$num_get@GV?$istreambuf_iterator@GU?$char_traits@G@std@@@std@@@std@@8 004542b8     libcpmtd:wlocale.obj
 0002:000032d0       ??_R2?$num_get@GV?$istreambuf_iterator@GU?$char_traits@G@std@@@std@@@std@@8 004542d0     libcpmtd:wlocale.obj
 0002:000032e0       ??_R3?$num_get@GV?$istreambuf_iterator@GU?$char_traits@G@std@@@std@@@std@@8 004542e0     libcpmtd:wlocale.obj
 0002:000032f0       ??_R4?$num_get@GV?$istreambuf_iterator@GU?$char_traits@G@std@@@std@@@std@@6B@ 004542f0     libcpmtd:wlocale.obj
 0002:00003308       ??_R1A@?0A@A@?$num_put@GV?$ostreambuf_iterator@GU?$char_traits@G@std@@@std@@@std@@8 00454308     libcpmtd:wlocale.obj
 0002:00003320       ??_R2?$num_put@GV?$ostreambuf_iterator@GU?$char_traits@G@std@@@std@@@std@@8 00454320     libcpmtd:wlocale.obj
 0002:00003330       ??_R3?$num_put@GV?$ostreambuf_iterator@GU?$char_traits@G@std@@@std@@@std@@8 00454330     libcpmtd:wlocale.obj
 0002:00003340       ??_R4?$num_put@GV?$ostreambuf_iterator@GU?$char_traits@G@std@@@std@@@std@@6B@ 00454340     libcpmtd:wlocale.obj
 0002:00003358       ??_R1A@?0A@A@?$numpunct@G@std@@8 00454358     libcpmtd:wlocale.obj
 0002:00003370       ??_R2?$numpunct@G@std@@8   00454370     libcpmtd:wlocale.obj
 0002:00003380       ??_R3?$numpunct@G@std@@8   00454380     libcpmtd:wlocale.obj
 0002:00003390       ??_R4?$numpunct@G@std@@6B@ 00454390     libcpmtd:wlocale.obj
 0002:000033a8       ??_R1A@?0A@A@?$collate@G@std@@8 004543a8     libcpmtd:wlocale.obj
 0002:000033c0       ??_R2?$collate@G@std@@8    004543c0     libcpmtd:wlocale.obj
 0002:000033d0       ??_R3?$collate@G@std@@8    004543d0     libcpmtd:wlocale.obj
 0002:000033e0       ??_R4?$collate@G@std@@6B@  004543e0     libcpmtd:wlocale.obj
 0002:000033f8       ??_R1A@?0A@A@messages_base@std@@8 004543f8     libcpmtd:wlocale.obj
 0002:00003410       ??_R1A@?0A@A@?$messages@G@std@@8 00454410     libcpmtd:wlocale.obj
 0002:00003428       ??_R2?$messages@G@std@@8   00454428     libcpmtd:wlocale.obj
 0002:00003438       ??_R3?$messages@G@std@@8   00454438     libcpmtd:wlocale.obj
 0002:00003448       ??_R4?$messages@G@std@@6B@ 00454448     libcpmtd:wlocale.obj
 0002:00003460       ??_R2messages_base@std@@8  00454460     libcpmtd:wlocale.obj
 0002:00003470       ??_R3messages_base@std@@8  00454470     libcpmtd:wlocale.obj
 0002:00003480       ??_R4messages_base@std@@6B@ 00454480     libcpmtd:wlocale.obj
 0002:00003498       ??_R1A@?0A@A@?$money_get@GV?$istreambuf_iterator@GU?$char_traits@G@std@@@std@@@std@@8 00454498     libcpmtd:wlocale.obj
 0002:000034b0       ??_R2?$money_get@GV?$istreambuf_iterator@GU?$char_traits@G@std@@@std@@@std@@8 004544b0     libcpmtd:wlocale.obj
 0002:000034c0       ??_R3?$money_get@GV?$istreambuf_iterator@GU?$char_traits@G@std@@@std@@@std@@8 004544c0     libcpmtd:wlocale.obj
 0002:000034d0       ??_R4?$money_get@GV?$istreambuf_iterator@GU?$char_traits@G@std@@@std@@@std@@6B@ 004544d0     libcpmtd:wlocale.obj
 0002:000034e8       ??_R1A@?0A@A@?$money_put@GV?$ostreambuf_iterator@GU?$char_traits@G@std@@@std@@@std@@8 004544e8     libcpmtd:wlocale.obj
 0002:00003500       ??_R2?$money_put@GV?$ostreambuf_iterator@GU?$char_traits@G@std@@@std@@@std@@8 00454500     libcpmtd:wlocale.obj
 0002:00003510       ??_R3?$money_put@GV?$ostreambuf_iterator@GU?$char_traits@G@std@@@std@@@std@@8 00454510     libcpmtd:wlocale.obj
 0002:00003520       ??_R4?$money_put@GV?$ostreambuf_iterator@GU?$char_traits@G@std@@@std@@@std@@6B@ 00454520     libcpmtd:wlocale.obj
 0002:00003538       ??_R1A@?0A@A@money_base@std@@8 00454538     libcpmtd:wlocale.obj
 0002:00003550       ??_R1A@?0A@A@?$_Mpunct@G@std@@8 00454550     libcpmtd:wlocale.obj
 0002:00003568       ??_R1A@?0A@A@?$moneypunct@G$0A@@std@@8 00454568     libcpmtd:wlocale.obj
 0002:00003580       ??_R2?$moneypunct@G$0A@@std@@8 00454580     libcpmtd:wlocale.obj
 0002:00003598       ??_R3?$moneypunct@G$0A@@std@@8 00454598     libcpmtd:wlocale.obj
 0002:000035a8       ??_R4?$moneypunct@G$0A@@std@@6B@ 004545a8     libcpmtd:wlocale.obj
 0002:000035c0       ??_R1A@?0A@A@?$moneypunct@G$00@std@@8 004545c0     libcpmtd:wlocale.obj
 0002:000035d8       ??_R2?$moneypunct@G$00@std@@8 004545d8     libcpmtd:wlocale.obj
 0002:000035f0       ??_R3?$moneypunct@G$00@std@@8 004545f0     libcpmtd:wlocale.obj
 0002:00003600       ??_R4?$moneypunct@G$00@std@@6B@ 00454600     libcpmtd:wlocale.obj
 0002:00003618       ??_R1A@?0A@A@?$time_get@GV?$istreambuf_iterator@GU?$char_traits@G@std@@@std@@@std@@8 00454618     libcpmtd:wlocale.obj
 0002:00003630       ??_R2?$time_get@GV?$istreambuf_iterator@GU?$char_traits@G@std@@@std@@@std@@8 00454630     libcpmtd:wlocale.obj
 0002:00003640       ??_R3?$time_get@GV?$istreambuf_iterator@GU?$char_traits@G@std@@@std@@@std@@8 00454640     libcpmtd:wlocale.obj
 0002:00003650       ??_R4?$time_get@GV?$istreambuf_iterator@GU?$char_traits@G@std@@@std@@@std@@6B@ 00454650     libcpmtd:wlocale.obj
 0002:00003668       ??_R2?$_Mpunct@G@std@@8    00454668     libcpmtd:wlocale.obj
 0002:00003678       ??_R3?$_Mpunct@G@std@@8    00454678     libcpmtd:wlocale.obj
 0002:00003688       ??_R4?$_Mpunct@G@std@@6B@  00454688     libcpmtd:wlocale.obj
 0002:000036a0       ??_R2money_base@std@@8     004546a0     libcpmtd:wlocale.obj
 0002:000036b0       ??_R3money_base@std@@8     004546b0     libcpmtd:wlocale.obj
 0002:000036c0       ??_R4money_base@std@@6B@   004546c0     libcpmtd:wlocale.obj
 0002:000036d8       ??_R1A@?0A@A@?$collate@D@std@@8 004546d8     libcpmtd:xlocale.obj
 0002:000036f0       ??_R2?$collate@D@std@@8    004546f0     libcpmtd:xlocale.obj
 0002:00003700       ??_R3?$collate@D@std@@8    00454700     libcpmtd:xlocale.obj
 0002:00003710       ??_R4?$collate@D@std@@6B@  00454710     libcpmtd:xlocale.obj
 0002:00003728       ??_R1A@?0A@A@?$messages@D@std@@8 00454728     libcpmtd:xlocale.obj
 0002:00003740       ??_R2?$messages@D@std@@8   00454740     libcpmtd:xlocale.obj
 0002:00003750       ??_R3?$messages@D@std@@8   00454750     libcpmtd:xlocale.obj
 0002:00003760       ??_R4?$messages@D@std@@6B@ 00454760     libcpmtd:xlocale.obj
 0002:00003778       ??_R1A@?0A@A@?$money_get@DV?$istreambuf_iterator@DU?$char_traits@D@std@@@std@@@std@@8 00454778     libcpmtd:xlocale.obj
 0002:00003790       ??_R2?$money_get@DV?$istreambuf_iterator@DU?$char_traits@D@std@@@std@@@std@@8 00454790     libcpmtd:xlocale.obj
 0002:000037a0       ??_R3?$money_get@DV?$istreambuf_iterator@DU?$char_traits@D@std@@@std@@@std@@8 004547a0     libcpmtd:xlocale.obj
 0002:000037b0       ??_R4?$money_get@DV?$istreambuf_iterator@DU?$char_traits@D@std@@@std@@@std@@6B@ 004547b0     libcpmtd:xlocale.obj
 0002:000037c8       ??_R1A@?0A@A@?$money_put@DV?$ostreambuf_iterator@DU?$char_traits@D@std@@@std@@@std@@8 004547c8     libcpmtd:xlocale.obj
 0002:000037e0       ??_R2?$money_put@DV?$ostreambuf_iterator@DU?$char_traits@D@std@@@std@@@std@@8 004547e0     libcpmtd:xlocale.obj
 0002:000037f0       ??_R3?$money_put@DV?$ostreambuf_iterator@DU?$char_traits@D@std@@@std@@@std@@8 004547f0     libcpmtd:xlocale.obj
 0002:00003800       ??_R4?$money_put@DV?$ostreambuf_iterator@DU?$char_traits@D@std@@@std@@@std@@6B@ 00454800     libcpmtd:xlocale.obj
 0002:00003818       ??_R1A@?0A@A@?$_Mpunct@D@std@@8 00454818     libcpmtd:xlocale.obj
 0002:00003830       ??_R1A@?0A@A@?$moneypunct@D$0A@@std@@8 00454830     libcpmtd:xlocale.obj
 0002:00003848       ??_R2?$moneypunct@D$0A@@std@@8 00454848     libcpmtd:xlocale.obj
 0002:00003860       ??_R3?$moneypunct@D$0A@@std@@8 00454860     libcpmtd:xlocale.obj
 0002:00003870       ??_R4?$moneypunct@D$0A@@std@@6B@ 00454870     libcpmtd:xlocale.obj
 0002:00003888       ??_R1A@?0A@A@?$moneypunct@D$00@std@@8 00454888     libcpmtd:xlocale.obj
 0002:000038a0       ??_R2?$moneypunct@D$00@std@@8 004548a0     libcpmtd:xlocale.obj
 0002:000038b8       ??_R3?$moneypunct@D$00@std@@8 004548b8     libcpmtd:xlocale.obj
 0002:000038c8       ??_R4?$moneypunct@D$00@std@@6B@ 004548c8     libcpmtd:xlocale.obj
 0002:000038e0       ??_R1A@?0A@A@?$time_get@DV?$istreambuf_iterator@DU?$char_traits@D@std@@@std@@@std@@8 004548e0     libcpmtd:xlocale.obj
 0002:000038f8       ??_R2?$time_get@DV?$istreambuf_iterator@DU?$char_traits@D@std@@@std@@@std@@8 004548f8     libcpmtd:xlocale.obj
 0002:00003908       ??_R3?$time_get@DV?$istreambuf_iterator@DU?$char_traits@D@std@@@std@@@std@@8 00454908     libcpmtd:xlocale.obj
 0002:00003918       ??_R4?$time_get@DV?$istreambuf_iterator@DU?$char_traits@D@std@@@std@@@std@@6B@ 00454918     libcpmtd:xlocale.obj
 0002:00003930       ??_R1A@?0A@A@?$time_put@DV?$ostreambuf_iterator@DU?$char_traits@D@std@@@std@@@std@@8 00454930     libcpmtd:xlocale.obj
 0002:00003948       ??_R2?$time_put@DV?$ostreambuf_iterator@DU?$char_traits@D@std@@@std@@@std@@8 00454948     libcpmtd:xlocale.obj
 0002:00003958       ??_R3?$time_put@DV?$ostreambuf_iterator@DU?$char_traits@D@std@@@std@@@std@@8 00454958     libcpmtd:xlocale.obj
 0002:00003968       ??_R4?$time_put@DV?$ostreambuf_iterator@DU?$char_traits@D@std@@@std@@@std@@6B@ 00454968     libcpmtd:xlocale.obj
 0002:00003980       ??_R2?$_Mpunct@D@std@@8    00454980     libcpmtd:xlocale.obj
 0002:00003990       ??_R3?$_Mpunct@D@std@@8    00454990     libcpmtd:xlocale.obj
 0002:000039a0       ??_R4?$_Mpunct@D@std@@6B@  004549a0     libcpmtd:xlocale.obj
 0002:00003f98       __CT??_R0?AVexception@@@8??0exception@@QAE@ABV0@@Z12 00454f98     cInterface.obj
 0002:00003fb8       __CT??_R0?AVbad_cast@std@@@8??0bad_cast@std@@QAE@ABV01@@Z12 00454fb8     cInterface.obj
 0002:00003fd8       __CTA2?AVbad_cast@std@@    00454fd8     cInterface.obj
 0002:00003fe8       __TI2?AVbad_cast@std@@     00454fe8     cInterface.obj
 0002:00004d98       __CT??_R0H@84              00455d98     threadObject.obj
 0002:00004db8       __CTA1H                    00455db8     threadObject.obj
 0002:00004dc0       __TI1H                     00455dc0     threadObject.obj
 0002:000050a8       __CT??_R0?AVlogic_error@std@@@8??0logic_error@std@@QAE@ABV01@@Z28 004560a8     libcpmtd:string.obj
 0002:000050c8       __CT??_R0?AVlength_error@std@@@8??0length_error@std@@QAE@ABV01@@Z28 004560c8     libcpmtd:string.obj
 0002:000050e8       __CTA3?AVlength_error@std@@ 004560e8     libcpmtd:string.obj
 0002:000050f8       __TI3?AVlength_error@std@@ 004560f8     libcpmtd:string.obj
 0002:00005158       __CTA2?AVlogic_error@std@@ 00456158     libcpmtd:string.obj
 0002:00005168       __TI2?AVlogic_error@std@@  00456168     libcpmtd:string.obj
 0002:000051c8       __CT??_R0?AVout_of_range@std@@@8??0out_of_range@std@@QAE@ABV01@@Z28 004561c8     libcpmtd:string.obj
 0002:000051e8       __CTA3?AVout_of_range@std@@ 004561e8     libcpmtd:string.obj
 0002:000051f8       __TI3?AVout_of_range@std@@ 004561f8     libcpmtd:string.obj
 0002:00005358       __CT??_R0?AVruntime_error@std@@@8??0runtime_error@std@@QAE@ABV01@@Z28 00456358     libcpmtd:ios.obj
 0002:00005378       __CT??_R0?AVfailure@ios_base@std@@@8??0failure@ios_base@std@@QAE@ABV012@@Z28 00456378     libcpmtd:ios.obj
 0002:00005398       __CTA3?AVfailure@ios_base@std@@ 00456398     libcpmtd:ios.obj
 0002:000053a8       __TI3?AVfailure@ios_base@std@@ 004563a8     libcpmtd:ios.obj
 0002:00005408       __CTA2?AVruntime_error@std@@ 00456408     libcpmtd:ios.obj
 0002:00005418       __TI2?AVruntime_error@std@@ 00456418     libcpmtd:ios.obj
 0002:00005ce8       __CT??_R0?AVbad_alloc@std@@@8??0bad_alloc@std@@QAE@ABV01@@Z12 00456ce8     libcpmtd:nomemory.obj
 0002:00005d08       __CTA2?AVbad_alloc@std@@   00456d08     libcpmtd:nomemory.obj
 0002:00005d18       __TI2?AVbad_alloc@std@@    00456d18     libcpmtd:nomemory.obj
 0003:00000000       ___xc_a                    00459000     LIBCMTD:crt0init.obj
 0003:000000d8       ___xc_z                    004590d8     LIBCMTD:crt0init.obj
 0003:000000dc       ___xi_a                    004590dc     LIBCMTD:crt0init.obj
 0003:000000f4       ___xi_z                    004590f4     LIBCMTD:crt0init.obj
 0003:000000f8       ___xp_a                    004590f8     LIBCMTD:crt0init.obj
 0003:00000100       ___xp_z                    00459100     LIBCMTD:crt0init.obj
 0003:00000104       ___xt_a                    00459104     LIBCMTD:crt0init.obj
 0003:0000010c       ___xt_z                    0045910c     LIBCMTD:crt0init.obj
 0003:00000110       ?file_names@@3PAHA         00459110     cConvert.obj
 0003:00000134       ?rank_names@@3PAHA         00459134     cConvert.obj
 0003:00000158       ??_R0?AVexception@@@8      00459158     cInterface.obj
 0003:00000170       ??_R0?AVbad_cast@std@@@8   00459170     cInterface.obj
 0003:00000298       ??_R0H@8                   00459298     threadObject.obj
 0003:000002a4       __NLG_Destination          004592a4     LIBCMTD:exsup.obj
 0003:000002c0       __fltused                  004592c0     LIBCMTD:fpinit.obj
 0003:000002c4       __ldused                   004592c4     LIBCMTD:fpinit.obj
 0003:000002c8       __FPinit                   004592c8     LIBCMTD:fpinit.obj
 0003:000002cc       __FPmtinit                 004592cc     LIBCMTD:fpinit.obj
 0003:000002d0       __FPmtterm                 004592d0     LIBCMTD:fpinit.obj
 0003:000002e0       ??_R0?AVtype_info@@@8      004592e0     LIBCMTD:typinfo.obj
 0003:000002f8       ?__pMyUnhandledExceptionFilter@@3PAXA 004592f8     LIBCMTD:throw.obj
 0003:000002fc       __crtDbgFlag               004592fc     LIBCMTD:dbgheap.obj
 0003:00000304       __crtBreakAlloc            00459304     LIBCMTD:dbgheap.obj
 0003:00000320       ___lconv_static_decimal    00459320     LIBCMTD:lconv.obj
 0003:00000328       ___lconv_c                 00459328     LIBCMTD:lconv.obj
 0003:00000358       ___lconv                   00459358     LIBCMTD:lconv.obj
 0003:00000360       __aexit_rtn                00459360     LIBCMTD:crt0.obj
 0003:00000364       ___app_type                00459364     LIBCMTD:crt0.obj
 0003:00000368       __crtAssertBusy            00459368     LIBCMTD:dbgrpt.obj
 0003:0000036c       __CrtDbgMode               0045936c     LIBCMTD:dbgrpt.obj
 0003:00000378       __CrtDbgFile               00459378     LIBCMTD:dbgrpt.obj
 0003:000003a0       ___tlsindex                004593a0     LIBCMTD:tidtable.obj
 0003:000003a4       ?__pInconsistency@@3P6AXXZA 004593a4     LIBCMTD:hooks.obj
 0003:000003a8       __locktable                004593a8     LIBCMTD:mlock.obj
 0003:00000578       ___lc_category             00459578     LIBCMTD:setlocal.obj
 0003:000005c0       __pctype                   004595c0     LIBCMTD:ctype.obj
 0003:000005c4       __pwctype                  004595c4     LIBCMTD:ctype.obj
 0003:000005c8       __ctype                    004595c8     LIBCMTD:ctype.obj
 0003:000007cc       ___mb_cur_max              004597cc     LIBCMTD:nlsdata1.obj
 0003:000007d0       ___decimal_point           004597d0     LIBCMTD:nlsdata1.obj
 0003:000007d4       ___decimal_point_length    004597d4     LIBCMTD:nlsdata1.obj
 0003:000007e0       __cfltcvt_tab              004597e0     LIBCMTD:cmiscdat.obj
 0003:00000800       __pfnAllocHook             00459800     LIBCMTD:dbghook.obj
 0003:00000804       __amblksiz                 00459804     LIBCMTD:heapinit.obj
 0003:00000808       ___sbh_threshold           00459808     LIBCMTD:sbheap.obj
 0003:0000080c       ___nullstring              0045980c     LIBCMTD:output.obj
 0003:00000810       ___wnullstring             00459810     LIBCMTD:output.obj
 0003:00000980       __XcptActTab               00459980     LIBCMTD:winxfltr.obj
 0003:000009f8       __First_FPE_Indx           004599f8     LIBCMTD:winxfltr.obj
 0003:000009fc       __Num_FPE                  004599fc     LIBCMTD:winxfltr.obj
 0003:00000a00       __XcptActTabSize           00459a00     LIBCMTD:winxfltr.obj
 0003:00000a04       __XcptActTabCount          00459a04     LIBCMTD:winxfltr.obj
 0003:00000a08       ___badioinfo               00459a08     LIBCMTD:ioinit.obj
 0003:00000ac0       ___rgLocInfo               00459ac0     LIBCMTD:getqloc.obj
 0003:00000f64       ___rglangidNotDefault      00459f64     LIBCMTD:getqloc.obj
 0003:00000f78       ___rg_country              00459f78     LIBCMTD:getqloc.obj
 0003:00001030       ___rg_language             0045a030     LIBCMTD:getqloc.obj
 0003:00001268       __iob                      0045a268     LIBCMTD:_file.obj
 0003:000015e8       ___lc_time_curr            0045a5e8     LIBCMTD:strftime.obj
 0003:000015f0       ___lc_time_c               0045a5f0     LIBCMTD:strftime.obj
 0003:000016a0       __timezone                 0045a6a0     LIBCMTD:timeset.obj
 0003:000016a4       __daylight                 0045a6a4     LIBCMTD:timeset.obj
 0003:000016a8       __dstbias                  0045a6a8     LIBCMTD:timeset.obj
 0003:0000172c       __tzname                   0045a72c     LIBCMTD:timeset.obj
 0003:00001760       __lpdays                   0045a760     LIBCMTD:days.obj
 0003:00001794       __days                     0045a794     LIBCMTD:days.obj
 0003:000017c8       __pow10pos                 0045a7c8     LIBCMTD:constpow.obj
 0003:00001928       __pow10neg                 0045a928     LIBCMTD:constpow.obj
 0003:00001a90       ?_Init_cnt@Init@ios_base@std@@0HA 0045aa90     libcpmtd:iostream.obj
 0003:00001a98       ??_R0?AVios_base@std@@@8   0045aa98     libcpmtd:iostream.obj
 0003:00001ab8       ??_R0?AV?$basic_ios@DU?$char_traits@D@std@@@std@@@8 0045aab8     libcpmtd:iostream.obj
 0003:00001af0       ??_R0?AV?$basic_ostream@DU?$char_traits@D@std@@@std@@@8 0045aaf0     libcpmtd:iostream.obj
 0003:00001b30       ??_R0?AV?$basic_istream@DU?$char_traits@D@std@@@std@@@8 0045ab30     libcpmtd:iostream.obj
 0003:00001b70       ??_R0?AV?$basic_streambuf@DU?$char_traits@D@std@@@std@@@8 0045ab70     libcpmtd:iostream.obj
 0003:00001bb0       ??_R0?AV?$basic_filebuf@DU?$char_traits@D@std@@@std@@@8 0045abb0     libcpmtd:iostream.obj
 0003:00001bec       ?_Init_cnt@_Winit@std@@0HA 0045abec     libcpmtd:wiostrea.obj
 0003:00001bf0       ??_R0?AV?$basic_ios@GU?$char_traits@G@std@@@std@@@8 0045abf0     libcpmtd:wiostrea.obj
 0003:00001c28       ??_R0?AV?$basic_ostream@GU?$char_traits@G@std@@@std@@@8 0045ac28     libcpmtd:wiostrea.obj
 0003:00001c68       ??_R0?AV?$basic_istream@GU?$char_traits@G@std@@@std@@@8 0045ac68     libcpmtd:wiostrea.obj
 0003:00001ca8       ??_R0?AV?$basic_streambuf@GU?$char_traits@G@std@@@std@@@8 0045aca8     libcpmtd:wiostrea.obj
 0003:00001ce8       ??_R0?AV?$basic_filebuf@GU?$char_traits@G@std@@@std@@@8 0045ace8     libcpmtd:wiostrea.obj
 0003:00001d28       ??_R0?AVlogic_error@std@@@8 0045ad28     libcpmtd:string.obj
 0003:00001d48       ??_R0?AVlength_error@std@@@8 0045ad48     libcpmtd:string.obj
 0003:00001d68       ??_R0?AVout_of_range@std@@@8 0045ad68     libcpmtd:string.obj
 0003:00001d88       ??_R0?AVistrstream@std@@@8 0045ad88     libcpmtd:strstrea.obj
 0003:00001da8       ??_R0?AVostrstream@std@@@8 0045ada8     libcpmtd:strstrea.obj
 0003:00001dc8       ??_R0?AVstrstreambuf@std@@@8 0045adc8     libcpmtd:strstrea.obj
 0003:00001de8       ??_R0?AV?$basic_iostream@DU?$char_traits@D@std@@@std@@@8 0045ade8     libcpmtd:strstrea.obj
 0003:00001e28       ??_R0?AVstrstream@std@@@8  0045ae28     libcpmtd:strstrea.obj
 0003:00001e44       ?_Sync@ios_base@std@@0_NA  0045ae44     libcpmtd:ios.obj
 0003:00001e48       ??_R0?AVruntime_error@std@@@8 0045ae48     libcpmtd:ios.obj
 0003:00001e68       ??_R0?AVfailure@ios_base@std@@@8 0045ae68     libcpmtd:ios.obj
 0003:00001e90       ??_R0?AVfacet@locale@std@@@8 0045ae90     libcpmtd:locale0.obj
 0003:00001eb0       ??_R0?AV_Locimp@locale@std@@@8 0045aeb0     libcpmtd:locale0.obj
 0003:00001ed8       ??_R0?AUctype_base@std@@@8 0045aed8     libcpmtd:locale.obj
 0003:00001ef8       ??_R0?AV?$ctype@D@std@@@8  0045aef8     libcpmtd:locale.obj
 0003:00001f18       ??_R0?AVcodecvt_base@std@@@8 0045af18     libcpmtd:locale.obj
 0003:00001f38       ??_R0?AV?$codecvt@DDH@std@@@8 0045af38     libcpmtd:locale.obj
 0003:00001f58       ??_R0?AV?$num_get@DV?$istreambuf_iterator@DU?$char_traits@D@std@@@std@@@std@@@8 0045af58     libcpmtd:locale.obj
 0003:00001fb0       ??_R0?AV?$num_put@DV?$ostreambuf_iterator@DU?$char_traits@D@std@@@std@@@std@@@8 0045afb0     libcpmtd:locale.obj
 0003:00002008       ??_R0?AV?$numpunct@D@std@@@8 0045b008     libcpmtd:locale.obj
 0003:00002028       ??_R0?AVbad_alloc@std@@@8  0045b028     libcpmtd:nomemory.obj
 0003:00002048       ??_R0?AV?$codecvt@GDH@std@@@8 0045b048     libcpmtd:wlocale.obj
 0003:00002068       ??_R0?AV?$ctype@G@std@@@8  0045b068     libcpmtd:wlocale.obj
 0003:00002088       ??_R0?AUtime_base@std@@@8  0045b088     libcpmtd:wlocale.obj
 0003:000020a8       ??_R0?AV?$time_put@GV?$ostreambuf_iterator@GU?$char_traits@G@std@@@std@@@std@@@8 0045b0a8     libcpmtd:wlocale.obj
 0003:00002100       ??_R0?AV?$num_get@GV?$istreambuf_iterator@GU?$char_traits@G@std@@@std@@@std@@@8 0045b100     libcpmtd:wlocale.obj
 0003:00002158       ??_R0?AV?$num_put@GV?$ostreambuf_iterator@GU?$char_traits@G@std@@@std@@@std@@@8 0045b158     libcpmtd:wlocale.obj
 0003:000021b0       ??_R0?AV?$numpunct@G@std@@@8 0045b1b0     libcpmtd:wlocale.obj
 0003:000021d0       ??_R0?AV?$collate@G@std@@@8 0045b1d0     libcpmtd:wlocale.obj
 0003:000021f0       ??_R0?AUmessages_base@std@@@8 0045b1f0     libcpmtd:wlocale.obj
 0003:00002210       ??_R0?AV?$messages@G@std@@@8 0045b210     libcpmtd:wlocale.obj
 0003:00002230       ??_R0?AV?$money_get@GV?$istreambuf_iterator@GU?$char_traits@G@std@@@std@@@std@@@8 0045b230     libcpmtd:wlocale.obj
 0003:00002288       ??_R0?AV?$money_put@GV?$ostreambuf_iterator@GU?$char_traits@G@std@@@std@@@std@@@8 0045b288     libcpmtd:wlocale.obj
 0003:000022e0       ??_R0?AUmoney_base@std@@@8 0045b2e0     libcpmtd:wlocale.obj
 0003:00002300       ??_R0?AV?$_Mpunct@G@std@@@8 0045b300     libcpmtd:wlocale.obj
 0003:00002320       ??_R0?AV?$moneypunct@G$0A@@std@@@8 0045b320     libcpmtd:wlocale.obj
 0003:00002348       ??_R0?AV?$moneypunct@G$00@std@@@8 0045b348     libcpmtd:wlocale.obj
 0003:00002370       ??_R0?AV?$time_get@GV?$istreambuf_iterator@GU?$char_traits@G@std@@@std@@@std@@@8 0045b370     libcpmtd:wlocale.obj
 0003:000023c8       ??_R0?AV?$collate@D@std@@@8 0045b3c8     libcpmtd:xlocale.obj
 0003:000023e8       ??_R0?AV?$messages@D@std@@@8 0045b3e8     libcpmtd:xlocale.obj
 0003:00002408       ??_R0?AV?$money_get@DV?$istreambuf_iterator@DU?$char_traits@D@std@@@std@@@std@@@8 0045b408     libcpmtd:xlocale.obj
 0003:00002460       ??_R0?AV?$money_put@DV?$ostreambuf_iterator@DU?$char_traits@D@std@@@std@@@std@@@8 0045b460     libcpmtd:xlocale.obj
 0003:000024b8       ??_R0?AV?$_Mpunct@D@std@@@8 0045b4b8     libcpmtd:xlocale.obj
 0003:000024d8       ??_R0?AV?$moneypunct@D$0A@@std@@@8 0045b4d8     libcpmtd:xlocale.obj
 0003:00002500       ??_R0?AV?$moneypunct@D$00@std@@@8 0045b500     libcpmtd:xlocale.obj
 0003:00002528       ??_R0?AV?$time_get@DV?$istreambuf_iterator@DU?$char_traits@D@std@@@std@@@std@@@8 0045b528     libcpmtd:xlocale.obj
 0003:00002580       ??_R0?AV?$time_put@DV?$ostreambuf_iterator@DU?$char_traits@D@std@@@std@@@std@@@8 0045b580     libcpmtd:xlocale.obj
 0003:000025d4       __HUGE                     0045b5d4     LIBCMTD:huge.obj
 0003:000025e0       ?knightMoves@@3PAY07VcBitArray@@A 0045b5e0     board_data.obj
 0003:000027e0       ?valid_board@@3VcBitArray@@A 0045b7e0     board_data.obj
 0003:00002810       ?_Psave@?1??use_facet@std@@YAABV?$ctype@D@2@ABVlocale@2@PBV32@_N@Z@4PBVfacet@42@B 0045b810     cInterface.obj
 0003:00002814       ?_Psave@?1??use_facet@std@@YAABV?$num_put@DV?$ostreambuf_iterator@DU?$char_traits@D@std@@@std@@@2@ABVlocale@2@PBV32@_N@Z@4PBVfacet@42@B 0045b814     cInterface.obj
 0003:00002818       ?_Psave@?1??use_facet@std@@YAABV?$numpunct@D@2@ABVlocale@2@PBV32@_N@Z@4PBVfacet@42@B 0045b818     cInterface.obj
 0003:0000281c       ?_Facsav@?$_Tidyfac@V?$ctype@D@std@@@std@@0PAV?$ctype@D@2@A 0045b81c     cInterface.obj
 0003:00002820       ?_Facsav@?$_Tidyfac@V?$num_put@DV?$ostreambuf_iterator@DU?$char_traits@D@std@@@std@@@std@@@std@@0PAV?$num_put@DV?$ostreambuf_iterator@DU?$char_traits@D@std@@@std@@@2@A 0045b820     cInterface.obj
 0003:00002824       ?_Facsav@?$_Tidyfac@V?$numpunct@D@std@@@std@@0PAV?$numpunct@D@2@A 0045b824     cInterface.obj
 0003:00002828       ?_Nil@?$_Tree@V?$basic_string@DU?$char_traits@D@std@@V?$allocator@D@2@@std@@U?$pair@$$CBV?$basic_string@DU?$char_traits@D@std@@V?$allocator@D@2@@std@@H@2@U_Kfn@?$map@V?$basic_string@DU?$char_traits@D@std@@V?$allocator@D@2@@std@@HU?$less@V?$basic_string@DU?$char_traits@D@std@@V?$allocator@D@2@@std@@@2@V?$allocator@H@2@@2@U?$less@V?$basic_string@DU?$char_traits@D@std@@V?$allocator@D@2@@std@@@2@V?$allocator@H@2@@std@@1PAU_Node@12@A 0045b828     cPARSE.obj
 0003:0000282c       ?_Nilrefs@?$_Tree@V?$basic_string@DU?$char_traits@D@std@@V?$allocator@D@2@@std@@U?$pair@$$CBV?$basic_string@DU?$char_traits@D@std@@V?$allocator@D@2@@std@@H@2@U_Kfn@?$map@V?$basic_string@DU?$char_traits@D@std@@V?$allocator@D@2@@std@@HU?$less@V?$basic_string@DU?$char_traits@D@std@@V?$allocator@D@2@@std@@@2@V?$allocator@H@2@@2@U?$less@V?$basic_string@DU?$char_traits@D@std@@V?$allocator@D@2@@std@@@2@V?$allocator@H@2@@std@@1IA 0045b82c     cPARSE.obj
 0003:00002834       ?_Nil@?$_Tree@V?$basic_string@DU?$char_traits@D@std@@V?$allocator@D@2@@std@@U?$pair@$$CBV?$basic_string@DU?$char_traits@D@std@@V?$allocator@D@2@@std@@W4SQUARE_NAMES@@@2@U_Kfn@?$map@V?$basic_string@DU?$char_traits@D@std@@V?$allocator@D@2@@std@@W4SQUARE_NAMES@@U?$less@V?$basic_string@DU?$char_traits@D@std@@V?$allocator@D@2@@std@@@2@V?$allocator@W4SQUARE_NAMES@@@2@@2@U?$less@V?$basic_string@DU?$char_traits@D@std@@V?$allocator@D@2@@std@@@2@V?$allocator@W4SQUARE_NAMES@@@2@@std@@1PAU_Node@12@A 0045b834     cSquares.obj
 0003:00002838       ?_Nilrefs@?$_Tree@V?$basic_string@DU?$char_traits@D@std@@V?$allocator@D@2@@std@@U?$pair@$$CBV?$basic_string@DU?$char_traits@D@std@@V?$allocator@D@2@@std@@W4SQUARE_NAMES@@@2@U_Kfn@?$map@V?$basic_string@DU?$char_traits@D@std@@V?$allocator@D@2@@std@@W4SQUARE_NAMES@@U?$less@V?$basic_string@DU?$char_traits@D@std@@V?$allocator@D@2@@std@@@2@V?$allocator@W4SQUARE_NAMES@@@2@@2@U?$less@V?$basic_string@DU?$char_traits@D@std@@V?$allocator@D@2@@std@@@2@V?$allocator@W4SQUARE_NAMES@@@2@@std@@1IA 0045b838     cSquares.obj
 0003:00002850       ___fastflag                0045b850     LIBCMTD:fpinit.obj
 0003:00002854       __adjust_fdiv              0045b854     LIBCMTD:fpinit.obj
 0003:0000286c       ___lconv_static_null       0045b86c     LIBCMTD:lconv.obj
 0003:00002870       __aenvptr                  0045b870     LIBCMTD:crt0.obj
 0003:00002874       __wenvptr                  0045b874     LIBCMTD:crt0.obj
 0003:00002878       ___error_mode              0045b878     LIBCMTD:crt0.obj
 0003:00002880       __umaskval                 0045b880     LIBCMTD:crt0dat.obj
 0003:00002884       __osver                    0045b884     LIBCMTD:crt0dat.obj
 0003:00002888       __winver                   0045b888     LIBCMTD:crt0dat.obj
 0003:0000288c       __winmajor                 0045b88c     LIBCMTD:crt0dat.obj
 0003:00002890       __winminor                 0045b890     LIBCMTD:crt0dat.obj
 0003:00002894       ___argc                    0045b894     LIBCMTD:crt0dat.obj
 0003:00002898       ___argv                    0045b898     LIBCMTD:crt0dat.obj
 0003:0000289c       ___wargv                   0045b89c     LIBCMTD:crt0dat.obj
 0003:000028a0       __environ                  0045b8a0     LIBCMTD:crt0dat.obj
 0003:000028a4       ___initenv                 0045b8a4     LIBCMTD:crt0dat.obj
 0003:000028a8       __wenviron                 0045b8a8     LIBCMTD:crt0dat.obj
 0003:000028ac       ___winitenv                0045b8ac     LIBCMTD:crt0dat.obj
 0003:000028b0       __pgmptr                   0045b8b0     LIBCMTD:crt0dat.obj
 0003:000028b4       __wpgmptr                  0045b8b4     LIBCMTD:crt0dat.obj
 0003:000028b8       __exitflag                 0045b8b8     LIBCMTD:crt0dat.obj
 0003:000028bc       __C_Termination_Done       0045b8bc     LIBCMTD:crt0dat.obj
 0003:000028c0       __C_Exit_Done              0045b8c0     LIBCMTD:crt0dat.obj
 0003:00002934       ___lc_handle               0045b934     LIBCMTD:nlsdata2.obj
 0003:0000294c       ___lc_codepage             0045b94c     LIBCMTD:nlsdata2.obj
 0003:00002950       ___lc_collate_cp           0045b950     LIBCMTD:nlsdata2.obj
 0003:0000295c       __newmode                  0045b95c     LIBCMTD:_newmode.obj
 0003:00002960       ?_pnhHeap@@3P6AHI@ZA       0045b960     LIBCMTD:handler.obj
 0003:00002a6c       __adbgmsg                  0045ba6c     LIBCMTD:crt0msg.obj
 0003:00002a90       ___lc_time_intl            0045ba90     LIBCMTD:inittime.obj
 0003:00002aac       ___lc_id                   0045baac     LIBCMTD:nlsdata3.obj
 0003:00002af8       __cflush                   0045baf8     LIBCMTD:_file.obj
 0003:00002bd8       ?clog@std@@3V?$basic_ostream@DU?$char_traits@D@std@@@1@A 0045bbd8     libcpmtd:iostream.obj
 0003:00002c68       ?cout@std@@3V?$basic_ostream@DU?$char_traits@D@std@@@1@A 0045bc68     libcpmtd:iostream.obj
 0003:00002cf8       ?cin@std@@3V?$basic_istream@DU?$char_traits@D@std@@@1@A 0045bcf8     libcpmtd:iostream.obj
 0003:00002d90       ?cerr@std@@3V?$basic_ostream@DU?$char_traits@D@std@@@1@A 0045bd90     libcpmtd:iostream.obj
 0003:00002dc8       ?wcerr@std@@3V?$basic_ostream@GU?$char_traits@G@std@@@1@A 0045bdc8     libcpmtd:wiostrea.obj
 0003:00002e08       ?wclog@std@@3V?$basic_ostream@GU?$char_traits@G@std@@@1@A 0045be08     libcpmtd:wiostrea.obj
 0003:00002e40       ?wcin@std@@3V?$basic_istream@GU?$char_traits@G@std@@@1@A 0045be40     libcpmtd:wiostrea.obj
 0003:00002f30       ?wcout@std@@3V?$basic_ostream@GU?$char_traits@G@std@@@1@A 0045bf30     libcpmtd:wiostrea.obj
 0003:00002fdc       ?_Index@ios_base@std@@0HA  0045bfdc     libcpmtd:ios.obj
 0003:00003014       ?_Clocptr@_Locimp@locale@std@@0PAV123@A 0045c014     libcpmtd:locale0.obj
 0003:00003018       ?_Global@_Locimp@locale@std@@0PAV123@A 0045c018     libcpmtd:locale0.obj
 0003:0000301c       ?_Id_cnt@id@locale@std@@0HA 0045c01c     libcpmtd:locale0.obj
 0003:00003020       ?_Cltab@?$ctype@D@std@@0PBFB 0045c020     libcpmtd:locale0.obj
 0003:00003024       ?id@?$codecvt@DDH@std@@2V0locale@2@A 0045c024     libcpmtd:locale.obj
 0003:00003028       ?id@?$num_get@DV?$istreambuf_iterator@DU?$char_traits@D@std@@@std@@@std@@2V0locale@2@A 0045c028     libcpmtd:locale.obj
 0003:0000302c       ?id@?$ctype@D@std@@2V0locale@2@A 0045c02c     libcpmtd:locale.obj
 0003:00003030       ?id@?$numpunct@D@std@@2V0locale@2@A 0045c030     libcpmtd:locale.obj
 0003:00003034       ?id@?$num_put@DV?$ostreambuf_iterator@DU?$char_traits@D@std@@@std@@@std@@2V0locale@2@A 0045c034     libcpmtd:locale.obj
 0003:00003038       ?_Psave@?1??use_facet@std@@YAABV?$num_get@DV?$istreambuf_iterator@DU?$char_traits@D@std@@@std@@@2@ABVlocale@2@PBV32@_N@Z@4PBVfacet@42@B 0045c038     libcpmtd:locale.obj
 0003:0000303c       ?_Psave@?1??use_facet@std@@YAABV?$codecvt@DDH@2@ABVlocale@2@PBV32@_N@Z@4PBVfacet@42@B 0045c03c     libcpmtd:locale.obj
 0003:00003040       ?_Facsav@?$_Tidyfac@V?$num_get@DV?$istreambuf_iterator@DU?$char_traits@D@std@@@std@@@std@@@std@@0PAV?$num_get@DV?$istreambuf_iterator@DU?$char_traits@D@std@@@std@@@2@A 0045c040     libcpmtd:locale.obj
 0003:00003044       ?_Facsav@?$_Tidyfac@V?$codecvt@DDH@std@@@std@@0PAV?$codecvt@DDH@2@A 0045c044     libcpmtd:locale.obj
 0003:0000306c       ?id@?$numpunct@G@std@@2V0locale@2@A 0045c06c     libcpmtd:wlocale.obj
 0003:00003070       ?id@?$money_get@GV?$istreambuf_iterator@GU?$char_traits@G@std@@@std@@@std@@2V0locale@2@A 0045c070     libcpmtd:wlocale.obj
 0003:00003074       ?id@?$messages@G@std@@2V0locale@2@A 0045c074     libcpmtd:wlocale.obj
 0003:00003078       ?id@?$moneypunct@G$00@std@@2V0locale@2@A 0045c078     libcpmtd:wlocale.obj
 0003:0000307c       ?id@?$num_put@GV?$ostreambuf_iterator@GU?$char_traits@G@std@@@std@@@std@@2V0locale@2@A 0045c07c     libcpmtd:wlocale.obj
 0003:00003080       ?id@?$collate@G@std@@2V0locale@2@A 0045c080     libcpmtd:wlocale.obj
 0003:00003084       ?id@?$time_get@GV?$istreambuf_iterator@GU?$char_traits@G@std@@@std@@@std@@2V0locale@2@A 0045c084     libcpmtd:wlocale.obj
 0003:00003088       ?id@?$ctype@G@std@@2V0locale@2@A 0045c088     libcpmtd:wlocale.obj
 0003:0000308c       ?id@?$num_get@GV?$istreambuf_iterator@GU?$char_traits@G@std@@@std@@@std@@2V0locale@2@A 0045c08c     libcpmtd:wlocale.obj
 0003:00003090       ?id@?$codecvt@GDH@std@@2V0locale@2@A 0045c090     libcpmtd:wlocale.obj
 0003:00003094       ?id@?$time_put@GV?$ostreambuf_iterator@GU?$char_traits@G@std@@@std@@@std@@2V0locale@2@A 0045c094     libcpmtd:wlocale.obj
 0003:00003098       ?id@?$moneypunct@G$0A@@std@@2V0locale@2@A 0045c098     libcpmtd:wlocale.obj
 0003:0000309c       ?id@?$money_put@GV?$ostreambuf_iterator@GU?$char_traits@G@std@@@std@@@std@@2V0locale@2@A 0045c09c     libcpmtd:wlocale.obj
 0003:000030a0       ?_Psave@?1??use_facet@std@@YAABV?$ctype@G@2@ABVlocale@2@PBV32@_N@Z@4PBVfacet@42@B 0045c0a0     libcpmtd:wlocale.obj
 0003:000030a4       ?_Psave@?1??use_facet@std@@YAABV?$num_get@GV?$istreambuf_iterator@GU?$char_traits@G@std@@@std@@@2@ABVlocale@2@PBV32@_N@Z@4PBVfacet@42@B 0045c0a4     libcpmtd:wlocale.obj
 0003:000030a8       ?_Psave@?1??use_facet@std@@YAABV?$num_put@GV?$ostreambuf_iterator@GU?$char_traits@G@std@@@std@@@2@ABVlocale@2@PBV32@_N@Z@4PBVfacet@42@B 0045c0a8     libcpmtd:wlocale.obj
 0003:000030ac       ?_Psave@?1??use_facet@std@@YAABV?$numpunct@G@2@ABVlocale@2@PBV32@_N@Z@4PBVfacet@42@B 0045c0ac     libcpmtd:wlocale.obj
 0003:000030b0       ?_Psave@?1??use_facet@std@@YAABV?$collate@G@2@ABVlocale@2@PBV32@_N@Z@4PBVfacet@42@B 0045c0b0     libcpmtd:wlocale.obj
 0003:000030b4       ?_Psave@?1??use_facet@std@@YAABV?$messages@G@2@ABVlocale@2@PBV32@_N@Z@4PBVfacet@42@B 0045c0b4     libcpmtd:wlocale.obj
 0003:000030b8       ?_Psave@?1??use_facet@std@@YAABV?$money_get@GV?$istreambuf_iterator@GU?$char_traits@G@std@@@std@@@2@ABVlocale@2@PBV32@_N@Z@4PBVfacet@42@B 0045c0b8     libcpmtd:wlocale.obj
 0003:000030bc       ?_Psave@?1??use_facet@std@@YAABV?$money_put@GV?$ostreambuf_iterator@GU?$char_traits@G@std@@@std@@@2@ABVlocale@2@PBV32@_N@Z@4PBVfacet@42@B 0045c0bc     libcpmtd:wlocale.obj
 0003:000030c0       ?_Psave@?1??use_facet@std@@YAABV?$moneypunct@G$0A@@2@ABVlocale@2@PBV32@_N@Z@4PBVfacet@42@B 0045c0c0     libcpmtd:wlocale.obj
 0003:000030c4       ?_Psave@?1??use_facet@std@@YAABV?$moneypunct@G$00@2@ABVlocale@2@PBV32@_N@Z@4PBVfacet@42@B 0045c0c4     libcpmtd:wlocale.obj
 0003:000030c8       ?_Psave@?1??use_facet@std@@YAABV?$time_get@GV?$istreambuf_iterator@GU?$char_traits@G@std@@@std@@@2@ABVlocale@2@PBV32@_N@Z@4PBVfacet@42@B 0045c0c8     libcpmtd:wlocale.obj
 0003:000030cc       ?_Psave@?1??use_facet@std@@YAABV?$time_put@GV?$ostreambuf_iterator@GU?$char_traits@G@std@@@std@@@2@ABVlocale@2@PBV32@_N@Z@4PBVfacet@42@B 0045c0cc     libcpmtd:wlocale.obj
 0003:000030d0       ?_Psave@?1??use_facet@std@@YAABV?$codecvt@GDH@2@ABVlocale@2@PBV32@_N@Z@4PBVfacet@42@B 0045c0d0     libcpmtd:wlocale.obj
 0003:000030d4       ?_Facsav@?$_Tidyfac@V?$ctype@G@std@@@std@@0PAV?$ctype@G@2@A 0045c0d4     libcpmtd:wlocale.obj
 0003:000030d8       ?_Facsav@?$_Tidyfac@V?$num_get@GV?$istreambuf_iterator@GU?$char_traits@G@std@@@std@@@std@@@std@@0PAV?$num_get@GV?$istreambuf_iterator@GU?$char_traits@G@std@@@std@@@2@A 0045c0d8     libcpmtd:wlocale.obj
 0003:000030dc       ?_Facsav@?$_Tidyfac@V?$num_put@GV?$ostreambuf_iterator@GU?$char_traits@G@std@@@std@@@std@@@std@@0PAV?$num_put@GV?$ostreambuf_iterator@GU?$char_traits@G@std@@@std@@@2@A 0045c0dc     libcpmtd:wlocale.obj
 0003:000030e0       ?_Facsav@?$_Tidyfac@V?$numpunct@G@std@@@std@@0PAV?$numpunct@G@2@A 0045c0e0     libcpmtd:wlocale.obj
 0003:000030e4       ?_Facsav@?$_Tidyfac@V?$collate@G@std@@@std@@0PAV?$collate@G@2@A 0045c0e4     libcpmtd:wlocale.obj
 0003:000030e8       ?_Facsav@?$_Tidyfac@V?$messages@G@std@@@std@@0PAV?$messages@G@2@A 0045c0e8     libcpmtd:wlocale.obj
 0003:000030ec       ?_Facsav@?$_Tidyfac@V?$money_get@GV?$istreambuf_iterator@GU?$char_traits@G@std@@@std@@@std@@@std@@0PAV?$money_get@GV?$istreambuf_iterator@GU?$char_traits@G@std@@@std@@@2@A 0045c0ec     libcpmtd:wlocale.obj
 0003:000030f0       ?_Facsav@?$_Tidyfac@V?$money_put@GV?$ostreambuf_iterator@GU?$char_traits@G@std@@@std@@@std@@@std@@0PAV?$money_put@GV?$ostreambuf_iterator@GU?$char_traits@G@std@@@std@@@2@A 0045c0f0     libcpmtd:wlocale.obj
 0003:000030f4       ?_Facsav@?$_Tidyfac@V?$moneypunct@G$0A@@std@@@std@@0PAV?$moneypunct@G$0A@@2@A 0045c0f4     libcpmtd:wlocale.obj
 0003:000030f8       ?_Facsav@?$_Tidyfac@V?$moneypunct@G$00@std@@@std@@0PAV?$moneypunct@G$00@2@A 0045c0f8     libcpmtd:wlocale.obj
 0003:000030fc       ?_Facsav@?$_Tidyfac@V?$time_get@GV?$istreambuf_iterator@GU?$char_traits@G@std@@@std@@@std@@@std@@0PAV?$time_get@GV?$istreambuf_iterator@GU?$char_traits@G@std@@@std@@@2@A 0045c0fc     libcpmtd:wlocale.obj
 0003:00003100       ?_Facsav@?$_Tidyfac@V?$time_put@GV?$ostreambuf_iterator@GU?$char_traits@G@std@@@std@@@std@@@std@@0PAV?$time_put@GV?$ostreambuf_iterator@GU?$char_traits@G@std@@@std@@@2@A 0045c100     libcpmtd:wlocale.obj
 0003:00003104       ?_Facsav@?$_Tidyfac@V?$codecvt@GDH@std@@@std@@0PAV?$codecvt@GDH@2@A 0045c104     libcpmtd:wlocale.obj
 0003:00003108       ?id@?$money_put@DV?$ostreambuf_iterator@DU?$char_traits@D@std@@@std@@@std@@2V0locale@2@A 0045c108     libcpmtd:xlocale.obj
 0003:0000310c       ?id@?$moneypunct@D$00@std@@2V0locale@2@A 0045c10c     libcpmtd:xlocale.obj
 0003:00003110       ?id@?$time_get@DV?$istreambuf_iterator@DU?$char_traits@D@std@@@std@@@std@@2V0locale@2@A 0045c110     libcpmtd:xlocale.obj
 0003:00003114       ?id@?$time_put@DV?$ostreambuf_iterator@DU?$char_traits@D@std@@@std@@@std@@2V0locale@2@A 0045c114     libcpmtd:xlocale.obj
 0003:00003118       ?id@?$messages@D@std@@2V0locale@2@A 0045c118     libcpmtd:xlocale.obj
 0003:0000311c       ?id@?$moneypunct@D$0A@@std@@2V0locale@2@A 0045c11c     libcpmtd:xlocale.obj
 0003:00003120       ?id@?$money_get@DV?$istreambuf_iterator@DU?$char_traits@D@std@@@std@@@std@@2V0locale@2@A 0045c120     libcpmtd:xlocale.obj
 0003:00003124       ?id@?$collate@D@std@@2V0locale@2@A 0045c124     libcpmtd:xlocale.obj
 0003:00003128       ?_Psave@?1??use_facet@std@@YAABV?$collate@D@2@ABVlocale@2@PBV32@_N@Z@4PBVfacet@42@B 0045c128     libcpmtd:xlocale.obj
 0003:0000312c       ?_Psave@?1??use_facet@std@@YAABV?$messages@D@2@ABVlocale@2@PBV32@_N@Z@4PBVfacet@42@B 0045c12c     libcpmtd:xlocale.obj
 0003:00003130       ?_Psave@?1??use_facet@std@@YAABV?$money_get@DV?$istreambuf_iterator@DU?$char_traits@D@std@@@std@@@2@ABVlocale@2@PBV32@_N@Z@4PBVfacet@42@B 0045c130     libcpmtd:xlocale.obj
 0003:00003134       ?_Psave@?1??use_facet@std@@YAABV?$money_put@DV?$ostreambuf_iterator@DU?$char_traits@D@std@@@std@@@2@ABVlocale@2@PBV32@_N@Z@4PBVfacet@42@B 0045c134     libcpmtd:xlocale.obj
 0003:00003138       ?_Psave@?1??use_facet@std@@YAABV?$moneypunct@D$0A@@2@ABVlocale@2@PBV32@_N@Z@4PBVfacet@42@B 0045c138     libcpmtd:xlocale.obj
 0003:0000313c       ?_Psave@?1??use_facet@std@@YAABV?$moneypunct@D$00@2@ABVlocale@2@PBV32@_N@Z@4PBVfacet@42@B 0045c13c     libcpmtd:xlocale.obj
 0003:00003140       ?_Psave@?1??use_facet@std@@YAABV?$time_get@DV?$istreambuf_iterator@DU?$char_traits@D@std@@@std@@@2@ABVlocale@2@PBV32@_N@Z@4PBVfacet@42@B 0045c140     libcpmtd:xlocale.obj
 0003:00003144       ?_Psave@?1??use_facet@std@@YAABV?$time_put@DV?$ostreambuf_iterator@DU?$char_traits@D@std@@@std@@@2@ABVlocale@2@PBV32@_N@Z@4PBVfacet@42@B 0045c144     libcpmtd:xlocale.obj
 0003:00003148       ?_Facsav@?$_Tidyfac@V?$collate@D@std@@@std@@0PAV?$collate@D@2@A 0045c148     libcpmtd:xlocale.obj
 0003:0000314c       ?_Facsav@?$_Tidyfac@V?$messages@D@std@@@std@@0PAV?$messages@D@2@A 0045c14c     libcpmtd:xlocale.obj
 0003:00003150       ?_Facsav@?$_Tidyfac@V?$money_get@DV?$istreambuf_iterator@DU?$char_traits@D@std@@@std@@@std@@@std@@0PAV?$money_get@DV?$istreambuf_iterator@DU?$char_traits@D@std@@@std@@@2@A 0045c150     libcpmtd:xlocale.obj
 0003:00003154       ?_Facsav@?$_Tidyfac@V?$money_put@DV?$ostreambuf_iterator@DU?$char_traits@D@std@@@std@@@std@@@std@@0PAV?$money_put@DV?$ostreambuf_iterator@DU?$char_traits@D@std@@@std@@@2@A 0045c154     libcpmtd:xlocale.obj
 0003:00003158       ?_Facsav@?$_Tidyfac@V?$moneypunct@D$0A@@std@@@std@@0PAV?$moneypunct@D$0A@@2@A 0045c158     libcpmtd:xlocale.obj
 0003:0000315c       ?_Facsav@?$_Tidyfac@V?$moneypunct@D$00@std@@@std@@0PAV?$moneypunct@D$00@2@A 0045c15c     libcpmtd:xlocale.obj
 0003:00003160       ?_Facsav@?$_Tidyfac@V?$time_get@DV?$istreambuf_iterator@DU?$char_traits@D@std@@@std@@@std@@@std@@0PAV?$time_get@DV?$istreambuf_iterator@DU?$char_traits@D@std@@@std@@@2@A 0045c160     libcpmtd:xlocale.obj
 0003:00003164       ?_Facsav@?$_Tidyfac@V?$time_put@DV?$ostreambuf_iterator@DU?$char_traits@D@std@@@std@@@std@@@std@@0PAV?$time_put@DV?$ostreambuf_iterator@DU?$char_traits@D@std@@@std@@@2@A 0045c164     libcpmtd:xlocale.obj
 0003:00003168       ?_Stz@?$fpos@H@std@@0HA    0045c168     <common>
 0003:0000316c       ??_B?1???id@?$numpunct@D@std@@$D@@9@51 0045c16c     <common>
 0003:0000316d       ??_B?1???id@?$num_put@DV?$ostreambuf_iterator@DU?$char_traits@D@std@@@$D@@9@51 0045c16d     <common>
 0003:0000316e       ??_B?1???id@?$ctype@G@std@@$D@@9@51 0045c16e     <common>
 0003:00003170       ___alternate_form          0045c170     <common>
 0003:00003174       ___no_lead_zeros           0045c174     <common>
 0003:00003178       ___mbcodepage              0045c178     <common>
 0003:00003180       ___mbulinfo                0045c180     <common>
 0003:0000318c       ___ismbcodepage            0045c18c     <common>
 0003:000031a0       __mbcasemap                0045c1a0     <common>
 0003:000032a0       __mbctype                  0045c2a0     <common>
 0003:000033a4       ___mblcid                  0045c3a4     <common>
 0003:000033a8       ___piob                    0045c3a8     <common>
 0003:000033c0       __bufin                    0045c3c0     <common>
 0003:000043c0       __nstream                  0045d3c0     <common>
 0003:000043e0       ___pioinfo                 0045d3e0     <common>
 0003:000044e0       __nhandle                  0045d4e0     <common>
 0003:000044e4       ___sbh_sizeHeaderList      0045d4e4     <common>
 0003:000044e8       ___sbh_indGroupDefer       0045d4e8     <common>
 0003:000044ec       ___sbh_pHeaderScan         0045d4ec     <common>
 0003:000044f0       ___sbh_pHeaderDefer        0045d4f0     <common>
 0003:000044f4       ___sbh_cntHeaderList       0045d4f4     <common>
 0003:000044f8       ___sbh_pHeaderList         0045d4f8     <common>
 0003:000044fc       __crtheap                  0045d4fc     <common>
 0003:00004500       ___setlc_active            0045d500     <common>
 0003:00004504       ___unguarded_readlc_active 0045d504     <common>
 0003:00004508       ___env_initialized         0045d508     <common>
 0003:0000450c       ___mbctype_initialized     0045d50c     <common>
 0003:00004510       ___onexitend               0045d510     <common>
 0003:00004514       ___onexitbegin             0045d514     <common>
 0003:00004518       __pfnReportHook            0045d518     <common>
 0003:0000451c       __acmdln                   0045d51c     <common>
 0003:00004520       __pfnDumpClient            0045d520     <common>
 0003:00004524       ?_Stinit@?1??_Init@?$basic_filebuf@GU?$char_traits@G@std@@@std@@IAEXPAU_iobuf@@W4_Initfl@23@@Z@4HA 0045d524     <common>
 0003:00004528       ??_B?1???id@?$collate@D@std@@$D@@9@51 0045d528     <common>
 0003:0000452c       ?_Stinit@?1??_Init@?$basic_filebuf@DU?$char_traits@D@std@@@std@@IAEXPAU_iobuf@@W4_Initfl@23@@Z@4HA 0045d52c     <common>
 0004:00000000       __IMPORT_DESCRIPTOR_KERNEL32 0045e000     kernel32:KERNEL32.dll
 0004:00000014       __NULL_IMPORT_DESCRIPTOR   0045e014     kernel32:KERNEL32.dll
 0004:00000184       __imp__WideCharToMultiByte@32 0045e184     kernel32:KERNEL32.dll
 0004:00000188       __imp__Sleep@4             0045e188     kernel32:KERNEL32.dll
 0004:0000018c       __imp__InitializeCriticalSection@4 0045e18c     kernel32:KERNEL32.dll
 0004:00000190       __imp__EnterCriticalSection@4 0045e190     kernel32:KERNEL32.dll
 0004:00000194       __imp__LeaveCriticalSection@4 0045e194     kernel32:KERNEL32.dll
 0004:00000198       __imp__DeleteCriticalSection@4 0045e198     kernel32:KERNEL32.dll
 0004:0000019c       __imp__WaitForSingleObject@8 0045e19c     kernel32:KERNEL32.dll
 0004:000001a0       __imp__CreateEventA@16     0045e1a0     kernel32:KERNEL32.dll
 0004:000001a4       __imp__CloseHandle@4       0045e1a4     kernel32:KERNEL32.dll
 0004:000001a8       __imp__SetEvent@4          0045e1a8     kernel32:KERNEL32.dll
 0004:000001ac       __imp__ResetEvent@4        0045e1ac     kernel32:KERNEL32.dll
 0004:000001b0       __imp__RtlUnwind@16        0045e1b0     kernel32:KERNEL32.dll
 0004:000001b4       __imp__InterlockedDecrement@4 0045e1b4     kernel32:KERNEL32.dll
 0004:000001b8       __imp__InterlockedIncrement@4 0045e1b8     kernel32:KERNEL32.dll
 0004:000001bc       __imp__GetSystemTimeAsFileTime@4 0045e1bc     kernel32:KERNEL32.dll
 0004:000001c0       __imp__RaiseException@16   0045e1c0     kernel32:KERNEL32.dll
 0004:000001c4       __imp__IsBadWritePtr@8     0045e1c4     kernel32:KERNEL32.dll
 0004:000001c8       __imp__IsBadReadPtr@8      0045e1c8     kernel32:KERNEL32.dll
 0004:000001cc       __imp__HeapValidate@12     0045e1cc     kernel32:KERNEL32.dll
 0004:000001d0       __imp__GetLastError@0      0045e1d0     kernel32:KERNEL32.dll
 0004:000001d4       __imp__CreateThread@24     0045e1d4     kernel32:KERNEL32.dll
 0004:000001d8       __imp__GetCurrentThreadId@0 0045e1d8     kernel32:KERNEL32.dll
 0004:000001dc       __imp__TlsSetValue@8       0045e1dc     kernel32:KERNEL32.dll
 0004:000001e0       __imp__ExitThread@4        0045e1e0     kernel32:KERNEL32.dll
 0004:000001e4       __imp__GetCommandLineA@0   0045e1e4     kernel32:KERNEL32.dll
 0004:000001e8       __imp__GetVersion@0        0045e1e8     kernel32:KERNEL32.dll
 0004:000001ec       __imp__ExitProcess@4       0045e1ec     kernel32:KERNEL32.dll
 0004:000001f0       __imp__DebugBreak@0        0045e1f0     kernel32:KERNEL32.dll
 0004:000001f4       __imp__GetStdHandle@4      0045e1f4     kernel32:KERNEL32.dll
 0004:000001f8       __imp__WriteFile@20        0045e1f8     kernel32:KERNEL32.dll
 0004:000001fc       __imp__OutputDebugStringA@4 0045e1fc     kernel32:KERNEL32.dll
 0004:00000200       __imp__GetProcAddress@8    0045e200     kernel32:KERNEL32.dll
 0004:00000204       __imp__LoadLibraryA@4      0045e204     kernel32:KERNEL32.dll
 0004:00000208       __imp__GetModuleFileNameA@12 0045e208     kernel32:KERNEL32.dll
 0004:0000020c       __imp__TerminateProcess@8  0045e20c     kernel32:KERNEL32.dll
 0004:00000210       __imp__GetCurrentProcess@0 0045e210     kernel32:KERNEL32.dll
 0004:00000214       __imp__TlsAlloc@0          0045e214     kernel32:KERNEL32.dll
 0004:00000218       __imp__TlsFree@4           0045e218     kernel32:KERNEL32.dll
 0004:0000021c       __imp__SetLastError@4      0045e21c     kernel32:KERNEL32.dll
 0004:00000220       __imp__TlsGetValue@4       0045e220     kernel32:KERNEL32.dll
 0004:00000224       __imp__GetCurrentThread@0  0045e224     kernel32:KERNEL32.dll
 0004:00000228       __imp__FatalAppExitA@8     0045e228     kernel32:KERNEL32.dll
 0004:0000022c       __imp__WaitForMultipleObjects@16 0045e22c     kernel32:KERNEL32.dll
 0004:00000230       __imp__MultiByteToWideChar@24 0045e230     kernel32:KERNEL32.dll
 0004:00000234       __imp__LCMapStringA@24     0045e234     kernel32:KERNEL32.dll
 0004:00000238       __imp__LCMapStringW@24     0045e238     kernel32:KERNEL32.dll
 0004:0000023c       __imp__GetModuleHandleA@4  0045e23c     kernel32:KERNEL32.dll
 0004:00000240       __imp__HeapFree@12         0045e240     kernel32:KERNEL32.dll
 0004:00000244       __imp__SetUnhandledExceptionFilter@4 0045e244     kernel32:KERNEL32.dll
 0004:00000248       __imp__HeapAlloc@12        0045e248     kernel32:KERNEL32.dll
 0004:0000024c       __imp__HeapReAlloc@16      0045e24c     kernel32:KERNEL32.dll
 0004:00000250       __imp__HeapDestroy@4       0045e250     kernel32:KERNEL32.dll
 0004:00000254       __imp__HeapCreate@12       0045e254     kernel32:KERNEL32.dll
 0004:00000258       __imp__VirtualFree@12      0045e258     kernel32:KERNEL32.dll
 0004:0000025c       __imp__VirtualAlloc@16     0045e25c     kernel32:KERNEL32.dll
 0004:00000260       __imp__UnhandledExceptionFilter@4 0045e260     kernel32:KERNEL32.dll
 0004:00000264       __imp__FreeEnvironmentStringsA@4 0045e264     kernel32:KERNEL32.dll
 0004:00000268       __imp__FreeEnvironmentStringsW@4 0045e268     kernel32:KERNEL32.dll
 0004:0000026c       __imp__GetEnvironmentStrings@0 0045e26c     kernel32:KERNEL32.dll
 0004:00000270       __imp__GetEnvironmentStringsW@0 0045e270     kernel32:KERNEL32.dll
 0004:00000274       __imp__SetHandleCount@4    0045e274     kernel32:KERNEL32.dll
 0004:00000278       __imp__GetFileType@4       0045e278     kernel32:KERNEL32.dll
 0004:0000027c       __imp__GetStartupInfoA@4   0045e27c     kernel32:KERNEL32.dll
 0004:00000280       __imp__SetConsoleCtrlHandler@8 0045e280     kernel32:KERNEL32.dll
 0004:00000284       __imp__IsBadCodePtr@4      0045e284     kernel32:KERNEL32.dll
 0004:00000288       __imp__GetCPInfo@8         0045e288     kernel32:KERNEL32.dll
 0004:0000028c       __imp__IsValidLocale@8     0045e28c     kernel32:KERNEL32.dll
 0004:00000290       __imp__IsValidCodePage@4   0045e290     kernel32:KERNEL32.dll
 0004:00000294       __imp__GetLocaleInfoA@16   0045e294     kernel32:KERNEL32.dll
 0004:00000298       __imp__EnumSystemLocalesA@8 0045e298     kernel32:KERNEL32.dll
 0004:0000029c       __imp__GetUserDefaultLCID@0 0045e29c     kernel32:KERNEL32.dll
 0004:000002a0       __imp__GetVersionExA@4     0045e2a0     kernel32:KERNEL32.dll
 0004:000002a4       __imp__GetStringTypeA@20   0045e2a4     kernel32:KERNEL32.dll
 0004:000002a8       __imp__GetStringTypeW@16   0045e2a8     kernel32:KERNEL32.dll
 0004:000002ac       __imp__SetFilePointer@16   0045e2ac     kernel32:KERNEL32.dll
 0004:000002b0       __imp__GetACP@0            0045e2b0     kernel32:KERNEL32.dll
 0004:000002b4       __imp__GetOEMCP@0          0045e2b4     kernel32:KERNEL32.dll
 0004:000002b8       __imp__SetStdHandle@8      0045e2b8     kernel32:KERNEL32.dll
 0004:000002bc       __imp__GetTimeZoneInformation@4 0045e2bc     kernel32:KERNEL32.dll
 0004:000002c0       __imp__GetLocaleInfoW@16   0045e2c0     kernel32:KERNEL32.dll
 0004:000002c4       __imp__FlushFileBuffers@4  0045e2c4     kernel32:KERNEL32.dll
 0004:000002c8       __imp__CompareStringA@24   0045e2c8     kernel32:KERNEL32.dll
 0004:000002cc       __imp__CompareStringW@24   0045e2cc     kernel32:KERNEL32.dll
 0004:000002d0       __imp__SetEnvironmentVariableA@8 0045e2d0     kernel32:KERNEL32.dll
 0004:000002d4       __imp__InterlockedExchange@8 0045e2d4     kernel32:KERNEL32.dll
 0004:000002d8       __imp__ReadFile@20         0045e2d8     kernel32:KERNEL32.dll
 0004:000002dc       \177KERNEL32_NULL_THUNK_DATA 0045e2dc     kernel32:KERNEL32.dll

 entry point at        0001:0001cd90

 Static symbols

 0001:00018070       _$E17                      00419070 f   main.obj
 0001:000180b0       _$E14                      004190b0 f   main.obj
 0001:000180f0       _$E16                      004190f0 f   main.obj
 0001:00018130       _$E15                      00419130 f   main.obj
 0001:00018170       _$E23                      00419170 f   main.obj
 0001:000181b0       _$E20                      004191b0 f   main.obj
 0001:000181f0       _$E22                      004191f0 f   main.obj
 0001:00018230       _$E21                      00419230 f   main.obj
 0001:00018320       _$E34                      00419320 f   main.obj
 0001:00018360       _$E33                      00419360 f   main.obj
 0001:00015480       _$E17                      00416480 f   cTree.obj
 0001:000154c0       _$E14                      004164c0 f   cTree.obj
 0001:00015500       _$E16                      00416500 f   cTree.obj
 0001:00015540       _$E15                      00416540 f   cTree.obj
 0001:00015580       _$E23                      00416580 f   cTree.obj
 0001:000155c0       _$E20                      004165c0 f   cTree.obj
 0001:00015600       _$E22                      00416600 f   cTree.obj
 0001:00015640       _$E21                      00416640 f   cTree.obj
 0001:00017f60       _$E40                      00418f60 f   cTree.obj
 0001:00017fb0       _$E33                      00418fb0 f   cTree.obj
 0001:00017ff0       _$E36                      00418ff0 f   cTree.obj
 0001:00018030       _$E39                      00419030 f   cTree.obj
 0001:000150a0       _$E21                      004160a0 f   cSquares.obj
 0001:000150e0       _$E20                      004160e0 f   cSquares.obj
 0001:00010170       _$E17                      00411170 f   cPosition.obj
 0001:000101b0       _$E14                      004111b0 f   cPosition.obj
 0001:000101f0       _$E16                      004111f0 f   cPosition.obj
 0001:00010230       _$E15                      00411230 f   cPosition.obj
 0001:00010270       _$E23                      00411270 f   cPosition.obj
 0001:000102b0       _$E20                      004112b0 f   cPosition.obj
 0001:000102f0       _$E22                      004112f0 f   cPosition.obj
 0001:00010330       _$E21                      00411330 f   cPosition.obj
 0001:00011f10       _$E30                      00412f10 f   cPosition.obj
 0001:00011f50       _$E29                      00412f50 f   cPosition.obj
 0001:000100f0       _$E21                      004110f0 f   cPARSE.obj
 0001:00010130       _$E20                      00411130 f   cPARSE.obj
 0001:0000ce80       _$E19                      0040de80 f   cMove.obj
 0001:0000cec0       _$E18                      0040dec0 f   cMove.obj
 0001:00005c50       _$E17                      00406c50 f   cInterface.obj
 0001:00005c90       _$E14                      00406c90 f   cInterface.obj
 0001:00005cd0       _$E16                      00406cd0 f   cInterface.obj
 0001:00005d10       _$E15                      00406d10 f   cInterface.obj
 0001:00005d50       _$E23                      00406d50 f   cInterface.obj
 0001:00005d90       _$E20                      00406d90 f   cInterface.obj
 0001:00005dd0       _$E22                      00406dd0 f   cInterface.obj
 0001:00005e10       _$E21                      00406e10 f   cInterface.obj
 0001:0000ccb0       _$E40                      0040dcb0 f   cInterface.obj
 0001:0000cd00       _$E33                      0040dd00 f   cInterface.obj
 0001:0000cd80       _$E36                      0040dd80 f   cInterface.obj
 0001:0000ce00       _$E39                      0040de00 f   cInterface.obj
 0001:000040d0       _$E17                      004050d0 f   cGAME.obj
 0001:00004110       _$E14                      00405110 f   cGAME.obj
 0001:00004150       _$E16                      00405150 f   cGAME.obj
 0001:00004190       _$E15                      00405190 f   cGAME.obj
 0001:000041d0       _$E23                      004051d0 f   cGAME.obj
 0001:00004210       _$E20                      00405210 f   cGAME.obj
 0001:00004250       _$E22                      00405250 f   cGAME.obj
 0001:00004290       _$E21                      00405290 f   cGAME.obj
 0001:00005bd0       _$E30                      00406bd0 f   cGAME.obj
 0001:00005c10       _$E29                      00406c10 f   cGAME.obj
 0001:00003120       _$E17                      00404120 f   cEngine.obj
 0001:00003160       _$E14                      00404160 f   cEngine.obj
 0001:000031a0       _$E16                      004041a0 f   cEngine.obj
 0001:000031e0       _$E15                      004041e0 f   cEngine.obj
 0001:00003220       _$E23                      00404220 f   cEngine.obj
 0001:00003260       _$E20                      00404260 f   cEngine.obj
 0001:000032a0       _$E22                      004042a0 f   cEngine.obj
 0001:000032e0       _$E21                      004042e0 f   cEngine.obj
 0001:00004050       _$E32                      00405050 f   cEngine.obj
 0001:00004090       _$E31                      00405090 f   cEngine.obj
 0001:000030a0       _$E19                      004040a0 f   cConvert.obj
 0001:000030e0       _$E18                      004040e0 f   cConvert.obj
 0001:00002880       _$E19                      00403880 f   cBoard.obj
 0001:000028c0       _$E18                      004038c0 f   cBoard.obj
 0001:00000220       _$E17                      00401220 f   cAPP.obj
 0001:00000260       _$E14                      00401260 f   cAPP.obj
 0001:000002a0       _$E16                      004012a0 f   cAPP.obj
 0001:000002e0       _$E15                      004012e0 f   cAPP.obj
 0001:00000320       _$E23                      00401320 f   cAPP.obj
 0001:00000360       _$E20                      00401360 f   cAPP.obj
 0001:000003a0       _$E22                      004013a0 f   cAPP.obj
 0001:000003e0       _$E21                      004013e0 f   cAPP.obj
 0001:00001590       _$E34                      00402590 f   cAPP.obj
 0001:00001610       _$E33                      00402610 f   cAPP.obj
 0001:00000000       _$E2                       00401000 f   board_data.obj
 0001:00000030       _$E1                       00401030 f   board_data.obj
 0001:000000b0       _$E5                       004010b0 f   board_data.obj
 0001:000000e0       _$E4                       004010e0 f   board_data.obj
 0001:0004af50       _strtoxl                   0044bf50 f   LIBCMTD:strtol.obj
 0001:0002f9e0       _$$$00001                  004309e0 f   LIBCMTD:strchr.obj
 0001:0002fa08       str_misaligned             00430a08 f   LIBCMTD:strchr.obj
 0001:0002fa1b       main_loop_start            00430a1b f   LIBCMTD:strchr.obj
 0001:0002fa26       main_loop                  00430a26 f   LIBCMTD:strchr.obj
 0001:0002fa62       retnull                    00430a62 f   LIBCMTD:strchr.obj
 0001:0002fa64       retnull_bx                 00430a64 f   LIBCMTD:strchr.obj
 0001:0002fa68       chr_is_found               00430a68 f   LIBCMTD:strchr.obj
 0001:0002fa90       byte_3                     00430a90 f   LIBCMTD:strchr.obj
 0001:0002fa97       byte_2                     00430a97 f   LIBCMTD:strchr.obj
 0001:0002fa9e       byte_1                     00430a9e f   LIBCMTD:strchr.obj
 0001:0002faa5       byte_0                     00430aa5 f   LIBCMTD:strchr.obj
 0001:0002f9e0       found_bx                   004309e0 f   LIBCMTD:strchr.obj
 0001:0002f780       _findenv                   00430780 f   LIBCMTD:setenv.obj
 0001:0002f800       _copy_environ              00430800 f   LIBCMTD:setenv.obj
 0001:0002f450       _strncnt                   00430450 f   LIBCMTD:a_cmp.obj
 0001:0002e519       hard                       0042f519 f   LIBCMTD:llmul.obj
 0001:0002d8d0       __tzset_lk                 0042e8d0 f   LIBCMTD:tzset.obj
 0001:0002dcb0       __isindst_lk               0042ecb0 f   LIBCMTD:tzset.obj
 0001:0002dfb0       _cvtdate                   0042efb0 f   LIBCMTD:tzset.obj
 0001:0002d730       _flsall                    0042e730 f   LIBCMTD:fflush.obj
 0001:0002b83c       lupe                       0042c83c f   LIBCMTD:strnicmp.obj
 0001:0002b854       skip1                      0042c854 f   LIBCMTD:strnicmp.obj
 0001:0002b85e       skip2                      0042c85e f   LIBCMTD:strnicmp.obj
 0001:0002b865       eject                      0042c865 f   LIBCMTD:strnicmp.obj
 0001:0002b86f       differ                     0042c86f f   LIBCMTD:strnicmp.obj
 0001:0002b881       notclocale                 0042c881 f   LIBCMTD:strnicmp.obj
 0001:0002b895       do_lock                    0042c895 f   LIBCMTD:strnicmp.obj
 0001:0002b8ae       end_lock                   0042c8ae f   LIBCMTD:strnicmp.obj
 0001:0002b8b4       lupe2                      0042c8b4 f   LIBCMTD:strnicmp.obj
 0001:0002b8df       eject2                     0042c8df f   LIBCMTD:strnicmp.obj
 0001:0002b8e5       differ2                    0042c8e5 f   LIBCMTD:strnicmp.obj
 0001:0002b8ee       toend2                     0042c8ee f   LIBCMTD:strnicmp.obj
 0001:0002b8fc       do_unlock                  0042c8fc f   LIBCMTD:strnicmp.obj
 0001:0002b90a       end_unlock                 0042c90a f   LIBCMTD:strnicmp.obj
 0001:0002b90a       toend                      0042c90a f   LIBCMTD:strnicmp.obj
 0001:0002b75c       chk_null                   0042c75c f   LIBCMTD:stricmp.obj
 0001:0002b78e       done                       0042c78e f   LIBCMTD:stricmp.obj
 0001:0002b793       notclocale                 0042c793 f   LIBCMTD:stricmp.obj
 0001:0002b7a7       do_lock                    0042c7a7 f   LIBCMTD:stricmp.obj
 0001:0002b7bc       end_lock                   0042c7bc f   LIBCMTD:stricmp.obj
 0001:0002b7c4       chk_null2                  0042c7c4 f   LIBCMTD:stricmp.obj
 0001:0002b7ef       done2                      0042c7ef f   LIBCMTD:stricmp.obj
 0001:0002b7ff       do_unlock                  0042c7ff f   LIBCMTD:stricmp.obj
 0001:0002b809       end_unlock                 0042c809 f   LIBCMTD:stricmp.obj
 0001:0002b80b       doret                      0042c80b f   LIBCMTD:stricmp.obj
 0001:0002a550       __expandtime               0042b550 f   LIBCMTD:strftime.obj
 0001:0002ab70       __store_str                0042bb70 f   LIBCMTD:strftime.obj
 0001:0002abc0       __store_num                0042bbc0 f   LIBCMTD:strftime.obj
 0001:0002ac70       __store_number             0042bc70 f   LIBCMTD:strftime.obj
 0001:0002ad20       __store_winword            0042bd20 f   LIBCMTD:strftime.obj
 0001:00029910       _getSystemCP               0042a910 f   LIBCMTD:mbctype.obj
 0001:00029970       _CPtoLCID                  0042a970 f   LIBCMTD:mbctype.obj
 0001:000299f0       _setSBCS                   0042a9f0 f   LIBCMTD:mbctype.obj
 0001:00029a70       _setSBUpLow                0042aa70 f   LIBCMTD:mbctype.obj
 0001:00029561       L1                         0042a561 f   LIBCMTD:ullrem.obj
 0001:0002956f       L3                         0042a56f f   LIBCMTD:ullrem.obj
 0001:0002959a       L4                         0042a59a f   LIBCMTD:ullrem.obj
 0001:000295a2       L5                         0042a5a2 f   LIBCMTD:ullrem.obj
 0001:000295b1       L2                         0042a5b1 f   LIBCMTD:ullrem.obj
 0001:00027c30       __abstract_cw              00428c30 f   LIBCMTD:ieee87.obj
 0001:00027db0       __hw_cw                    00428db0 f   LIBCMTD:ieee87.obj
 0001:00027f10       __abstract_sw              00428f10 f   LIBCMTD:ieee87.obj
 0001:00026dc0       _TranslateName             00427dc0 f   LIBCMTD:getqloc.obj
 0001:00026e50       _GetLcidFromLangCountry    00427e50 f   LIBCMTD:getqloc.obj
 0001:00026f10       _LangCountryEnumProc@4     00427f10 f   LIBCMTD:getqloc.obj
 0001:00027240       _GetLcidFromLanguage       00428240 f   LIBCMTD:getqloc.obj
 0001:000272c0       _LanguageEnumProc@4        004282c0 f   LIBCMTD:getqloc.obj
 0001:000273e0       _GetLcidFromCountry        004283e0 f   LIBCMTD:getqloc.obj
 0001:00027430       _CountryEnumProc@4         00428430 f   LIBCMTD:getqloc.obj
 0001:000274e0       _GetLcidFromDefault        004284e0 f   LIBCMTD:getqloc.obj
 0001:00027510       _ProcessCodePage           00428510 f   LIBCMTD:getqloc.obj
 0001:000275b0       _TestDefaultCountry        004285b0 f   LIBCMTD:getqloc.obj
 0001:00027600       _TestDefaultLanguage       00428600 f   LIBCMTD:getqloc.obj
 0001:00027690       _IsThisWindowsNT           00428690 f   LIBCMTD:getqloc.obj
 0001:000276e0       _crtGetLocaleInfoA@16      004286e0 f   LIBCMTD:getqloc.obj
 0001:00027870       _LcidFromHexString         00428870 f   LIBCMTD:getqloc.obj
 0001:000278f0       _GetPrimaryLen             004288f0 f   LIBCMTD:getqloc.obj
 0001:00026b94       listnext                   00427b94 f   LIBCMTD:strpbrk.obj
 0001:00026ba1       listdone                   00427ba1 f   LIBCMTD:strpbrk.obj
 0001:00026ba4       dstnext                    00427ba4 f   LIBCMTD:strpbrk.obj
 0001:00026bb4       dstdone                    00427bb4 f   LIBCMTD:strpbrk.obj
 0001:00026b5a       okay                       00427b5a f   LIBCMTD:strncmp.obj
 0001:00026b6d       firstbig                   00427b6d f   LIBCMTD:strncmp.obj
 0001:00026b6f       lastbig                    00427b6f f   LIBCMTD:strncmp.obj
 0001:00026b71       toend                      00427b71 f   LIBCMTD:strncmp.obj
 0001:00026460       __get_lc_lconv             00427460 f   LIBCMTD:initmon.obj
 0001:00026670       _fix_grouping              00427670 f   LIBCMTD:initmon.obj
 0001:000266f0       __free_lc_lconv            004276f0 f   LIBCMTD:initmon.obj
 0001:000262b0       _fix_grouping              004272b0 f   LIBCMTD:initnum.obj
 0001:00025760       __get_lc_time              00426760 f   LIBCMTD:inittime.obj
 0001:00025cf0       __free_lc_time             00426cf0 f   LIBCMTD:inittime.obj
 0001:000254f4       src_misaligned             004264f4 f   LIBCMTD:strncpy.obj
 0001:00025510       tail_loop_start            00426510 f   LIBCMTD:strncpy.obj
 0001:00025515       copy_tail_loop             00426515 f   LIBCMTD:strncpy.obj
 0001:00025522       fill_tail_end1             00426522 f   LIBCMTD:strncpy.obj
 0001:0002552a       align_dest                 0042652a f   LIBCMTD:strncpy.obj
 0001:00025532       dest_align_loop            00426532 f   LIBCMTD:strncpy.obj
 0001:00025544       dest_align_loop_end        00426544 f   LIBCMTD:strncpy.obj
 0001:0002554b       finish_loop                0042654b f   LIBCMTD:strncpy.obj
 0001:0002554e       fill_tail_zero_bytes       0042654e f   LIBCMTD:strncpy.obj
 0001:00025553       finish                     00426553 f   LIBCMTD:strncpy.obj
 0001:00025559       main_loop                  00426559 f   LIBCMTD:strncpy.obj
 0001:00025561       main_loop_entrance         00426561 f   LIBCMTD:strncpy.obj
 0001:00025597       byte_2                     00426597 f   LIBCMTD:strncpy.obj
 0001:000255a1       byte_1                     004265a1 f   LIBCMTD:strncpy.obj
 0001:000255ab       byte_0                     004265ab f   LIBCMTD:strncpy.obj
 0001:000255af       fill_with_EOS_dwords       004265af f   LIBCMTD:strncpy.obj
 0001:000255b7       fill_dwords_with_EOS       004265b7 f   LIBCMTD:strncpy.obj
 0001:000255b9       fill_with_EOS_loop         004265b9 f   LIBCMTD:strncpy.obj
 0001:000255c1       fill_tail                  004265c1 f   LIBCMTD:strncpy.obj
 0001:000255c6       fill_tail_end              004265c6 f   LIBCMTD:strncpy.obj
 0001:000250b0       _ctrlevent_capture@4       004260b0 f   LIBCMTD:winsig.obj
 0001:00025390       _siglookup                 00426390 f   LIBCMTD:winsig.obj
 0001:000249e0       _xtoa                      004259e0 f   LIBCMTD:xtoa.obj
 0001:00024b60       _x64toa@20                 00425b60 f   LIBCMTD:xtoa.obj
 0001:00023d10       _parse_cmdline             00424d10 f   LIBCMTD:stdargv.obj
 0001:00023a80       _xcptlookup                00424a80 f   LIBCMTD:winxfltr.obj
 0001:000235b0       _write_char                004245b0 f   LIBCMTD:output.obj
 0001:00023630       _write_multi_char          00424630 f   LIBCMTD:output.obj
 0001:00023670       _write_string              00424670 f   LIBCMTD:output.obj
 0001:000236c0       _get_int_arg               004246c0 f   LIBCMTD:output.obj
 0001:000236e0       _get_int64_arg             004246e0 f   LIBCMTD:output.obj
 0001:00023700       _get_short_arg             00424700 f   LIBCMTD:output.obj
 0001:000202b0       dodwords                   004212b0 f   LIBCMTD:strcmp.obj
 0001:000202e0       doneeq                     004212e0 f   LIBCMTD:strcmp.obj
 0001:000202e4       donene                     004212e4 f   LIBCMTD:strcmp.obj
 0001:000202ec       dopartial                  004212ec f   LIBCMTD:strcmp.obj
 0001:00020308       doword                     00421308 f   LIBCMTD:strcmp.obj
 0001:0001fd90       __cftoe2                   00420d90 f   LIBCMTD:cvt.obj
 0001:0001ff70       __cftof2                   00420f70 f   LIBCMTD:cvt.obj
 0001:00020200       __shift                    00421200 f   LIBCMTD:cvt.obj
 0001:0001f9e2       L1                         004209e2 f   LIBCMTD:ulldiv.obj
 0001:0001f9f0       L3                         004209f0 f   LIBCMTD:ulldiv.obj
 0001:0001fa1e       L4                         00420a1e f   LIBCMTD:ulldiv.obj
 0001:0001fa1f       L5                         00420a1f f   LIBCMTD:ulldiv.obj
 0001:0001fa23       L2                         00420a23 f   LIBCMTD:ulldiv.obj
 0001:0001f8b0       _strncnt                   004208b0 f   LIBCMTD:a_map.obj
 0001:0001ef40       __setlocale_set_cat        0041ff40 f   LIBCMTD:setlocal.obj
 0001:0001f0e0       __setlocale_get_all        004200e0 f   LIBCMTD:setlocal.obj
 0001:0001d9e0       ?FindHandler@@YAXPAUEHExceptionRecord@@PAUEHRegistrationNode@@PAU_CONTEXT@@PAXPBU_s_FuncInfo@@EH1@Z 0041e9e0 f   LIBCMTD:frame.obj
 0001:0001dc80       ?FindHandlerForForeignException@@YAXPAUEHExceptionRecord@@PAUEHRegistrationNode@@PAU_CONTEXT@@PAXPBU_s_FuncInfo@@HH1@Z 0041ec80 f   LIBCMTD:frame.obj
 0001:0001dda0       ?TypeMatch@@YAHPBU_s_HandlerType@@PBU_s_CatchableType@@PBU_s_ThrowInfo@@@Z 0041eda0 f   LIBCMTD:frame.obj
 0001:0001df60       ?FrameUnwindFilter@@YAHPAU_EXCEPTION_POINTERS@@@Z 0041ef60 f   LIBCMTD:frame.obj
 0001:0001df90       ?CatchIt@@YAXPAUEHExceptionRecord@@PAUEHRegistrationNode@@PAU_CONTEXT@@PAXPBU_s_FuncInfo@@PBU_s_HandlerType@@PBU_s_CatchableType@@PBU_s_TryBlockMapEntry@@H1E@Z 0041ef90 f   LIBCMTD:frame.obj
 0001:0001e050       ?CallCatchBlock@@YAPAXPAUEHExceptionRecord@@PAUEHRegistrationNode@@PAU_CONTEXT@@PBU_s_FuncInfo@@PAXHK@Z 0041f050 f   LIBCMTD:frame.obj
 0001:0001e1a0       ?ExFilterRethrow@@YAHPAU_EXCEPTION_POINTERS@@@Z 0041f1a0 f   LIBCMTD:frame.obj
 0001:0001e1f0       ?BuildCatchObject@@YAXPAUEHExceptionRecord@@PAUEHRegistrationNode@@PBU_s_HandlerType@@PBU_s_CatchableType@@@Z 0041f1f0 f   LIBCMTD:frame.obj
 0001:0001e500       ?AdjustPointer@@YAPAXPAXABUPMD@@@Z 0041f500 f   LIBCMTD:frame.obj
 0001:0001d7b0       _doexit                    0041e7b0 f   LIBCMTD:crt0dat.obj
 0001:0001d8c0       __initterm                 0041e8c0 f   LIBCMTD:crt0dat.obj
 0001:0001d3e0       _CrtMessageWindow          0041e3e0 f   LIBCMTD:dbgrpt.obj
 0001:0001cf10       _fast_error_exit           0041df10 f   LIBCMTD:crt0.obj
 0001:0001cc70       __threadstartex@4          0041dc70 f   LIBCMTD:threadex.obj
 0001:0001cb80       _$$$00001                  0041db80 f   LIBCMTD:chkstk.obj
 0001:0001cb8c       probepages                 0041db8c f   LIBCMTD:chkstk.obj
 0001:0001cba0       lastpage                   0041dba0 f   LIBCMTD:chkstk.obj
 0001:0001cab0       ?ArrayUnwindFilter@@YAHPAU_EXCEPTION_POINTERS@@@Z 0041dab0 f   LIBCMTD:ehvecdtr.obj
 0001:0001c87d       main_loop                  0041d87d f   LIBCMTD:memcmp.obj
 0001:0001c89a       done                       0041d89a f   LIBCMTD:memcmp.obj
 0001:0001c89c       retnull                    0041d89c f   LIBCMTD:memcmp.obj
 0001:0001c89d       dwords                     0041d89d f   LIBCMTD:memcmp.obj
 0001:0001c8c5       difference_in_tail         0041d8c5 f   LIBCMTD:memcmp.obj
 0001:0001c8ca       not_equal                  0041d8ca f   LIBCMTD:memcmp.obj
 0001:0001c8d2       tail_loop_start            0041d8d2 f   LIBCMTD:memcmp.obj
 0001:0001c8f9       tail_done                  0041d8f9 f   LIBCMTD:memcmp.obj
 0001:0001c77d       dest_misaligned            0041d77d f   LIBCMTD:strcat.obj
 0001:0001c78c       find_end_of_dest_string_loop 0041d78c f   LIBCMTD:strcat.obj
 0001:0001c7bf       start_byte_3               0041d7bf f   LIBCMTD:strcat.obj
 0001:0001c7c4       start_byte_2               0041d7c4 f   LIBCMTD:strcat.obj
 0001:0001c7c9       start_byte_1               0041d7c9 f   LIBCMTD:strcat.obj
 0001:0001c7ce       start_byte_0               0041d7ce f   LIBCMTD:strcat.obj
 0001:0001c7dd       src_misaligned             0041d7dd f   LIBCMTD:strcat.obj
 0001:0001c7f1       main_loop                  0041d7f1 f   LIBCMTD:strcat.obj
 0001:0001c7f6       main_loop_entrance         0041d7f6 f   LIBCMTD:strcat.obj
 0001:0001c82a       byte_3                     0041d82a f   LIBCMTD:strcat.obj
 0001:0001c832       byte_2                     0041d832 f   LIBCMTD:strcat.obj
 0001:0001c83f       byte_1                     0041d83f f   LIBCMTD:strcat.obj
 0001:0001c848       byte_0                     0041d848 f   LIBCMTD:strcat.obj
 0001:0001c7d1       copy_start                 0041d7d1 f   LIBCMTD:strcat.obj
 0001:0001c734       listnext                   0041d734 f   LIBCMTD:strcspn.obj
 0001:0001c741       listdone                   0041d741 f   LIBCMTD:strcspn.obj
 0001:0001c748       dstnext                    0041d748 f   LIBCMTD:strcspn.obj
 0001:0001c756       dstdone                    0041d756 f   LIBCMTD:strcspn.obj
 0001:0001c67b       str_misaligned             0041d67b f   LIBCMTD:memchr.obj
 0001:0001c68d       main_loop_start            0041d68d f   LIBCMTD:memchr.obj
 0001:0001c6a3       return_from_main           0041d6a3 f   LIBCMTD:memchr.obj
 0001:0001c6a4       tail_less_then_4           0041d6a4 f   LIBCMTD:memchr.obj
 0001:0001c6a9       tail_loop                  0041d6a9 f   LIBCMTD:memchr.obj
 0001:0001c6b3       retnull                    0041d6b3 f   LIBCMTD:memchr.obj
 0001:0001c6b5       main_loop                  0041d6b5 f   LIBCMTD:memchr.obj
 0001:0001c6ba       main_loop_entry            0041d6ba f   LIBCMTD:memchr.obj
 0001:0001c6d5       char_is_found              0041d6d5 f   LIBCMTD:memchr.obj
 0001:0001c6ed       byte_3                     0041d6ed f   LIBCMTD:memchr.obj
 0001:0001c6ee       found                      0041d6ee f   LIBCMTD:memchr.obj
 0001:0001c6f3       byte_2                     0041d6f3 f   LIBCMTD:memchr.obj
 0001:0001c6f9       byte_1                     0041d6f9 f   LIBCMTD:memchr.obj
 0001:0001c6ff       byte_0                     0041d6ff f   LIBCMTD:memchr.obj
 0001:0001aac0       _realloc_help              0041bac0 f   LIBCMTD:dbgheap.obj
 0001:0001b700       _CheckBytes                0041c700 f   LIBCMTD:dbgheap.obj
 0001:0001c2f0       __printMemBlockData        0041d2f0 f   LIBCMTD:dbgheap.obj
 0001:0001a1f3       adjust_loop                0041b1f3 f   LIBCMTD:memset.obj
 0001:0001a1f9       dwords                     0041b1f9 f   LIBCMTD:memset.obj
 0001:0001a213       main_loop_tail             0041b213 f   LIBCMTD:memset.obj
 0001:0001a217       tail                       0041b217 f   LIBCMTD:memset.obj
 0001:0001a21d       finish                     0041b21d f   LIBCMTD:memset.obj
 0001:0001a223       toend                      0041b223 f   LIBCMTD:memset.obj
 0001:00019b00       LeadUp1                    0041ab00 f   LIBCMTD:memmove.obj
 0001:00019b2c       LeadUp2                    0041ab2c f   LIBCMTD:memmove.obj
 0001:00019b50       LeadUp3                    0041ab50 f   LIBCMTD:memmove.obj
 0001:00019bcf       UnwindUp0                  0041abcf f   LIBCMTD:memmove.obj
 0001:00019bbc       UnwindUp1                  0041abbc f   LIBCMTD:memmove.obj
 0001:00019bb4       UnwindUp2                  0041abb4 f   LIBCMTD:memmove.obj
 0001:00019bac       UnwindUp3                  0041abac f   LIBCMTD:memmove.obj
 0001:00019ba4       UnwindUp4                  0041aba4 f   LIBCMTD:memmove.obj
 0001:00019b9c       UnwindUp5                  0041ab9c f   LIBCMTD:memmove.obj
 0001:00019b94       UnwindUp6                  0041ab94 f   LIBCMTD:memmove.obj
 0001:00019b8c       UnwindUp7                  0041ab8c f   LIBCMTD:memmove.obj
 0001:00019be8       TrailUp0                   0041abe8 f   LIBCMTD:memmove.obj
 0001:00019bf0       TrailUp1                   0041abf0 f   LIBCMTD:memmove.obj
 0001:00019bfc       TrailUp2                   0041abfc f   LIBCMTD:memmove.obj
 0001:00019c10       TrailUp3                   0041ac10 f   LIBCMTD:memmove.obj
 0001:00019c88       LeadDown1                  0041ac88 f   LIBCMTD:memmove.obj
 0001:00019ca8       LeadDown2                  0041aca8 f   LIBCMTD:memmove.obj
 0001:00019cd0       LeadDown3                  0041acd0 f   LIBCMTD:memmove.obj
 0001:00019d24       UnwindDown7                0041ad24 f   LIBCMTD:memmove.obj
 0001:00019d2c       UnwindDown6                0041ad2c f   LIBCMTD:memmove.obj
 0001:00019d34       UnwindDown5                0041ad34 f   LIBCMTD:memmove.obj
 0001:00019d3c       UnwindDown4                0041ad3c f   LIBCMTD:memmove.obj
 0001:00019d44       UnwindDown3                0041ad44 f   LIBCMTD:memmove.obj
 0001:00019d4c       UnwindDown2                0041ad4c f   LIBCMTD:memmove.obj
 0001:00019d54       UnwindDown1                0041ad54 f   LIBCMTD:memmove.obj
 0001:00019d67       UnwindDown0                0041ad67 f   LIBCMTD:memmove.obj
 0001:00019d80       TrailDown0                 0041ad80 f   LIBCMTD:memmove.obj
 0001:00019d88       TrailDown1                 0041ad88 f   LIBCMTD:memmove.obj
 0001:00019d98       TrailDown2                 0041ad98 f   LIBCMTD:memmove.obj
 0001:00019dac       TrailDown3                 0041adac f   LIBCMTD:memmove.obj
 0001:00019ab0       CopyUp                     0041aab0 f   LIBCMTD:memmove.obj
 0001:00019acc       CopyLeadUp                 0041aacc f   LIBCMTD:memmove.obj
 0001:00019ae4       ByteCopyUp                 0041aae4 f   LIBCMTD:memmove.obj
 0001:00019aec       CopyUnwindUp               0041aaec f   LIBCMTD:memmove.obj
 0001:00019c28       CopyDown                   0041ac28 f   LIBCMTD:memmove.obj
 0001:00019c50       CopyUnwindDown             0041ac50 f   LIBCMTD:memmove.obj
 0001:00019c5c       CopyLeadDown               0041ac5c f   LIBCMTD:memmove.obj
 0001:00019c74       ByteCopyDown               0041ac74 f   LIBCMTD:memmove.obj
 0001:00019920       MORE32                     0041a920 f   LIBCMTD:llshl.obj
 0001:0001992a       RETZERO                    0041a92a f   LIBCMTD:llshl.obj
 0001:00019390       LeadUp1                    0041a390 f   LIBCMTD:memcpy.obj
 0001:000193bc       LeadUp2                    0041a3bc f   LIBCMTD:memcpy.obj
 0001:000193e0       LeadUp3                    0041a3e0 f   LIBCMTD:memcpy.obj
 0001:0001945f       UnwindUp0                  0041a45f f   LIBCMTD:memcpy.obj
 0001:0001944c       UnwindUp1                  0041a44c f   LIBCMTD:memcpy.obj
 0001:00019444       UnwindUp2                  0041a444 f   LIBCMTD:memcpy.obj
 0001:0001943c       UnwindUp3                  0041a43c f   LIBCMTD:memcpy.obj
 0001:00019434       UnwindUp4                  0041a434 f   LIBCMTD:memcpy.obj
 0001:0001942c       UnwindUp5                  0041a42c f   LIBCMTD:memcpy.obj
 0001:00019424       UnwindUp6                  0041a424 f   LIBCMTD:memcpy.obj
 0001:0001941c       UnwindUp7                  0041a41c f   LIBCMTD:memcpy.obj
 0001:00019478       TrailUp0                   0041a478 f   LIBCMTD:memcpy.obj
 0001:00019480       TrailUp1                   0041a480 f   LIBCMTD:memcpy.obj
 0001:0001948c       TrailUp2                   0041a48c f   LIBCMTD:memcpy.obj
 0001:000194a0       TrailUp3                   0041a4a0 f   LIBCMTD:memcpy.obj
 0001:00019518       LeadDown1                  0041a518 f   LIBCMTD:memcpy.obj
 0001:00019538       LeadDown2                  0041a538 f   LIBCMTD:memcpy.obj
 0001:00019560       LeadDown3                  0041a560 f   LIBCMTD:memcpy.obj
 0001:000195b4       UnwindDown7                0041a5b4 f   LIBCMTD:memcpy.obj
 0001:000195bc       UnwindDown6                0041a5bc f   LIBCMTD:memcpy.obj
 0001:000195c4       UnwindDown5                0041a5c4 f   LIBCMTD:memcpy.obj
 0001:000195cc       UnwindDown4                0041a5cc f   LIBCMTD:memcpy.obj
 0001:000195d4       UnwindDown3                0041a5d4 f   LIBCMTD:memcpy.obj
 0001:000195dc       UnwindDown2                0041a5dc f   LIBCMTD:memcpy.obj
 0001:000195e4       UnwindDown1                0041a5e4 f   LIBCMTD:memcpy.obj
 0001:000195f7       UnwindDown0                0041a5f7 f   LIBCMTD:memcpy.obj
 0001:00019610       TrailDown0                 0041a610 f   LIBCMTD:memcpy.obj
 0001:00019618       TrailDown1                 0041a618 f   LIBCMTD:memcpy.obj
 0001:00019628       TrailDown2                 0041a628 f   LIBCMTD:memcpy.obj
 0001:0001963c       TrailDown3                 0041a63c f   LIBCMTD:memcpy.obj
 0001:00019340       CopyUp                     0041a340 f   LIBCMTD:memcpy.obj
 0001:0001935c       CopyLeadUp                 0041a35c f   LIBCMTD:memcpy.obj
 0001:00019374       ByteCopyUp                 0041a374 f   LIBCMTD:memcpy.obj
 0001:0001937c       CopyUnwindUp               0041a37c f   LIBCMTD:memcpy.obj
 0001:000194b8       CopyDown                   0041a4b8 f   LIBCMTD:memcpy.obj
 0001:000194e0       CopyUnwindDown             0041a4e0 f   LIBCMTD:memcpy.obj
 0001:000194ec       CopyLeadDown               0041a4ec f   LIBCMTD:memcpy.obj
 0001:00019504       ByteCopyDown               0041a504 f   LIBCMTD:memcpy.obj
 0001:000192ac       str_misaligned             0041a2ac f   LIBCMTD:strlen.obj
 0001:000192c0       main_loop                  0041a2c0 f   LIBCMTD:strlen.obj
 0001:000192f3       byte_3                     0041a2f3 f   LIBCMTD:strlen.obj
 0001:000192fd       byte_2                     0041a2fd f   LIBCMTD:strlen.obj
 0001:00019307       byte_1                     0041a307 f   LIBCMTD:strlen.obj
 0001:00019311       byte_0                     0041a311 f   LIBCMTD:strlen.obj
 0001:000191c8       _gu_return                 0041a1c8 f   LIBCMTD:exsup.obj
 0001:000191d0       __unwind_handler           0041a1d0 f   LIBCMTD:exsup.obj
 0001:00018f80       ?CatchGuardHandler@@YA?AW4_EXCEPTION_DISPOSITION@@PAUEHExceptionRecord@@PAUCatchGuardRN@@PAX2@Z 00419f80 f   LIBCMTD:trnsctrl.obj
 0001:00019090       ?TranslatorGuardHandler@@YA?AW4_EXCEPTION_DISPOSITION@@PAUEHExceptionRecord@@PAUTranslatorGuardRN@@PAX2@Z 0041a090 f   LIBCMTD:trnsctrl.obj
 0001:000491b0       _$E37                      0044a1b0 f   libcpmtd:xlocale.obj
 0001:000491c0       _$E36                      0044a1c0 f   libcpmtd:xlocale.obj
 0001:000443c0       _$E47                      004453c0 f   libcpmtd:wlocale.obj
 0001:000443d0       _$E46                      004453d0 f   libcpmtd:wlocale.obj
 0001:00039930       _$E2                       0043a930 f   libcpmtd:nomemory.obj
 0001:00039270       __Mbrtowc_lk               0043a270 f   libcpmtd:xmbtowc.obj
 0001:00038c80       _$E32                      00439c80 f   libcpmtd:locale.obj
 0001:00038ca0       _$E28                      00439ca0 f   libcpmtd:locale.obj
 0001:00038cc0       _$E31                      00439cc0 f   libcpmtd:locale.obj
 0001:00035180       _$E18                      00436180 f   libcpmtd:locale0.obj
 0001:00035190       _$E15                      00436190 f   libcpmtd:locale0.obj
 0001:000351b0       _$E17                      004361b0 f   libcpmtd:locale0.obj
 0001:000351d0       _$E16                      004361d0 f   libcpmtd:locale0.obj
 0001:000358d0       _$E29                      004368d0 f   libcpmtd:locale0.obj
 0001:000358f0       _$E25                      004368f0 f   libcpmtd:locale0.obj
 0001:00035910       _$E28                      00436910 f   libcpmtd:locale0.obj
 0001:00034670       ?_CleanUp@std@@YAXXZ       00435670 f   libcpmtd:xlock.obj
 0001:00034570       _$E24                      00435570 f   libcpmtd:strstrea.obj
 0001:00034590       _$E20                      00435590 f   libcpmtd:strstrea.obj
 0001:000345b0       _$E23                      004355b0 f   libcpmtd:strstrea.obj
 0001:00033610       _$E24                      00434610 f   libcpmtd:string.obj
 0001:00033630       _$E20                      00434630 f   libcpmtd:string.obj
 0001:00033650       _$E23                      00434650 f   libcpmtd:string.obj
 0001:000310c0       _$E18                      004320c0 f   libcpmtd:wiostrea.obj
 0001:000310d0       _$E15                      004320d0 f   libcpmtd:wiostrea.obj
 0001:000310e0       _$E17                      004320e0 f   libcpmtd:wiostrea.obj
 0001:00031100       _$E16                      00432100 f   libcpmtd:wiostrea.obj
 0001:00031110       _$E24                      00432110 f   libcpmtd:wiostrea.obj
 0001:00031120       _$E21                      00432120 f   libcpmtd:wiostrea.obj
 0001:00031130       _$E23                      00432130 f   libcpmtd:wiostrea.obj
 0001:00031150       _$E22                      00432150 f   libcpmtd:wiostrea.obj
 0001:00031160       _$E29                      00432160 f   libcpmtd:wiostrea.obj
 0001:00031170       _$E26                      00432170 f   libcpmtd:wiostrea.obj
 0001:00031190       _$E28                      00432190 f   libcpmtd:wiostrea.obj
 0001:000311b0       _$E27                      004321b0 f   libcpmtd:wiostrea.obj
 0001:000311c0       _$E34                      004321c0 f   libcpmtd:wiostrea.obj
 0001:000311d0       _$E31                      004321d0 f   libcpmtd:wiostrea.obj
 0001:000311f0       _$E33                      004321f0 f   libcpmtd:wiostrea.obj
 0001:00031210       _$E32                      00432210 f   libcpmtd:wiostrea.obj
 0001:00031220       _$E39                      00432220 f   libcpmtd:wiostrea.obj
 0001:00031230       _$E36                      00432230 f   libcpmtd:wiostrea.obj
 0001:00031250       _$E38                      00432250 f   libcpmtd:wiostrea.obj
 0001:00031270       _$E37                      00432270 f   libcpmtd:wiostrea.obj
 0001:00031280       _$E44                      00432280 f   libcpmtd:wiostrea.obj
 0001:00031290       _$E41                      00432290 f   libcpmtd:wiostrea.obj
 0001:000312b0       _$E43                      004322b0 f   libcpmtd:wiostrea.obj
 0001:000312d0       _$E42                      004322d0 f   libcpmtd:wiostrea.obj
 0001:00031310       _$E49                      00432310 f   libcpmtd:wiostrea.obj
 0001:00031320       _$E46                      00432320 f   libcpmtd:wiostrea.obj
 0001:00031340       _$E48                      00432340 f   libcpmtd:wiostrea.obj
 0001:00031360       _$E47                      00432360 f   libcpmtd:wiostrea.obj
 0001:000313a0       _$E54                      004323a0 f   libcpmtd:wiostrea.obj
 0001:000313b0       _$E51                      004323b0 f   libcpmtd:wiostrea.obj
 0001:000313d0       _$E53                      004323d0 f   libcpmtd:wiostrea.obj
 0001:000313f0       _$E52                      004323f0 f   libcpmtd:wiostrea.obj
 0001:00031400       _$E59                      00432400 f   libcpmtd:wiostrea.obj
 0001:00031410       _$E56                      00432410 f   libcpmtd:wiostrea.obj
 0001:00031430       _$E58                      00432430 f   libcpmtd:wiostrea.obj
 0001:00031450       _$E57                      00432450 f   libcpmtd:wiostrea.obj
 0001:00033170       _$E70                      00434170 f   libcpmtd:wiostrea.obj
 0001:00033190       _$E66                      00434190 f   libcpmtd:wiostrea.obj
 0001:000331b0       _$E69                      004341b0 f   libcpmtd:wiostrea.obj
 0001:0002fab0       _$E18                      00430ab0 f   libcpmtd:iostream.obj
 0001:0002fac0       _$E15                      00430ac0 f   libcpmtd:iostream.obj
 0001:0002fae0       _$E17                      00430ae0 f   libcpmtd:iostream.obj
 0001:0002fb00       _$E16                      00430b00 f   libcpmtd:iostream.obj
 0001:0002fb10       _$E23                      00430b10 f   libcpmtd:iostream.obj
 0001:0002fb20       _$E20                      00430b20 f   libcpmtd:iostream.obj
 0001:0002fb40       _$E22                      00430b40 f   libcpmtd:iostream.obj
 0001:0002fb60       _$E21                      00430b60 f   libcpmtd:iostream.obj
 0001:0002fb70       _$E28                      00430b70 f   libcpmtd:iostream.obj
 0001:0002fb80       _$E25                      00430b80 f   libcpmtd:iostream.obj
 0001:0002fba0       _$E27                      00430ba0 f   libcpmtd:iostream.obj
 0001:0002fbc0       _$E26                      00430bc0 f   libcpmtd:iostream.obj
 0001:0002fbd0       _$E33                      00430bd0 f   libcpmtd:iostream.obj
 0001:0002fbe0       _$E30                      00430be0 f   libcpmtd:iostream.obj
 0001:0002fc00       _$E32                      00430c00 f   libcpmtd:iostream.obj
 0001:0002fc20       _$E31                      00430c20 f   libcpmtd:iostream.obj
 0001:0002fc30       _$E38                      00430c30 f   libcpmtd:iostream.obj
 0001:0002fc40       _$E35                      00430c40 f   libcpmtd:iostream.obj
 0001:0002fc60       _$E37                      00430c60 f   libcpmtd:iostream.obj
 0001:0002fc80       _$E36                      00430c80 f   libcpmtd:iostream.obj
 0001:0002fc90       _$E43                      00430c90 f   libcpmtd:iostream.obj
 0001:0002fca0       _$E40                      00430ca0 f   libcpmtd:iostream.obj
 0001:0002fcc0       _$E42                      00430cc0 f   libcpmtd:iostream.obj
 0001:0002fce0       _$E41                      00430ce0 f   libcpmtd:iostream.obj
 0001:0002fcf0       _$E48                      00430cf0 f   libcpmtd:iostream.obj
 0001:0002fd00       _$E45                      00430d00 f   libcpmtd:iostream.obj
 0001:0002fd20       _$E47                      00430d20 f   libcpmtd:iostream.obj
 0001:0002fd40       _$E46                      00430d40 f   libcpmtd:iostream.obj
 0001:00031020       _$E60                      00432020 f   libcpmtd:iostream.obj
 0001:00031040       _$E56                      00432040 f   libcpmtd:iostream.obj
 0001:00031090       _$E59                      00432090 f   libcpmtd:iostream.obj

FIXUPS: 31b17 1a 17 4c 46 31 13 1d 20 13 c2 98 13 3a e 14 1e 47 13e 2e
FIXUPS: 32024 5 5 5 16 50 fffff785 c a c 6 16 1e 15 d 2a c 11 16 27 c 13
FIXUPS: 31963 14 a c a 22 4b 17 11 28 2b e 21 1f 17 11 fffffaab 15 16 22
FIXUPS: 3160e 10 a 9 10 14 9 13 14 9 16 10 11 1e 9 19 13 f 13 6 1f 16 1d
FIXUPS: 317bc c a c 6 fffffb5a 1f 1b f 1d7ed c b fffe2821 10 15 10 c a
FIXUPS: 31404 d 18 1e 9 19 1b 1a 16 f c 1f 29 10 20 6 15 18 19 fffffa79
FIXUPS: 4ea4a 12 12 12 12 12 12 e fffe25b9 28 17 a a 4b 34 1d996 b fffe26eb
FIXUPS: 3120f 1d906 b fffe2730 12 1b 1d8b7 c b fffe2777 14 1d87e b fffe20ec
FIXUPS: 30c69 20 b 5 14 1c 20 b 5 14 1c 20 29 32 1d 20 25 20 25 24 25 26
FIXUPS: 30eeb c 20 25 26 31 16 c 26 2fda 44 8e e df 5 5 5 16 20 ffffc8fb
FIXUPS: 30ab9 12 1e 20 b 5 12 1e 20 b 5 14 1c 20 b 5 14 1c 20 b 5 2d5e
FIXUPS: 339b1 17 4e 44 34 16 27 13 20 16 27 13 1d 13 41 30 12 15 14 1f
FIXUPS: 33c6b 38 18 1b08c b fffe4f9e 238 13 3a e 14 fffff6b7 c a c 6 16
FIXUPS: 336aa 15 e 2c c 11 16 27 c 13 24 14 a c a 5f 5b 17 11 28 2b e 21
FIXUPS: 3394d 17 11 fffff9dc 1f 1a 73 31 10 a 9 11 14 9 14 14 9 16 11 11
FIXUPS: 33506 9 1b 15 f 13 6 1f 17 20 2f c a c 6 fffffaca 1f 1b f 1bbfd
FIXUPS: 4ed30 b fffe4410 11 15 10 c a d e 1a 1e 9 1b 1d 1b 16 f c 1f 29
FIXUPS: 332cf 20 6 17 1b 1b fffff8f6 30 21 11 11 e 6 70 c a 27 a 2d 16
FIXUPS: 32dca 17 4f 8f c a 2b 6 2d b 18 11 5a 30 71 14 1bc8e b fffe3a91
FIXUPS: 327eb 48 1c402 b fffe3c5b 34 1c396 b fffe3cbe 1b 7 23 21 21 c 9a
FIXUPS: 32aa1 1c1f4 b fffe3e5b 34 1c196 b fffe3ec0 12 1b 1c127 c b fffe3efc
FIXUPS: 32c08 fffff87a 32 1d 20 25 20 25 20 25 24 25 26 32 c 26 31 16 c
FIXUPS: 326ec 31 1c47d 12 12 12 12 12 12 e fffe3b39 28 17 a fffffa45 1e
FIXUPS: 32219 b 5 12 1e 20 b 5 14 1c 20 15 b 1b 5 14 1c 20 15 b 1b 5 14
FIXUPS: 323d9 20 b 5 14 1c 20 1c98b b fffe5750 35 1d e 1c 13 21 25 5 5
FIXUPS: 34623 16 20 ffffda6b 5 10 10 20 b 5 10 10 20 b 5 12 1e 20 b 5 202f
FIXUPS: 3420b e 1ab4b b fffe54e5 19 1ab17 b fffe551f 23 e 44 f 1aa72 b
FIXUPS: 3435b 13 21 4e 16 1a9d1 b fffe5665 1d e 1c 13 21 49 13 e cfd 10
FIXUPS: 3524d 12 15 a e 12 c 9 9 9 1d 12 15 a e 1e 2e 87 4d 39 14 38 14
FIXUPS: 354e6 8e 5 5 5 16 20 fffff9d7 15 9 9 8 20 c 10 1c 16 2a a 2d 15
FIXUPS: 350ad e 12 c 9 9 9 24 16 20 a 2d 15 a e 1e 2f b fffffaf5 3b 14
FIXUPS: 34d5a 34 14 d 22 a 10 a 10 8 c a 14 8 2f c a 1b 25 17 31 14 a c
FIXUPS: 34f49 c a c 15 fffffa45 21 20 2a 1a475 c b fffe5be2 12 1a417 b
FIXUPS: 34b00 f 1a3d5 b fffe5c74 e 9 9 9 39 9 9 34 c a c 3c 15 a 3b 32
FIXUPS: 360bb 24 2e 3d fffff4d5 fffff08f 12 1a747 b fffe58dc 16 2a b 52
FIXUPS: 347b0 20 2a 1a63b c b fffe5a04 26 1a5de b fffe5a4f 16 2a b 55 12
FIXUPS: 4ee77 b fffe6d3e 1f 20 41 16 a c 17 19301 b fffe6d32 2a 2d 1928d
FIXUPS: 4efb1 fffe6e16 12 191ee b fffe6e9f 13 e 6e 26 2d 19091 a c fffe6fc3
FIXUPS: 36030 23 14 fffff76d 19 19737 b fffe68ff 23 e 44 f 19692 b fffe698c
FIXUPS: 358ee 21 4e 16 195f1 b fffe6a45 1d e 1c 13 21 3a 12 68 17 14 f
FIXUPS: 35b4b 3b 194fe b fffe7685 42 1894e b fffe76dc 13 44 3c 35 f f f
FIXUPS: 4f0c4 c 9 b fffe77c8 19 f 5 5 5 16 20 ffffee08 55 13 e 1976d b
FIXUPS: 3635e 1f 47 47 18 10 1d 15 14 c 32 18b6d 9 9 b fffe74cc 42 1b 1a
FIXUPS: 365ad 23 15 c 1f 2d 18a17 a 10 e fffe7603 1b 36 18f6f fffea540
FIXUPS: 39b91 40 15a83 b fffea5b0 12 40 15a13 b fffea605 5 5 5 16 20 ffffc4bb
FIXUPS: 36189 12 1e 20 e 8 f 35 7 1d 25 18d89 c fffe72bc 192f2 fffea2bc
FIXUPS: 3989c 36 a 3a 1d 19 c 15c7c 9 b fffea3be 1d 19 c 15c0c 9 b fffea421
FIXUPS: 39a3d 62 1a a 18 15b39 b fffea4f0 1a a 18 15ae9 fffe9e54 10 1a
FIXUPS: 394d1 30 16073 a c fffe9fb5 11 11 23 16 e 10 1a 1f 30 15f73 a c
FIXUPS: 396a7 28 69 13 5a 1a 1d 28 2a 28 15d5e fffe9b69 c 21 a c 21 e d
FIXUPS: 391b0 37 d 18 8 13 70 24 28 e 1d f 2a 8 10 48 8 10 20 40 11 11
FIXUPS: 39464 16 fffff9a1 a c 21 12 d 14 45 d 18 8 13 3e 14 b c 1a 14 d
FIXUPS: 38fc2 42 d 18 8 13 44 18 c 12 c 25 18 fffff96f d 14 c 12 c 29 5a
FIXUPS: 38b62 d 1c 8 19 44 14 1e 17 19 22 1e 4f 1f 7a f 167cb 9 b fffe9844
FIXUPS: 38dbf 19 16 c 16705 fffe9205 1c 16df4 b fffe9245 1c 16db4 b fffe927c
FIXUPS: 387ce 26 17 13 26 23 10 2a 29 57 13 12 f 16 16 c 21 a c 21 5e 18
FIXUPS: 4f494 b fffe8ed0 12 25 11 15 d 28 170b3 b fffe8fb0 12 25 11 15
FIXUPS: 384d9 28 16fd3 b fffe90a4 5 12 2a 11 19 d 27 32 14 c 16e80 fffe8abe
FIXUPS: 37fc5 26 17449 b fffe8c30 12 1c 12 11 15 d 28 1734a b fffe8d10
FIXUPS: 38181 1c 12 11 15 d 28 1726a b fffe8df0 12 25 11 15 d 28 fffff99f
FIXUPS: 37cb0 15 a 12 28 12 11 15 f 1e 17666 9 9 9 9 b fffe89ec 12 1c 12
FIXUPS: 37e44 2e 13 26 17569 b fffe8b10 12 1c 12 15 173dc c c b fffe8548
FIXUPS: 378e4 40 2c 34 1c 179f4 b fffe8630 5c 13 1d e9 1c 17854 b fffe87ed
FIXUPS: 37bc9 1f 15 10 13 25 c a c 25 c 17627 fffe83f7 16 13 13 d f 11
FIXUPS: 37749 17b8b c c c b fffe8493 16 13 13 14 17b2e c c c b fffe84f7
FIXUPS: 37849 8 12 f f f 17ac4 fffffed6 a b fffe8145 1c 17eb4 b fffe8195
FIXUPS: 3743b 15 24 16 f d 1c 17 44 e c 17d3d c 9 9 9 b fffe82dc 42 11
FIXUPS: 37617 20 45 17c38 fffe7ea4 d c e c 5 21 1e 20 d c e c 5 21 1e 20
FIXUPS: 37293 c e c 15 18 1e 1c c 15 17eb3 a b b b fffe7ce3 8 3e a 11 15
FIXUPS: 36f84 18230 9 a 18 b fffe7dd5 c 21 1e 20 d c e c 5 21 1e 20 d c
FIXUPS: 370e8 c 5 21 1e 18007 fffe7a6c 4c 21 3d 18 21 14 23 16 11 1f 15
FIXUPS: 36d26 12 1841d a 9 c b fffe7c10 7 21 33 18 18393 c fffe7ca5 f 20
FIXUPS: 36ea3 1e 2fe1 76 2e 21 29 ffffc9c1 21 2e 12 22 15 6 12 186f4 a
FIXUPS: 4f10a fffe793d 1d 32 10 18 21 14 24 16 11 18 12 185ad a 9 c fffeb7db
FIXUPS: 3a939 fffff8cf 2c 13 55 dd a7 3b 55 58 44 13 49 45 33 19 6b 49
FIXUPS: 3a706 2b 61 3b fffff863 20 13 89 a6 fffffbae 20 13 89 b3b5 40 b103
FIXUPS: 502ff ffff4f30 12 40 b093 b ffff4fa0 12 40 b023 b ffff5010 12 40
FIXUPS: 50354 b ffff5065 5 10 ffff5445 a 10 e 19 35 1d e 1c 13 15931 ffff4c20
FIXUPS: 44e51 40 b3a3 b ffff4c90 12 40 b333 b ffff4d00 12 40 b2c3 b ffff4d70
FIXUPS: 45001 40 b253 b ffff4de0 12 40 b1e3 b ffff4e50 12 40 b173 b ffff4ec0
FIXUPS: 44b39 a 18 b619 b ffff4a10 1a a 18 b5c9 b ffff4a67 26 19 c b563
FIXUPS: 501bd b ffff4ac7 12 40 b4f3 b ffff4b40 12 40 b483 b ffff4bb0 12
FIXUPS: 44e01 b413 fffffeab ffff4830 1a a 18 b7a9 b ffff4880 1a a 18 b759
FIXUPS: 500ff ffff48d0 1a a 18 b709 b ffff4920 1a a 18 b6b9 b ffff4970
FIXUPS: 44ac9 a 18 b669 b ffff49c0 fffffb6c b989 b ffff46a0 1a a 18 b939
FIXUPS: 5003f ffff46f0 1a a 18 b8e9 b ffff4740 1a a 18 b899 b ffff4790
FIXUPS: 44829 a 18 b849 b ffff47e0 1a a 18 b7f9 ffff431f 19 c bb9c 9 b
FIXUPS: 44446 1d 19 c bb2c 9 b ffff450e 1d 19 c babc 9 b ffff4569 30 45
FIXUPS: 445e3 19 c b9ec 9 b ffff4647 1a a b891 ffff4202 1d 19 c bdcc 9
FIXUPS: 4ff28 ffff4261 14 69 1d 19 c bcec 9 b ffff434e 1d 19 c bc7c 9 b
FIXUPS: 44326 1d 19 c bc0c 9 b ffff442e fffff8f2 13 62 1a 22 2a 29 28 c0d0
FIXUPS: 4feaf ffff3f4c d0 21 1f 14 42 46 2f 1d 19 c beac 9 b ffff418e 14
FIXUPS: 44094 19 c be2b c 9 ffff3a3b 16 e 10 1a 1f 30 c473 a c ffff3bb5
FIXUPS: 43a20 11 23 16 e 10 1a 1f 30 c373 a c ffff3cbc 1d 19 c c30c 9 b
FIXUPS: 43c0f 28 c1ad a c ffff38b5 11 11 23 16 e 10 1a 1f 30 c673 a c ffff39b5
FIXUPS: 437e0 11 23 16 e 10 1a 1f 30 c573 a c ffff3ab5 11 11 fffffa99 e
FIXUPS: 433c8 1a 1f 30 c973 a c ffff36b5 11 11 23 16 e 10 1a 1f 30 c873
FIXUPS: 4fdce c ffff37b5 11 11 23 16 e 10 1a 1f 30 c6dd c ffff33b5 11 11
FIXUPS: 43154 16 e 10 1a 1f 30 cb73 a c ffff34b5 11 11 23 16 e 10 1a 1f
FIXUPS: 43311 ca73 a c ffff35b5 11 11 23 fffffa84 10 1a 1f 30 ce73 a c
FIXUPS: 42ecf 11 11 23 16 e 10 1a 1f 30 cd73 a c ffff32b5 11 11 23 16 e
FIXUPS: 43068 1a 1f 30 cc73 ffff2ca0 22 4c 16 1b 2e d225 ffff2e37 17 1f
FIXUPS: 42b4f 1d 9b 27 61 11 11 23 16 e 10 1a 1f 30 cf73 a c ffff30b5 11
FIXUPS: 42dd1 23 16 fffff53c 21 1a 13 24 15 2f c 25 7e 17 28 11 1d2 13
FIXUPS: 426fa 18 34 3d 3d 73 24 26 a 8 29 20 15 1c f 25 84 fffff4fe f 23
FIXUPS: 41f0e f 1f 10 1c 2b e 1d f 28 15 20 38 1d f 22 d5 8 52 1d 15 39
FIXUPS: 4229b 17 1d 18 26 a 18 fffff821 11 20 3d c a c 6 ac 1e 7 2b 13
FIXUPS: 41cfc 3b 30 26 a 8 31 e 17 11 9 19 16 8 e e 15 20 15 fffff91d f
FIXUPS: 41806 16 10 23 a 10 23 11 14 10 18 32 d 14 9 4f 15 1a 23 63 16
FIXUPS: 41a87 9 11 3d c a c 6 41 fffff844 20 26 f 23 58 20 13 2e a 2d 60
FIXUPS: 4156c 38 25 e6eb b ffff1940 2c 13 bf 6 13 6 1e 15 9 b c 2b 18 9
FIXUPS: 41039 c 18 18 1d 1c c c f eb6f 9 9 9 9 c c 9 c b ffff1547 30 14
FIXUPS: 41257 10 30 c 24 11 25 22 20 23 fffffab0 e 15 21 9 15 1b 12 e 7
FIXUPS: 40ebd 8 b 7 7 8 f 18 16 9 15 1b c 15 16 b 7 7 c 1c 36 22 fffffa15
FIXUPS: 40a50 c b 47 22 1c 14 25 f 11 14 25 f f c 16 25 f 6e 12 12 d 22
FIXUPS: 40ce1 c d 26 41 78 9 15 fffffaad 2a 17 10 c 1b c f25f c c 9 9 9
FIXUPS: 4fbc6 c c c c c 9 9 1a b ffff0d5a 22 12 12 22 12 8 f c fffffb2b
FIXUPS: 4057e 2e 24 78 28 47 c 11 d 18 f 15 6 14 e 19 c 13 26 c e 17 14
FIXUPS: 407f6 11 1f 10 10 d 23 10 fffffa31 15 21 f 21 40 18 f 25 13 8 15
FIXUPS: 403ed f c 14 14 e 1a 7 c f 1a 18 d 18 e 11 c f 17 2a fffffa2f 15
FIXUPS: 3ffa7 16 13 72 c 17 11 14 f 19 8 16 d 14 d 1b 15 12 20 21 15 21
FIXUPS: 401c6 21 41 17 f 25 f 14 f8e2 ffff003a 1e 7 2b 1c c 7 31 13 7 91
FIXUPS: 3fd1f 1a 18 13 6 13 6 2e 29 33 6 13 6 8e 25 15 15 25 15 13 fffff6dc
FIXUPS: 3f66b 1b 15 18 1a 10477 b fffefd02 25 15 c f c 25 67 36 c d 26
FIXUPS: 3f9e4 39 3a 3b 35 1f 4c 1d 1a 1f ffdc 9 fffef589 23 e d 14 3d d
FIXUPS: 3f1aa 9 13 61 24 117 c 12 29 31 5a 3a 1e f 20 25 15 28 18 12 2f
FIXUPS: 3f5ae 1b 15 1d fffff7d6 d 14 4b d 18 9 13 3e 14 f e 1a 14 d 14
FIXUPS: 3ef84 d 18 9 13 43 18 10 14 10 27 18 16 10 23 a fffff919 10 2b
FIXUPS: 3ea93 1e d 1c 9 19 44 14 1e 1c 20 22 1e 4f 1f 7b f 10e3e 9 b fffef1d4
FIXUPS: 3ed20 19 16 10 23 a 10 23 fffff8d6 f 11460 b fffeebf2 9 34 9 11
FIXUPS: 3e78e c a c 16 12 79 14 12 f 17 16 10 23 a 10 23 5e 18 21 d 14
FIXUPS: 3e9eb fffff8b3 32 15 b 1b 13 26 17 13 26 17 13 1d 13 1d 13 32 15
FIXUPS: 3e470 1b 35 15 15 15 b 21 20 13 1d 31 75 55 fffff7c3 13 18 57 60
FIXUPS: 3df7d 8e 13 33 b 1f 13 45 f 11a02 b fffee61c 13 26 17 13 26 17
FIXUPS: 3e1be 32 15 15 b 16 13 26 17 11819 9 b fffede9d 8a 40 40 40 96
FIXUPS: 3db84 1c 11f24 b fffee11f 1f 1f 37 6 1f 34 6 5c 1b 10 32 6 1f 10
FIXUPS: 3ddd9 6 14 10 fffff788 1f 1d 1247d b fffedbb5 1c 12444 b fffedc60
FIXUPS: 3d6ec 2f e b 10 11 28 22 122e5 b fffedd5c 19 15 8 1a 40 1f 16 e
FIXUPS: 3d8cf 28 22 fffff8f6 2c 13 1d 5a 26 1a 4f 1c 12694 b fffed9c7 14
FIXUPS: 3d40b 22 c 9 1a 11 9 c a 8 15 13 2d 1d 1251e 9 b fffedb1e 14 fffff896
FIXUPS: 3ce1a 4a 1c 12af4 b fffed590 40 40 45 1c 129a4 b fffed6a0 3e 20
FIXUPS: 3d0b4 9 6 e f d 25 c 15 12881 17 b fffed7ee 1c 12804 b ffffff67
FIXUPS: 4f95f b fffed157 c d 22 35 c d 22 31 c 1a 38 c d 29 30 c 1a 38
FIXUPS: 3ccd7 d 29 41 e c d 1d 28 2e fffffa4c 1c 130d4 b fffecf6c 19 15
FIXUPS: 3c8d5 f 22 e 1a 19 c e 1f c 8 c a c a 25 28 1d 9 12 18 1a 1f 12eae
FIXUPS: 4f94d ffffff62 fffecbe0 12 25 11 15 d 28 133a3 b fffeccc0 12 25
FIXUPS: 3c5d7 15 d 28 132c3 b fffecdb4 5 12 2a 11 19 d 27 32 14 10 1316c
FIXUPS: 4f90f fffec7d6 26 13739 b fffec940 12 1c 12 11 15 d 28 1363a b
FIXUPS: 3c28f 12 1c 12 11 15 d 28 1355a b fffecb00 12 25 11 15 d 28 13483
FIXUPS: 3bdd0 15 a 12 28 12 11 15 f 1e 13956 9 9 9 9 b fffec6fc 12 1c 12
FIXUPS: 3bf64 2e 13 26 13859 b fffec820 12 1c 12 15 2e fffff9e9 5c 42 b
FIXUPS: 3bb75 9 6 18 d 25 c 7 1f 13ba4 b fffec4b5 1c 13b44 b fffec4fd 1d
FIXUPS: 3bd08 15 10 13 25 c a c 25 c 8 fffff7d4 30 1c 14184 b fffebeb3
FIXUPS: 3b680 5a 80 3f 9 c 3d 3e 9 c 3d 33 3e 31 1c 42 49 14 19 13d93 c
FIXUPS: 4f79b fffec2a3 21 2c 13 fffff6e0 e c f 144ed a b b b b b b b b
FIXUPS: 4f701 b b b c fffebab6 1c 14544 b fffebaf2 85 3f bb 61 40 87 73
FIXUPS: 3b56e fffff984 e c 5 24 1e 29 d c e c 5 24 1e 29 d c e c 5 24 1e
FIXUPS: 3b0c2 d c e c 5 24 1e 29 d fffffaf4 e c 5 24 1e 29 d c e c 5 24
FIXUPS: 3ad6a 29 d c e c 5 24 1e 29 d c e c 5 24 1e 29 d fffffb00 e c 5
FIXUPS: 3aa26 1e 20 d c e c 5 24 1e 29 d c e c 5 24 1e 29 d c e c 5 24
FIXUPS: 3ac24 29 d f2f7 6b03 b ffff9530 12 40 6a93 b ffff95a0 12 40 6a23
FIXUPS: 50a9f ffff9610 12 40 69b3 b ffff9680 12 40 6943 b ffff96d5 5 10
FIXUPS: 3a962 c 21 1e 20 d 15fba b ffff92b0 1a a 18 6d29 b ffff9307 26
FIXUPS: 49d05 c 6cc3 9 b ffff9367 12 40 6c53 b ffff93e0 12 40 6be3 b ffff9450
FIXUPS: 49e81 40 6b73 b ffff94c0 12 fffffac2 18 6f09 b ffff9120 1a a 18
FIXUPS: 50914 b ffff9170 1a a 18 6e69 b ffff91c0 1a a 18 6e19 b ffff9210
FIXUPS: 49b89 a 18 6dc9 b ffff9260 1a a 18 fffffb28 19 c 70fc 9 b ffff8f29
FIXUPS: 497d1 45 1d 19 c 702c 9 b ffff900e 14 1a 19 c 6fab c 9 b ffff907b
FIXUPS: 49959 a 18 6f59 b ffff90d0 1a fffffa21 e 10 1a 1f 30 7373 a c ffff8d3b
FIXUPS: 49576 1d 19 c 724c 9 b ffff8dee 1d 19 c 71dc 9 b ffff8e5e 1d 19
FIXUPS: 496d8 716c 9 b ffff8ece 7068 c ffff89b5 11 11 23 16 e 10 1a 1f
FIXUPS: 49231 7573 a c ffff8ab5 11 11 23 16 e 10 1a 1f 30 7473 a c ffff8bb5
FIXUPS: 493a0 11 23 fffffa84 10 1a 1f 30 7873 a c ffff87b5 11 11 23 16
FIXUPS: 48f78 10 1a 1f 30 7773 a c ffff88b5 11 11 23 16 e 10 1a 1f 30 7673
FIXUPS: 48b77 38 11 11 23 16 e 10 1a 1f 30 7a73 a c ffff85b5 11 11 23 16
FIXUPS: 48d38 10 1a 1f 30 7973 a c ffff86b5 11 11 23 16 fffff6d6 15 1a
FIXUPS: 48572 64 1f f 80e0 b ffff7f46 15 20 2f 1a f 27 16 33 1d 7 2c 12
FIXUPS: 4879b 1c2 13 19 17 34 3d 3d 73 24 7b78 9 9 9 c c 9 c b ffff7bc4
FIXUPS: 48299 842b b ffff7c9e 6 13 6 2a 16 c 21 a c 21 11 14 c 16 31 d
FIXUPS: 484c9 8 fffffa79 8 b 7 7 8 f 18 16 9 15 1b c 15 16 b 7 7 c 18 35
FIXUPS: 480b4 d c 18 18 1c 1c c c f 84f8 ffff757f 14 25 f f c 16 25 f 6e
FIXUPS: 47d00 12 d 22 2e c d 26 40 78 9 15 1b e 15 21 9 15 1b 12 e 7 8675
FIXUPS: 505c1 9 c c c c c c 9 9 1a b ffff73da 22 12 12 22 12 8 f c 11 f
FIXUPS: 47aeb b 46 22 1c 14 25 f fffffbd2 b 13 6 14 d 19 b 13 26 c e 17
FIXUPS: 4787b d 11 20 c 10 d 23 10 1a 29 18 10 c 1b c 8be4 c c ffff6ec0
FIXUPS: 47485 14 f c 14 14 d 1a 7 b f 19 18 d 18 d 11 b f 17 29 f 1c 2e
FIXUPS: 4766f 78 28 47 c 11 d fffff9d5 18 8 16 d 14 d 17 15 12 20 21 15
FIXUPS: 4726e b 1f 41 17 f 25 f 14 21 15 21 b 1f 41 17 f 25 13 fffff933
FIXUPS: 46daf b 21 13 1d 2c 10 3c 19 25 2c 6 13 6 6e 25 15 15 25 15 13
FIXUPS: 4703b 15 17 16 13 72 c 17 11 14 fffff911 13 26 17 13 32 15 b 1b
FIXUPS: 46b3e 26 17 13 26 17 13 1d 13 1d 13 32 15 b 1b 13 45 f 9862 b ffff67bc
FIXUPS: 46d70 15 fffff8b5 c 27 6 14 c 35 13 18 58 60 62 a7 14 19 9c53 c
FIXUPS: 5054b ffff63fc 42 b 11 9 6 18 d 25 c 7 1f 9b24 b ffff5bf3 16 e
FIXUPS: 46187 27 22 a324 9 b ffff5cfd 8a 40 40 40 96 4f 1c a0c4 b ffff5f7f
FIXUPS: 464bc 1f 31 6 1f 2e 6 59 1b c 30 6 fffff7aa a6af 9 b ffff598e 14
FIXUPS: 45e4b 1f 1d a60d b ffff5a25 1c a5d4 b ffff5ad0 1d 2f e b 10 11
FIXUPS: 4603c 22 a476 b ffff5bcc 19 15 8 16 3c fffff91d c 15 a993 17 b
FIXUPS: 45b04 1c a914 b ffff5746 26 1a 4f 1c a824 b ffff5837 14 21 22 c
FIXUPS: 45d02 1a 11 8 c a 8 15 13 2d fffffa94 21 1e 20 d c e c f aa97 a
FIXUPS: 50389 b b b b b b c ffff553d 1c aab4 b ffff5590 3e 1e 17 9 6 e
FIXUPS: 45a1e d fffffbb5 21 1e 20 d c e c 5 21 1e 20 d c e c 5 21 1e 20
FIXUPS: 4577a c e c 5 21 1e 20 d c e c 4dca 27 2e 52 fffffb47 62 1f ffffb19f
FIXUPS: 4541b 21 1e 20 d c e c 5 21 1e 20 d c e c 5 21 1e 20 d c e c fffd46ca
FIXUPS: 19cb2 2d 12 11 46 20 2d 18 fffffed5 30a88 3f 37 56 1b 25 15 3d
FIXUPS: 4a899 fffffa0f 27 13 64 5b 47 31 48 56 45 19 31 81 fffd0ab0 4d
FIXUPS: 1b129 60 fffffc4d fffffc11 5 a ffffff5c 36 3a fffffdc7 1c 13 6d
FIXUPS: 1a8cc fffffe4e ffffff5b 55 1f a fffffad1 fffffca4 60 33 63 4f 9e
FIXUPS: 1a0de 19 4d 4a 32df 7c 2a 28 ffffdf08 18 a 16 13 28 30 30 fffffd55
FIXUPS: 1b27e 2b c 2a 50 c 2b 3d c 3a fffffa0e 4d 40 40 43 4d 40 43 50
FIXUPS: 1cc0a 17 1c 4c 15 4d 5a 11 5c 1b ec 33 49 10e 1a a1 20 31 28 4f
FIXUPS: 1d200 31 18 45 18 f 1a 88 69 2a 34 39 fffff07f 1c 16 c 1f 62 51
FIXUPS: 1c605 45 c 5a 1f 93 57 8 51 2b 28 28 28 16 94 2b 32 2b 39 20 49
FIXUPS: 1cabc 22 67 47 fffff32e 5f 54 85 15 1e d 18 20 1c 10 a 24 1c 50
FIXUPS: 1c14d 1f 62 34 3b 2b 3b 45 2b c 41 6b 56 36 c 2b 1c fffff233 1c
FIXUPS: 1b762 28 5f 54 21 128 1e 1b 33 2f 51 15 1e d 35 21 1b 1c 6b 28
FIXUPS: 1bc04 4f 18 1f 5b 66 25 25 b3 19 2095 27 9 fffffca5 17 62 12 58
FIXUPS: 1dce5 23 10 3c 10 c fffffdf8 fffffea4 7f 47 fffffe62 11 fffffc47
FIXUPS: 1d5b6 45 4b ffffdf9e 26 28 15 18 d 1d 25 2c5d 63 34 47 1e d 2f
FIXUPS: 1e458 11 1d 21 14 26 19d 18 19 19 a fffff73d e 8 b f 10 a 5 5 25
FIXUPS: 1de97 17 10 2f 1522 15 14 7 17 6b 20 fffff22c 12 1d 20 1e 20 1b
FIXUPS: 1e82c 12 13 19 b 31 10 fffff7a3 10b 2a 18 38 16 2b 14 2e 18 18
FIXUPS: 1efef 37 19 4e b b b 2d 18 20 24 b 37 a e5 12 24 f 1f 12 1e 26
FIXUPS: 1f331 1c 12 21 d a 13 16 13 28 414 fffffd60 22 fffff37a 32 92 3f
FIXUPS: 1ea4f 10 b 15 15 31 51 ba 3c 27 37 a 13 27 25 b2 63 ce 36 12 38
FIXUPS: 1ef82 31 16 f 14e7 33 4a 25 2b fffff4a4 60 13 a 34 a fffffd93 12
FIXUPS: 1f8bf 25 b 8 74 fffffc3a 2a 2e 37 81 2a 21 62 1a 1a 1a 1a 1a 1d
FIXUPS: 1fed8 1a 22 10 43 26 c 47 1b 40 50 31 4c 4e 1a 25 2a 9b 19 1b 26
FIXUPS: 202e2 1b 14 19 19 11 67 27 40 2a 45 bfc 12 34 33 48 3c 36 1c 1a
FIXUPS: 2120e 17 fffff8c5 ffffff54 ffffff5b fffffc9c 98 f6 fffff3ac 43
FIXUPS: 1fc3e 48 51 19 2f 2d 39 21 5a 38 47 17 31 16ca 14 f fffffe9a 2b
FIXUPS: 214a2 30 c d fffffeec 1b ffffff68 14 fffffed1 c 19 a c fffff894
FIXUPS: 20b36 19f 20 3a 2f 1a 48 60 ff 27 16 94 35 2703 10 3e 54 4d 28
FIXUPS: 22032 191 19 de0 ffffe8e1 ffffff51 8 12 27 b 2a fffffd9d 17 22
FIXUPS: 21646 2c 18 3f 10 70 10 a c 53 fffffd94 c 328f fffff185 34 24 cb
FIXUPS: 23b00 133 18 21 34 30 a8 e2 142 ba 31 1e 2a 1b 11d 25 122 1e 30
FIXUPS: 24411 32 22 26 170 55 53 ffffef7d 20ed fffffb27 4a 94 2b fffff903
FIXUPS: 24c96 1e 13 22 fffffe07 36 28 1f 29 26 17 12 1c fffffcc6 13 ffffff2b
FIXUPS: 24836 21 1f d 21 10 fffffecb d 11 2f 15da 2a 44 4b fffffe4d 2a
FIXUPS: 25d1a 4b fffffc49 18 11b 21 4b 5d 17 b5 fffffade 1c 77 3a 59 15
FIXUPS: 258a6 1d 14 13 14 1a 19 fffffa47 13 e8 1b07 14 14 14 14 14 14 fffff674
FIXUPS: 26670 a fffff83d 43 9 82 24 27 2a 17 58 50 44 1d 16 c4 13 28 16
FIXUPS: 26262 a 96 f2 10 948 11 10 11 11 11 11 11 11 11 11 11 11 11 11
FIXUPS: 26e4a 11 11 11 11 11 11 11 11 11 11 11 11 14 14 14 14 fffffa0a
FIXUPS: 2698f 1f 1f 1f 1f 1f 1f 1f 1f 1f 1f 1f 1f 1f 1f 1f 22 22 22 22
FIXUPS: 26c0a 22 22 22 22 22 25 2f 11 11 11 3da 14 5b 11 10 34 30 16 3b
FIXUPS: 266a2 1f 10 e 1e 11 25 11 5e 1f 1f 1f 1f 1f 1c 1f 1f 1f 1f 1f 1f
FIXUPS: 26932 1f af8 4d 1f 1f 1f 1f 17 17 1f 1f 1f 1f 1f 1f 1f 1f 1f bd
FIXUPS: 27725 11 11 11 11 11 fffff8b9 1d 1d 17 16 11 11 46 139b 93 3d 33
FIXUPS: 28643 1a 11 198 ffffefca 1f 19 19 19 108 65 a6 22 17 e 15 e e e
FIXUPS: 27afe 11 fffff840 1f 10 e 4c 11 4f 82a 3e 7 1c 7 1f c7 51 5a 1d
FIXUPS: 27eb1 6a 55 5a 62 28 2b 83 59 16 74 12 54 2f 51 55 1b 52 12 4b
FIXUPS: 2843b 52 1203 13 16 26 1e 41 93 20 68 82 10 30 10 30 10 fffff6ae
FIXUPS: 29035 13 6d a7 fffff9d5 21 21 24 2a 19 c fffffe91 1d fffff13c 29
FIXUPS: 27c2d 2208 f 6d 1a2 b 10 3e b fffffbfb b 14 14 f 27 11 4c fffffefe
FIXUPS: 29a8f 28 29 ffffff78 17 fffff815 41 8c 14 26f 19 1c 13 2a 3a 10e5
FIXUPS: 2a76c 10a 4a 7 15 5 7 e 267 35 35 1e8 fffff699 21 13 50 5e fffffd07
FIXUPS: 2a266 18 a6 10 31 2c 44 2c fffffcfd 37 fffffccd b 14 186c 24 51
FIXUPS: 2b72c 28 45 2d 2d 28 28 1c 29 41 84 3a 24 31 36 50 a 21 154 31c
FIXUPS: 2bf1d 1f0 ffffe4bc c 18 15 5 7 114 9c6 14 1c 1c 1c 1b 36 3a 9 2e
FIXUPS: 2b21b 48 9 2e 9 2e 9 2c 9 2c 9 2c 9 3d 54 84 8d 7e 23 23 23 3a
FIXUPS: 2c5cc 1b 76 be fffffb71 33 2c 32 20 2e 14 1b 43 6f ffffe9bd 15
FIXUPS: 2ae39 50 9 2e 9 71 15 1b 51 9 2e 9 6e 15 37 15 21bd eb 1c8 8c 152
FIXUPS: 2d785 238 13 fffff1f7 21 35 35 13a c 10 c 27 6c fffffaf3 85 69
FIXUPS: 2ca5b 8c 34 fffffd86 25 a 31 fffffeb0 24 a 23 17a1 2f 83 7d 11
FIXUPS: 2e19b b d6 b 65 b 7c 30 e b 18 32 45 2f fffff6a8 43 33 24 bd 2d
FIXUPS: 2dd41 32 43 c 10 c fffff35c 1a08 5b 52 6c 2c c d b0 53 66 53 25
FIXUPS: 2eea4 fffff729 e c f 22 28 78 6e 21 68 33 40 25 f fffffc9a 5c 41
FIXUPS: 2e5ac fffff975 1b85 c f 4c 27 f f 27 fffffc1f 70 4f 1df fffffa00
FIXUPS: 2f294 fffff5eb 11 14 12 8 7 1b 2b 17 150 e 15 18 c 18 17 a 15 180f
FIXUPS: 303b4 fffffc3c 43 ffffff4b ffffff4f 3a fffffeab b 14 c f 1e 1b
FIXUPS: 2fe31 10 29 2d fffffdf0 c d 3e 29 19 2c fffffe86 17 2e 2d a 16
FIXUPS: 2fa75 1b14a 31 16 10 1b fffe5cd5 f 58 28 29 fffffaf6 45 29 3a 40
FIXUPS: 305da 33 4b 59 5a c 19 42 3c a7 19 28 c 21 fffff822 19 d9 1b195
FIXUPS: 4b381 27 fffffdb6 18 10 f 39 5f fffffe53 1e 4e 15 2b fffffcdd 18
FIXUPS: 4ae30 af 5a 4f 79 fffffcbe 29 77 20 31 16 10 1b fffffd0e 29 77
FIXUPS: 4bb62 11 fffffbdd 1e 11 10 89 11 61 73 57 73 26 fffffbfa 50 c c
FIXUPS: 4b6aa 72 fffffe98 fffffe6a 18 14 f 38 3b 2c 1b 6c fffffe4a ffffff47
FIXUPS: 4b328 1128 82 2a fffffe04 3f 11 89 27 fffffb42 48 141 52 35 d1
FIXUPS: 4c2a2 fffffa4c 18 c 10 c0 80 20 27 d 4a 18 fffffb06 18 11 10 39
FIXUPS: 4baf8 1494 3e 54 4d 3c fffffc07 18 18 f 33 3b 2c 23 6e fffffb86
FIXUPS: 4c9b6 c f 3f 3e bf 8e 70 fffffa35 18 c 12 3a 40 d7 98 85 fffb48db
FIXUPS: 11ce 4c8c6 b 17 18 12 37 11 45 fffffa45 b 14 14 f 137 b 23 2c5
FIXUPS: 4d4e2 36 fffffdf0 24 13 4a de 3e fffffc5b 86 2a fffffcc0 10c fffb5356
FIXUPS: 22e2 2f 2b 56 23 22 4c 16 1b 2e 17 4b7dd fffb485e 10 86 10 2f 5
FIXUPS: 25bb 73 10 ffffe9db d 28 d 6e d 31 d 3e 18 ccc 2c 10 d 2e 10 52
FIXUPS: 1f26 28 11 3a 6e 1d f 10 32 10 44 10 68 a 18 17 21 1a 13 24 15
FIXUPS: 2230 c 25 f fffff7ad 3b 7 d 6f d 3c e d 45 d 36 d 54 f c f 11 1a
FIXUPS: 1c9a 17 4bfa3 b fffb4088 d 39 10 36 d 35 d 5f fffff8e3 d 52 12
FIXUPS: 1787 f f 17 4c458 c f f b fffb3ba8 d 3a 32 13 13 10 10 10 14 a
FIXUPS: 18f1 1b 13 62 10 d 66 c fffff93b 33 d 33 10 30 d 4b 12 16 12 11
FIXUPS: 14b9 8 21 4c6f2 c f f b fffb3908 1a 58 8 d 2d b 10 55 35 5b f 1e0b
FIXUPS: 34f1 24 ec b 2e 5a 13 d 8b 2b 2b 28 28 28 27 65 5 d 33 10 ffffd94b
FIXUPS: 123e d 33 d 33 10 30 d 2e 5 1ec6 12 7b 12 14 12 14 12 14 12 14
FIXUPS: 333b 14 12 14 12 15 f 27 20 f f f f d f 27 20 f f f f fffff887
FIXUPS: 2d7d 29 32 27 2c 2c 29 29 29 25 f0 f 42 17 29 17 29 17 26 17 26
FIXUPS: 3149 26 f f f f f f 18 12 fffff78c 12 12 12 12 12 12 4a 76 12 12
FIXUPS: 2ae1 f f f f f f f f 12 12 12 12 12 12 3e 7d 2c 27 2c 2c 13e3 ffffe5e6
FIXUPS: 26ff b b b b b b b 10 38 b b b b b b b b 12 12 12 12 12 12 12 12
FIXUPS: 288e 4a 83 12 128f 13 2c 17 7e 1a 77 36 c c c 21 28 37 28 3a c
FIXUPS: 3eb5 18 c 13 49 29 33 b c 12 40 bf 5 d 33 c72 f 10 38 1e 94 8 49
FIXUPS: 4ee7 15 10 39 10 6c 17 1f c d 59 5 d 33 10 ffffe8d0 60 2e 13 2c
FIXUPS: 3a72 85 1a 77 f24 12 e 13 f 1a 4923c 9 b fffb6e00 19 30 13 39 14
FIXUPS: 4c11 30 a 8 31 e 17 11 9 19 16 8 e e 15 20 15 fffff978 12 b c e
FIXUPS: 4721 92 f 35 14 1c 32 2b c 32 1d d 3c 7 d 35 d 7e 10 17 13 12 17
FIXUPS: 4a72 12 12 e 49213 f b fffb6810 13 13 5f 12 12 f f f f 17 49707
FIXUPS: 4dcf0 c c f f b fffb68e3 d 39 c b b c 15 12 11 9 fffffa82 33 d
FIXUPS: 41be 10 30 d 2e 5 d 33 d 33 10 30 d 4b 1b f f 12 12 1f 34 25 24
FIXUPS: 445d 21 49806 c c c fffb8a98 67 ba 12 49 12 47 f 4b 12 7c 10 4a
FIXUPS: 6a76 30 47363 e fffb8d0a b c 12 10 3b 12 10 32 5 d 33 10 ffffd4fb
FIXUPS: 413e 212b d 13 14 1a 17 1f 16 1f 19 54 25 14 44 1f 1c 24 37 10
FIXUPS: 64e2 10 a8 12 5a f 2f 10 32 10 3d 1d 35 fffff71a 62 1d 8 15 3a
FIXUPS: 5f25 1f 22 2f a e d 19 47 f 39 10 33 a e d 19 45 f 3b 10 3d 20
FIXUPS: 6202 f 10 fffff7bc 6 12 c f 17 483bd b fffb7c76 d 9d 1f 2b 3c 9
FIXUPS: 5bab 36 e d 35 9 9 d 9f 1f 2b 98 9 9 d 32 10 fffff87b 14 13 f 31
FIXUPS: 5734 48673 b fffb79b8 1e 42 3d 7 6 12 c 7 11 d f 12 c f f 17 4850b
FIXUPS: 4ddcf fffb7b55 d 79 1d f 483ba b fffb766c 8 b 8 16 f 1c 2e b c
FIXUPS: 54b7 10 3e 12 40 40 9 17 c f 10 51 9 b f 16 c f c 6 8785 10 ffff72bb
FIXUPS: 50ee d 33 d 33 10 30 d 2e 5 d 33 d 33 10 30 d 4f 16 c 21 48a17
FIXUPS: 4dd70 b fffb7622 f f 17 489b2 fffbfd1f 40761 b fffbf8d2 12 24 25
FIXUPS: db53 406d1 b fffbf962 12 24 25 17 40641 b fffbf9de 12 42 1a 2e
FIXUPS: dcce 5 5 5 5 d 2f 10 70 10 fffff959 40a9d b fffbf592 1a a 18 1a
FIXUPS: 4e1c4 b fffbf602 1a a 18 1a 409bd b fffbf6d2 12 19 17 13 6 13 6
FIXUPS: d94b 33 d a6 12 24 25 406d8 a c fffbf1d6 1d 19 c 24 40dce 9 b fffbf2bb
FIXUPS: d46b 48 18 48 18 36 13 13 4d 15 15 b d 37 c 10 48 1a a 18 fffff772
FIXUPS: ce66 20 31 12 7 20 48 18 48 18 41 8 10 22 a2 d 43 d 4e 18 71 11
FIXUPS: d223 23 16 e 10 1a 1f 30 1a fffff739 25 15 c f b 25 67 36 c d 26
FIXUPS: cbc7 39 39 3b 35 1f 47 1d 19 1f 1d 413c3 9 b fffbec5f 1d 7 20 3c
FIXUPS: ce53 fffff534 43 d 130 c 12 29 30 5a 39 1e f 20 25 15 28 18 12
FIXUPS: c719 38 1b 15 1d 37 39 1b 15 18 19 2d 41888 b fffbde48 d 21 23
FIXUPS: c007 c 1a 38 c d 28 23 6e c 1a 38 c d 28 23 4f e c d 1d 27 2e 18
FIXUPS: c312 23 2c 13 fffff979 1a 19 c e 1f c 8 c a c a 25 27 1d 9 12 18
FIXUPS: be4e 1f 1d 4226a 9 9 9 b fffbddb1 c d 21 23 43 fffff898 30 42886
FIXUPS: 4e0c7 fffbd7a6 14 10 2d d 92 10 34 13 13 4e d 133 17 54 1d 19 c
FIXUPS: bc26 424ae 9 b fffbdb8c 19 15 c f 22 fffff864 42b31 b fffbd502
FIXUPS: b592 11 23 16 e 10 1a 1f 30 1a 42a17 a c fffbd606 11 7 9 7 7 2c
FIXUPS: b73e 8 c 11 9 7 2c 45 fffff963 16 34 18 23 15 1d 42e56 b fffbd267
FIXUPS: b2d5 1d 20 20 3b 13 f e 16 36 f e 16 42 13 f e 16 36 21 16 15 fffff809
FIXUPS: ad49 46 10 50 1a 38 13 13 50 b d 2d a 13 5a 16 16 17 21 f 2d 35
FIXUPS: b05b f e 16 38 13 3e 13 f fffff789 c 15 43 24 436ba 9 9 b fffbc964
FIXUPS: a99e 73 13 13 6a 13 13 3a d 48 13 3b 1c 17 4345d b fffbcbd3 44
FIXUPS: ac7f 10 40 10 fffff852 11 11 23 16 e 10 1e 1f 30 1a 439b3 a c fffbc66b
FIXUPS: a67e 3c d 2e e d 31 13 13 3e 19 33 31 10 4e 18 11 fffff5be 27 17
FIXUPS: 9eb6 d 3c d 40 d 42 13 3a 26 19 2b 62 10 85 10 3c 10 d8 8 26 8
FIXUPS: a2f9 1f 29 33 10 2e 10 fffff58a 1a 29 37 10 2c 10 2f 10 7e 29 5d
FIXUPS: 9b72 9f a 8 29 20 15 16 f 10 35 1b 16 7 12 d 39 f d c8 fffff632
FIXUPS: 94a3 38 f 9 13 7 4d 24 1c 2f 40 1c 14 22 7 3e 3e b 2a 19 1e 7d
FIXUPS: 97da 44 19 13 32 2c 45 8 11 fffff6fb 12 2e c a c 6 1c 13 59 8 10
FIXUPS: 911a d 13 43 d 37 c a c 6 1c 13 29 c a c 14 11 18 13 fffff973 b
FIXUPS: 8c3f 16 42 23 1a 452e2 fffbad4f 15 8d 1f 16 7 20 1f 1d 15 17 b
FIXUPS: 8e84 16 1c 14 22 b 24 1f 23 1c 4504b b fffba796 1c 34 27 27 d 3d
FIXUPS: 885a 45 20 23 f 10 37 10 35 d 47 17 1d 18 10 56 d 61 1e 2f 14 d
FIXUPS: 8bf1 8 e fffff69d 23 10 2a 16 64 c d 5d 8 10 15 18 98 b 2e 3a 11
FIXUPS: 8561 6c 7 7 d 55 17 1f d 31 1f 28 3b 8 fffff71d 1d 460ff 9 b fffb9f23
FIXUPS: 7ecf 19 29 3b 10 73 19 45 10 34 20 d 57 f 2b f e 16 31 23 15 1a
FIXUPS: 4df94 b fffba2e3 1b fffff81d 14 c c f 17 46448 b fffb9be6 d 33
FIXUPS: 7b92 35 d 3e a 16 3a d 62 f 21 1a 12 12 61 15 1b 13 b 28 23 fffff9a4
FIXUPS: 7838 8 d 34 d 52 f f f 17 46600 c c b fffb9a12 f b e a 19 10 11
FIXUPS: 79db 3b 9 b a 15 b b d fffff9e0 17 46a61 b fffb95d7 16 13 13 c
FIXUPS: 750f 469d5 c c c b fffb962e 10 d 63 10 30 1f 10 61 13 13 78 d 43
FIXUPS: 778c 35 13 fffff993 17 46d06 b fffb933b 15 d f 17 46c92 b fffb93ad
FIXUPS: 726c b a a d 3c d 32 8 d 4f 1b a 2f 6 30 b 9 19 a fffffa52 16 f
FIXUPS: 6ec6 46f5e b fffb90bf 8 10 43 10 48 d 4c 1a a a f 17 46df6 b fffb924b
FIXUPS: 70af d f 17 46d82 b fffb92bb 1a a a 9ec2 49 32 10 64 5 d 33 10
FIXUPS: de99 5 d 33 10 ffff8d7b 5 d 33 d 33 10 30 d 2e 5 d 33 d 33 10 30
FIXUPS: 6e3b 9e01 b 15 11 2d 17 3d803 b fffc2825 10 31 10 2b 16 7e 1f 30
FIXUPS: 4e4d9 e fffc2987 d 3a 1c 30 13 13 3a 9 12 d 40 48 fffff94a b 11
FIXUPS: 10985 f f 10 b 13 b 13 b 11 11 17 17 3da4a b fffc25e4 c 11 18 3e
FIXUPS: 10b06 2c 10 84 12 13 b 17 17 fffffaaf 10 b 13 b 13 b 11 11 17 17
FIXUPS: 4e434 b fffc2382 10 16 1f 1a 3dc34 b fffc2402 10 16 1f 1a 3dbb4
FIXUPS: 4e47f fffc2487 10 11 e 10 fffffa26 15 11 21 21 17 3e00a b fffc2056
FIXUPS: 10465 2c 10 a5 f 26 f 12 19 1f 1a 3de26 b fffc2217 10 11 e 10 16
FIXUPS: 10696 11 e f fffffa36 b 12 b 16 b 13 14 9 b 12 b b 12 b e d 8 15
FIXUPS: 10211 1a 3e1a9 b fffc1e86 10 30 10 30 10 41 12 18 fffffbd1 b b
FIXUPS: ff58 11 b 12 12 b b 12 b 16 b 13 14 9 b 12 b b 12 b e e b b 11
FIXUPS: 100c0 b 12 12 fffffbd8 28 18 10 17 17 3e66f b fffc19c7 15 c 14
FIXUPS: fdd3 c 2e 10 c 12 1b d f f 10 10 f 13 14 b 15 e b b fffffb21 10
FIXUPS: fa57 12 b 12 e 10 12 c c 26 1a 3e866 b fffc17c6 9 17 41 29 e 9
FIXUPS: fbf7 c c 11 17 3e75d b fffc18e7 1c 10 fffffbb4 b 12 b 12 e 13 b
FIXUPS: f8dd 11 12 b 12 e 9 b 11 b 11 b 11 12 16 b 11 b 12 15 9 b 11 b
FIXUPS: f67c 14 14 15 b 17 b 11 11 12 b 12 e 9 b 11 b 11 b 11 12 16 b 11
FIXUPS: f7f1 12 15 9 b 11 b e fffffc44 13 b 13 b 11 e 10 d 9 17 e f f 10
FIXUPS: f579 13 b 13 b 10 12 16 d f d a 12 16 d f d fffffb21 10 2b c d
FIXUPS: f2ec 7 11 10 16 13 16 13 b f 1d b 11 e 10 13 13 e 10 b 11 e 10
FIXUPS: f460 10 f 10 fffff959 1a f b 8 1a 10 14 16 1a 3f4c2 b fffc0b66
FIXUPS: eed4 f d 39 11 9 11 6 13 1d 23 3a d 30 10 2d 10 e5 10 fffff9c0
FIXUPS: eb47 10 c 19 13 1f 2c 9 21 20 9 29 9 1d c 9 6 f 29 9 26 2a 3f60c
FIXUPS: 4e33f fffc0a37 10 9 15 9 15 17 fffff91b 1d 30 d 3b 17 4a f f f
FIXUPS: e833 2c 19 17 3fa85 b fffc05a6 1b 31 d 3b 18 34 17 53 10 32 b 17
FIXUPS: eaa8 17 4d fffff8d8 1d c f 1a 3fe7e 9 b fffc0199 d 4f f 17 3fdf1
FIXUPS: 4e2df fffc0252 9 17 14 c 9 11 20 3fd49 b fffc02ec 10 3a 17 39 17
FIXUPS: e6d9 fffffa9e f f f 12 12 12 12 12 12 12 12 12 12 12 12 12 12 12
FIXUPS: e2c4 12 12 12 c 11 15 c 15 23 3ff24 b fffc0129 4ba6 10 ffffafbe
FIXUPS: df43 a b f 1d 2b 2c f 12 1a 40251 c b fffbfdc3 d 50 16 f f f f
FIXUPS: e0ff f f f f f f f 48fb 1f 19 54 25 14 44 1f 1c 24 5a 12 5c f 32
FIXUPS: 12ce4 32 10 8d f 48 12 41 10 47 1f 30 3b5f6 e fffc4a22 5 d fffff576
FIXUPS: 124cb 1d 29 7a 2c 2c 36 39 36 36 4f 5f f 31 47 1e 1c c8 9 d 36
FIXUPS: 1295e 8 15 4e d 13 14 1a 17 1f fffff57d 2b 23 1d 23 1d 23 1d 23
FIXUPS: 120f2 23 1a 23 12 d 9a 3e 5b 69 14 e 1f 25 2f 25 14 e 2b 22 14
FIXUPS: 1245b 2b fffff574 22 2f c 24 40 18 48 40 79 f 71 f 71 f 90 1c 30
FIXUPS: 11dcb 28 2a c 18 2a c 1b 2d f 18 2d f 10 fffff4f9 b 72 73 12 3e
FIXUPS: 115fd 27 c 3a 27 c 31 1c 2c c 31 1c 2f f 10 3c 17 31 b 24 10 8d
FIXUPS: 11929 30 c 12 4664 3a 1c 30 13 13 32 5 d 33 10 ffffb07b 5 d 33
FIXUPS: 111db 33 10 30 d 2e 5 d 33 d 33 10 30 d 3d b 48 4838 c 11 18 3e
FIXUPS: 15ca6 2c 10 84 12 13 b 17 17 18 b 15 11 2d 17 38903 b fffc7725
FIXUPS: 15e94 31 10 7f 1f 30 387d6 e fffc7847 38726 b fffc7302 10 16 1f
FIXUPS: 15a60 38cb4 b fffc7387 10 11 e 10 16 b 11 e f f 10 b 13 b 13 b
FIXUPS: 15bab 11 17 17 38b4a b fffc7035 1a 38f26 b fffc7117 10 11 e 10
FIXUPS: 1582b b 11 e f f 10 b 13 b 13 b 11 11 17 17 38dba b fffc7282 10
FIXUPS: 15987 1f 1a fffff9db 16 1a 392a9 b fffc6d86 10 30 10 30 10 41 12
FIXUPS: 15500 b 15 11 21 21 17 3910a b fffc6f56 10 2c 10 a5 f 26 f 12 19
FIXUPS: 151d9 b b 12 b e e b b 11 11 b 12 12 b b 12 b 16 b 13 14 9 b 12
FIXUPS: 1533b b 12 b e d 8 fffffc70 d f f 10 10 f 13 14 b 15 e b b 16 b
FIXUPS: 150e7 11 11 b 12 12 b b 12 b 16 b 13 14 9 b fffffb7f 29 e 9 11
FIXUPS: 14da3 c 11 17 3985d b fffc67e7 1c 10 15 28 18 10 17 17 3976f b
FIXUPS: 14f26 15 c 14 18 c 2e 10 c 12 fffffb31 b 11 12 16 b 11 b 12 15
FIXUPS: 14ba7 b 11 b e 10 b 12 b 12 e 10 12 c c 26 1a 39966 b fffc66c6
FIXUPS: 14cee 17 fffffc2c 11 12 16 b 11 b 12 15 9 b 11 b e 10 b 12 b 12
FIXUPS: 14a4e 13 b 11 11 12 b 12 e 9 b 11 b fffffc4f b 10 12 16 d f d a
FIXUPS: 147d2 16 d f d b 14 14 15 b 17 b 11 11 12 b 12 e 9 b 11 b 11 fffffc41
FIXUPS: 14577 13 13 e 10 b 11 e 10 b 10 f 10 b 13 b 13 b 11 e 10 d 9 17
FIXUPS: 146e0 f f 10 b 13 b fffff9d2 11 9 11 6 13 1d 23 3a d 30 10 2d 10
FIXUPS: 14332 10 2b c d 106 7 11 10 16 13 16 13 b f 1d b 11 fffff918 6
FIXUPS: 13e86 29 9 26 2a 3a6cc b fffc5977 10 9 15 9 15 17 f 1a f b 8 1a
FIXUPS: 1402e 14 16 1a 3a582 b fffc5aa6 f f d fffff9d5 1b 31 d 3b 18 34
FIXUPS: 13b9c 53 10 32 b 17 35 17 4d 1a 21 10 c 19 13 1f 2c 9 21 20 9 29
FIXUPS: 13e3f 1d c fffff8b6 1c 1d c f 1a 3ae08 9 b fffc5223 10 3a 17 39
FIXUPS: 1387c 3d 1b 1d 30 d 3b 17 4a f f f 1c 2c 19 17 3ab45 b fffc4ec5
FIXUPS: 134a1 c f 1a 3b05e 9 b fffc4fb9 d 33 d 4f f 17 3af91 b fffc50b2
FIXUPS: 1361a 17 14 c 9 11 20 3aee9 b fffc515d 7 a b f fffffb44 f f f f
FIXUPS: 13296 f f f f f f f f f f f f f f f f f c 11 15 c 15 23 3b109 b
FIXUPS: 13468 fffffc03 f f f f f f f f f f f f f f f f f f f f f f f f
FIXUPS: 131e2 f f f f f f 2f9c 3e 12 2a 38542 b fffc7ae2 13 13 4f 12 1c
FIXUPS: 16333 21 38460 c b fffc7c7e f 17 38365 b fffc47ef 16 f f f f f
FIXUPS: 1303e f f 5be6 10 53 12 5c f 32 10 32 10 137 10 32 32 28 5 5 5
FIXUPS: 18f8d 5 d 2f 10 30 10 30 10 ffffd0e6 14 1d 11 3b 25ea d 29 1d 8
FIXUPS: 18819 3c a e d 19 45 f 3b 10 e7 d 13 14 1a 17 1d 16 1f 17 4e 25
FIXUPS: 18b6e 42 1f 1a 22 fffff6ef 16 31 13 13 3d 16 16 31 13 13 3d 16
FIXUPS: 18490 34 b d 38 b d 38 b d 49 11 15 14 d 51 13 10 11d fffff5ec
FIXUPS: 17da5 33 36b4d c b fffc9503 48 21 36aad b fffc95af 46 21 36a0f
FIXUPS: 4e990 fffc96a0 12 17 3694e b fffc978d 1f 2b bc 9 d 36 9 9 d 34
FIXUPS: 17935 11 d 6 16 43 c a 25 a 2a 16 8 10 17 38 44 c a 29 6 2a b 18
FIXUPS: 17b7c 10 3e 39 1c 34 1c fa fffff7b9 9 10 3f d 2a 19 3c 23 68 13
FIXUPS: 176b7 52 18 21 371b5 b fffc8e6c d b 8 10 3f d 34 d 33 d 63 d 42
FIXUPS: 17925 fffff882 3d 16 16 34 b d 3c d 43 1f 2b 8 d a 17 3756d c fffc8ac6
FIXUPS: 173be 19 1e f 15 11 9 c 13 66 10 39 b fffff944 13 f 4f 17 5b a
FIXUPS: 16f43 a 7 f 10 27 1f 14 1a 37880 b fffc87e7 21 14 33 377d4 c b
FIXUPS: 17106 22 21 3776b b fffc88c2 13 fffff8cc 12 3b d 56 22 19 13 1b
FIXUPS: 16b8f 13 1c 28 8 13 c c c 10 1e 21 36 1a 37b80 a c fffc849e d 33
FIXUPS: 16d45 d4 19 fffff82c d 5d 11 18 24 d 21 380be a c fffc7f70 b b
FIXUPS: 167ad 68 d 6e 19 1e 23 2f 17 37f01 b fffc8125 13 13 61 19 1e 23
FIXUPS: 1920e 10 30 d 34 2a b 16 a 29 356b9 fffca973 5 d 33 10 ffffd10b
FIXUPS: 1649e d 33 d 33 10 30 d 2e 5 d 33 d 33 10 2dcf 34 13 13 ad 2f 51
FIXUPS: 19591 45 d 43 d 6e 17 39 17 3b 17 fffff92f 5 d 33 d 33 10 30 d
FIXUPS: 19189 5 d 33 d 5ce 12 3e 351de b fffcaecf 13 13 52 12 30 21 3506b
FIXUPS: 4ea03 b fffcafef 1f 12 17 34fe2 b fffcb07b 12 d 75 16 21 3c 1b
FIXUPS: 19bf6 13 fffff7d0
